
SmartCartRTOS.elf:     file format elf32-littleriscv
SmartCartRTOS.elf
architecture: riscv:rv32, flags 0x00000112:
EXEC_P, HAS_SYMS, D_PAGED
start address 0x00000000

Program Header:
    LOAD off    0x00001000 vaddr 0x00000000 paddr 0x00000000 align 2**12
         filesz 0x0000f0e4 memsz 0x0000f0e4 flags r-x
    LOAD off    0x00011000 vaddr 0x20000000 paddr 0x0000f0e4 align 2**12
         filesz 0x00000200 memsz 0x000034d4 flags rw-
    LOAD off    0x00011800 vaddr 0x2000f800 paddr 0x2000f800 align 2**12
         filesz 0x00000000 memsz 0x00000800 flags rw-

Sections:
Idx Name          Size      VMA       LMA       File off  Algn
  0 .init         00000038  00000000  00000000  00001000  2**1
                  CONTENTS, ALLOC, LOAD, READONLY, CODE
  1 .vector       000001c8  00000038  00000038  00001038  2**1
                  CONTENTS, ALLOC, LOAD, READONLY, CODE
  2 .text         0000eee4  00000200  00000200  00001200  2**8
                  CONTENTS, ALLOC, LOAD, READONLY, CODE
  3 .fini         00000000  0000f0e4  0000f0e4  00011200  2**0
                  CONTENTS, ALLOC, LOAD, CODE
  4 .dalign       00000000  20000000  20000000  00011200  2**0
                  CONTENTS
  5 .dlalign      00000000  0000f0e4  0000f0e4  00011200  2**0
                  CONTENTS
  6 .data         00000200  20000000  0000f0e4  00011000  2**2
                  CONTENTS, ALLOC, LOAD, DATA
  7 .bss          000032d4  20000200  0000f2e4  00011200  2**2
                  ALLOC
  8 .stack        00000800  2000f800  2000f800  00011800  2**0
                  ALLOC
  9 .debug_info   0001d5dc  00000000  00000000  00011200  2**0
                  CONTENTS, READONLY, DEBUGGING
 10 .debug_abbrev 00003cfa  00000000  00000000  0002e7dc  2**0
                  CONTENTS, READONLY, DEBUGGING
 11 .debug_loc    0000c272  00000000  00000000  000324d6  2**0
                  CONTENTS, READONLY, DEBUGGING
 12 .debug_aranges 00000b98  00000000  00000000  0003e748  2**3
                  CONTENTS, READONLY, DEBUGGING
 13 .debug_ranges 000015a0  00000000  00000000  0003f2e0  2**3
                  CONTENTS, READONLY, DEBUGGING
 14 .debug_line   0001a281  00000000  00000000  00040880  2**0
                  CONTENTS, READONLY, DEBUGGING
 15 .debug_str    000047a8  00000000  00000000  0005ab01  2**0
                  CONTENTS, READONLY, DEBUGGING
 16 .comment      00000033  00000000  00000000  0005f2a9  2**0
                  CONTENTS, READONLY
 17 .debug_frame  0000356c  00000000  00000000  0005f2dc  2**2
                  CONTENTS, READONLY, DEBUGGING
 18 .stab         00000084  00000000  00000000  00062848  2**2
                  CONTENTS, READONLY, DEBUGGING
 19 .stabstr      00000117  00000000  00000000  000628cc  2**0
                  CONTENTS, READONLY, DEBUGGING
SYMBOL TABLE:
00000000 l    d  .init	00000000 .init
00000038 l    d  .vector	00000000 .vector
00000200 l    d  .text	00000000 .text
0000f0e4 l    d  .fini	00000000 .fini
20000000 l    d  .dalign	00000000 .dalign
0000f0e4 l    d  .dlalign	00000000 .dlalign
20000000 l    d  .data	00000000 .data
20000200 l    d  .bss	00000000 .bss
2000f800 l    d  .stack	00000000 .stack
00000000 l    d  .debug_info	00000000 .debug_info
00000000 l    d  .debug_abbrev	00000000 .debug_abbrev
00000000 l    d  .debug_loc	00000000 .debug_loc
00000000 l    d  .debug_aranges	00000000 .debug_aranges
00000000 l    d  .debug_ranges	00000000 .debug_ranges
00000000 l    d  .debug_line	00000000 .debug_line
00000000 l    d  .debug_str	00000000 .debug_str
00000000 l    d  .comment	00000000 .comment
00000000 l    d  .debug_frame	00000000 .debug_frame
00000000 l    d  .stab	00000000 .stab
00000000 l    d  .stabstr	00000000 .stabstr
00000000 l    df *ABS*	00000000 ./Drivers/RISC_V/Startup/startup_ch32v30x_D8C.o
00000038 l       .vector	00000000 _vector_base
00000000 l    df *ABS*	00000000 ./Middlewares/FreeRTOS/portable/GCC/RISC-V/portASM.o
00000264 l       .text	00000000 processed_source
00000428 l       .text	00000000 chip_specific_stack_frame
00000000 l    df *ABS*	00000000 L610.c
00000000 l    df *ABS*	00000000 ch32v30x_it.c
00000000 l    df *ABS*	00000000 freertos_demo.c
00000000 l    df *ABS*	00000000 main.c
00000000 l    df *ABS*	00000000 pages.c
00000000 l    df *ABS*	00000000 system_ch32v30x.c
00000000 l    df *ABS*	00000000 heap_4.c
0000109c l     F .text	0000004c prvInsertBlockIntoFreeList
20000aa8 l     O .bss	00002800 ucHeap
20000218 l     O .bss	00000004 pxEnd
2000021c l     O .bss	00000004 xBlockAllocatedBit
20000220 l     O .bss	00000004 xFreeBytesRemaining
20000224 l     O .bss	00000004 xMinimumEverFreeBytesRemaining
20000228 l     O .bss	00000004 xNumberOfSuccessfulAllocations
2000022c l     O .bss	00000004 xNumberOfSuccessfulFrees
20000230 l     O .bss	00000008 xStart
00000000 l    df *ABS*	00000000 port.c
200001e4 l     O .data	00000004 uxCriticalNesting
00000000 l    df *ABS*	00000000 list.c
00000000 l    df *ABS*	00000000 queue.c
000014cc l     F .text	0000001a prvIsQueueEmpty
000014e6 l     F .text	00000072 prvCopyDataToQueue
00001558 l     F .text	00000028 prvCopyDataFromQueue
00001580 l     F .text	0000006e prvUnlockQueue
00000000 l    df *ABS*	00000000 tasks.c
00001a5e l     F .text	00000024 prvResetNextTaskUnblockTime
00001a82 l     F .text	000000a6 prvAddCurrentTaskToDelayedList
00001b28 l     F .text	0000006e prvIdleTask
200032e8 l     O .bss	0000012c pxReadyTasksLists
20003414 l     O .bss	00000014 xDelayedTaskList1
20003428 l     O .bss	00000014 xDelayedTaskList2
2000343c l     O .bss	00000014 xPendingReadyList
20003450 l     O .bss	00000014 xSuspendedTaskList
20003464 l     O .bss	00000014 xTasksWaitingTermination
2000023c l     O .bss	00000004 pxDelayedTaskList
20000240 l     O .bss	00000004 pxOverflowDelayedTaskList
20000244 l     O .bss	00000004 uxCurrentNumberOfTasks
20000248 l     O .bss	00000004 uxDeletedTasksWaitingCleanUp
2000024c l     O .bss	00000004 uxSchedulerSuspended
20000250 l     O .bss	00000004 uxTaskNumber
20000254 l     O .bss	00000004 uxTopReadyPriority
20000258 l     O .bss	00000004 xIdleTaskHandle
2000025c l     O .bss	00000004 xNextTaskUnblockTime
20000260 l     O .bss	00000004 xNumOfOverflows
20000264 l     O .bss	00000004 xPendedTicks
20000268 l     O .bss	00000004 xSchedulerRunning
2000026c l     O .bss	00000004 xTickCount
20000270 l     O .bss	00000004 xYieldPending
00000000 l    df *ABS*	00000000 timers.c
000026a4 l     F .text	00000066 prvCheckForValidListAndQueue
0000270a l     F .text	00000046 prvInsertTimerInActiveList
00002750 l     F .text	00000028 prvReloadTimer
00002778 l     F .text	00000044 prvProcessExpiredTimer
000027bc l     F .text	0000002e prvSwitchTimerLists
000027ea l     F .text	00000192 prvTimerTask
20003478 l     O .bss	00000014 xActiveTimerList1
2000348c l     O .bss	00000014 xActiveTimerList2
20000274 l     O .bss	00000004 pxCurrentTimerList
20000278 l     O .bss	00000004 pxOverflowTimerList
2000027c l     O .bss	00000004 xLastTime.6277
20000280 l     O .bss	00000004 xTimerQueue
20000284 l     O .bss	00000004 xTimerTaskHandle
00000000 l    df *ABS*	00000000 usart.c
00000000 l    df *ABS*	00000000 delay.c
20000290 l     O .bss	00000002 g_fac_us
00000000 l    df *ABS*	00000000 ch32v30x_fsmc.c
00000000 l    df *ABS*	00000000 ch32v30x_gpio.c
00000000 l    df *ABS*	00000000 ch32v30x_misc.c
00000000 l    df *ABS*	00000000 ch32v30x_rcc.c
20000000 l     O .data	00000010 APBAHBPrescTable
200001ec l     O .data	00000004 ADCPrescTable
00000000 l    df *ABS*	00000000 ch32v30x_usart.c
00000000 l    df *ABS*	00000000 lcd.c
00000000 l    df *ABS*	00000000 fixunssfsi.c
00000000 l    df *ABS*	00000000 locale.c
00000000 l    df *ABS*	00000000 malloc.c
00000000 l    df *ABS*	00000000 mbtowc_r.c
00000000 l    df *ABS*	00000000 memcpy.c
00000000 l    df *ABS*	00000000 nano-mallocr.c
00000000 l    df *ABS*	00000000 nano-mallocr.c
00000000 l    df *ABS*	00000000 nano-vfprintf_float.c
00000000 l    df *ABS*	00000000 nano-vfprintf_i.c
00000000 l    df *ABS*	00000000 printf.c
00000000 l    df *ABS*	00000000 puts.c
00000000 l    df *ABS*	00000000 sbrkr.c
00000000 l    df *ABS*	00000000 strlen.c
00000000 l    df *ABS*	00000000 strstr.c
00000000 l    df *ABS*	00000000 strtod.c
00005d4c l     F .text	0000004e sulp
0000ec48 l     O .text	00000014 fpi.3395
0000ec5c l     O .text	00000014 fpinan.3431
0000ec78 l     O .text	00000028 tinytens
00000000 l    df *ABS*	00000000 wbuf.c
00000000 l    df *ABS*	00000000 wctomb_r.c
00000000 l    df *ABS*	00000000 wsetup.c
00000000 l    df *ABS*	00000000 dtoa.c
00006ccc l     F .text	0000013a quorem
00000000 l    df *ABS*	00000000 fflush.c
00000000 l    df *ABS*	00000000 findfp.c
00007bb4 l     F .text	00000066 std
00000000 l    df *ABS*	00000000 fwalk.c
00000000 l    df *ABS*	00000000 gdtoa-gethex.c
00007de2 l     F .text	00000076 rshift
00000000 l    df *ABS*	00000000 gdtoa-hexnan.c
00008364 l     F .text	0000002c L_shift
00000000 l    df *ABS*	00000000 localeconv.c
00000000 l    df *ABS*	00000000 makebuf.c
00000000 l    df *ABS*	00000000 memchr.c
00000000 l    df *ABS*	00000000 mlock.c
00000000 l    df *ABS*	00000000 mprec.c
0000ef40 l     O .text	0000000c p05.3319
00000000 l    df *ABS*	00000000 nano-mallocr.c
00000000 l    df *ABS*	00000000 nano-vfprintf.c
00008ff4 l     F .text	00000028 __sfputc_r
00000000 l    df *ABS*	00000000 sf_nan.c
00000000 l    df *ABS*	00000000 stdio.c
00000000 l    df *ABS*	00000000 strncmp.c
00000000 l    df *ABS*	00000000 writer.c
00000000 l    df *ABS*	00000000 closer.c
00000000 l    df *ABS*	00000000 fstatr.c
00000000 l    df *ABS*	00000000 isattyr.c
00000000 l    df *ABS*	00000000 lseekr.c
00000000 l    df *ABS*	00000000 readr.c
00000000 l    df *ABS*	00000000 adddf3.c
00000000 l    df *ABS*	00000000 divdf3.c
00000000 l    df *ABS*	00000000 eqdf2.c
00000000 l    df *ABS*	00000000 gedf2.c
00000000 l    df *ABS*	00000000 ledf2.c
00000000 l    df *ABS*	00000000 muldf3.c
00000000 l    df *ABS*	00000000 subdf3.c
00000000 l    df *ABS*	00000000 unorddf2.c
00000000 l    df *ABS*	00000000 fixdfsi.c
00000000 l    df *ABS*	00000000 fixunsdfsi.c
00000000 l    df *ABS*	00000000 floatsidf.c
00000000 l    df *ABS*	00000000 floatunsidf.c
00000000 l    df *ABS*	00000000 lesf2.c
00000000 l    df *ABS*	00000000 unordsf2.c
00000000 l    df *ABS*	00000000 truncdfsf2.c
00000000 l    df *ABS*	00000000 trunctfdf2.c
00000000 l    df *ABS*	00000000 libgcc2.c
00000000 l    df *ABS*	00000000 close.c
00000000 l    df *ABS*	00000000 fstat.c
00000000 l    df *ABS*	00000000 isatty.c
00000000 l    df *ABS*	00000000 lseek.c
00000000 l    df *ABS*	00000000 read.c
00000000 l    df *ABS*	00000000 sbrk.c
200002a4 l     O .bss	00000004 heap_end.1518
00000000 l    df *ABS*	00000000 ctype_.c
00000000 l    df *ABS*	00000000 libgcc2.c
00000000 l    df *ABS*	00000000 impure.c
20000010 l     O .data	00000060 impure_data
00000000 l    df *ABS*	00000000 HX77.c
00000000 l    df *ABS*	00000000 reent.c
000051c6 g     F .text	000000ea __cvt
00002cca  w      .text	00000000 EXTI2_IRQHandler
00002d14  w      .text	00000000 TIM8_TRG_COM_IRQHandler
00002d16  w      .text	00000000 TIM8_CC_IRQHandler
00008f86 g     F .text	00000046 __any_on
00009464 g     F .text	00000032 _isatty_r
00004b12 g     F .text	00000148 LCD_ShowChar
00005bea g     F .text	000000de _puts_r
00009496 g     F .text	00000036 _lseek_r
00002d4c  w      .text	00000000 UART8_IRQHandler
0000a1e6 g     F .text	0000006a .hidden __eqdf2
200001f0 g     O .data	00000002 BACK_COLOR
000013f8 g     F .text	00000042 vPortExitCritical
00005ba8 g     F .text	00000042 printf
200009e0 g       .data	00000000 __global_pointer$
000004ee g     F .text	00000028 .hidden __riscv_save_8
00002cf0  w      .text	00000000 TIM1_CC_IRQHandler
0000936a g     F .text	00000030 __sseek
00007c6c g     F .text	0000006c __sinit
00006aea g     F .text	000000c2 __swbuf_r
00000ba4 g     F .text	00000002 HardFault_Handler
00001a02 g     F .text	0000005c vQueueWaitForMessageRestricted
00007c24 g     F .text	00000048 __sfmoreglue
00008640 g     F .text	00000002 __malloc_unlock
0000053a g     F .text	0000000c .hidden __riscv_restore_3
00002d26  w      .text	00000000 TIM6_IRQHandler
000013aa g     F .text	00000038 SysTick_Handler
00007e58 g     F .text	00000040 __hexdig_fun
00002fa6 g     F .text	000000aa NVIC_Init
000005ee g     F .text	00000030 L610_Init
00002cbc  w      .text	00000000 PVD_IRQHandler
00002d1c  w      .text	00000000 SDIO_IRQHandler
00002d4e  w      .text	00000000 TIM9_BRK_IRQHandler
00000526 g     F .text	00000020 .hidden __riscv_restore_10
00004f26 g     F .text	00000018 __locale_ctype_ptr
00001716 g     F .text	00000122 xQueueGenericSendFromISR
00002d62  w      .text	00000000 DMA2_Channel8_IRQHandler
00000ba0 g     F .text	00000004 NMI_Handler
00008642 g     F .text	0000008c _Balloc
00002d3c  w      .text	00000000 CAN2_RX1_IRQHandler
00002ccc  w      .text	00000000 EXTI3_IRQHandler
20000208 g     O .bss	00000004 StartTask_Handler
000004ee g     F .text	00000028 .hidden __riscv_save_11
0000bc14 g     O .text	00000474 asc2_1206
0000a250 g     F .text	000000ae .hidden __gtdf2
0000851c g     F .text	00000006 __localeconv_l
20000238 g     O .bss	00000004 pxCurrentTCB
00002d44  w      .text	00000000 USBHS_IRQHandler
00003548 g     F .text	00000036 LCD_Clear
00003338 g     F .text	0000000a USART_GetFlagStatus
00002d64  w      .text	00000000 DMA2_Channel9_IRQHandler
00009430 g     F .text	00000034 _fstat_r
00002d5c  w      .text	00000000 TIM10_CC_IRQHandler
200034d0 g     O .bss	00000004 errno
20000200 g       .bss	00000000 _sbss
00000800 g       *ABS*	00000000 __stack_size
20000298 g     O .bss	00000002 POINT_COLOR
000024d4 g     F .text	00000016 vTaskInternalSetTimeOutState
000007e0 g     F .text	0000014e L610_SetAndConnect
0000053a g     F .text	0000000c .hidden __riscv_restore_2
00003458 g     F .text	000000ac LCD_Scan_Dir
00002eb6 g     F .text	0000001e FSMC_NORSRAMCmd
0000131c g     F .text	0000008e xPortStartScheduler
00004f7a g     F .text	000000b2 memcpy
0000232a g     F .text	00000048 vTaskPlaceOnEventList
000083be g     F .text	0000015e __hexnan
00007c1a g     F .text	0000000a _cleanup_r
0000b0aa g     F .text	00000070 .hidden __floatsidf
0000131a  w    F .text	00000002 vPortSetupTimerInterrupt
0000a2fe g     F .text	000000b6 .hidden __ltdf2
000033fe g     F .text	00000012 LCD_WriteRAM_Prepare
00002cc6  w      .text	00000000 EXTI0_IRQHandler
00002cfc  w      .text	00000000 I2C2_EV_IRQHandler
00002d5a  w      .text	00000000 TIM10_TRG_COM_IRQHandler
00005cc8 g     F .text	0000000c puts
00001274 g     F .text	000000a6 vPortFree
200001e0 g     O .data	00000004 SystemCoreClock
20010000 g       .stack	00000000 __freertos_irq_stack_top
00008edc g     F .text	00000074 __ratio
00003330 g     F .text	00000008 USART_ReceiveData
00004d24 g     F .text	00000082 LCD_DrawLine
00004f3e g     F .text	0000000a malloc
0000b64e g     F .text	00000010 _fstat
0000ee78 g     O .text	000000c8 __mprec_tens
00000038 g       .init	00000000 _einit
0000b180 g     F .text	0000008c .hidden __lesf2
000031e4 g     F .text	0000001e RCC_APB2PeriphClockCmd
0000b04e g     F .text	0000005c .hidden __fixunsdfsi
000004e6 g     F .text	00000030 .hidden __riscv_save_12
00001466 g     F .text	00000018 vListInsertEnd
00002d3e  w      .text	00000000 CAN2_SCE_IRQHandler
00002cde  w      .text	00000000 ADC1_2_IRQHandler
00000ba8 g     F .text	0000008a start_task
00002ed4 g     F .text	000000c0 GPIO_Init
00000c32 g     F .text	00000046 vSerialTask
00002cb4  w      .text	00000000 Break_Point_Handler
00008522 g     F .text	00000018 _localeconv_r
000088fe g     F .text	0000001c __i2b
00000526 g     F .text	00000020 .hidden __riscv_restore_11
20000294 g     O .bss	00000004 NVIC_Priority_Group
00002d00  w      .text	00000000 SPI1_IRQHandler
000032dc g     F .text	00000016 USART_Cmd
00005cd4 g     F .text	00000032 _sbrk_r
00002cbe  w      .text	00000000 TAMPER_IRQHandler
00000516 g     F .text	0000000c .hidden __riscv_save_1
0000c678 g     O .text	00000d5c asc2_2412
0000053a g     F .text	0000000c .hidden __riscv_restore_0
000094cc g     F .text	00000036 _read_r
00001460 g     F .text	00000006 vListInitialiseItem
000004fc g     F .text	0000001a .hidden __riscv_save_7
0000337e g     F .text	00000014 USART_ClearITPendingBit
00002d3a  w      .text	00000000 CAN2_RX0_IRQHandler
00001838 g     F .text	0000015e xQueueReceive
200032a8 g     O .bss	00000040 xQueueRegistry
2000028a g     O .bss	00000001 recv_ok
00001446 g     F .text	00000006 vPortClearInterruptMask
00002d12  w      .text	00000000 TIM8_UP_IRQHandler
00003202 g     F .text	0000001e RCC_APB1PeriphClockCmd
00009502 g     F .text	00000730 .hidden __adddf3
00002cb0  w      .text	00000000 Ecall_M_Mode_Handler
00008d54 g     F .text	000000b4 __b2d
0000b65e g     F .text	00000010 _isatty
200001fc g     O .data	00000004 _global_impure_ptr
00000530 g     F .text	00000016 .hidden __riscv_restore_5
00002d2c  w      .text	00000000 DMA2_Channel2_IRQHandler
000031c6 g     F .text	0000001e RCC_AHBPeriphClockCmd
00002cd6  w      .text	00000000 DMA1_Channel4_IRQHandler
0000ee50 g     O .text	00000028 __mprec_bigtens
000087aa g     F .text	000000a4 __s2b
0000b11a g     F .text	00000066 .hidden __floatunsidf
0000b68e g     F .text	00000030 _sbrk
00008bea g     F .text	00000032 __mcmp
000010e8 g     F .text	0000018c pvPortMalloc
00000cae g     F .text	00000048 freertos_demo
0000144c g     F .text	00000014 vListInitialise
200034a0 g     O .bss	00000020 uart_buf
00002d50  w      .text	00000000 TIM9_UP_IRQHandler
00000530 g     F .text	00000016 .hidden __riscv_restore_6
00002d08  w      .text	00000000 USART3_IRQHandler
00001f0e g     F .text	0000000a xTaskGetTickCount
00002cc0  w      .text	00000000 RTC_IRQHandler
00005d9a g     F .text	00000c6c _strtod_l
00008390 g     F .text	0000002e __match
00003392 g     F .text	0000003e LCD_Reset_GPIO_Init
200034d4 g       .bss	00000000 _ebss
00003342 g     F .text	0000003c USART_GetITStatus
00002cdc  w      .text	00000000 DMA1_Channel7_IRQHandler
0000884e g     F .text	00000046 __hi0bits
00002ce4  w      .text	00000000 CAN1_RX1_IRQHandler
20000214 g     O .bss	00000004 vSerialTask_Handler
0000afe6 g     F .text	00000068 .hidden __fixdfsi
000025da g     F .text	000000ca xTaskPriorityDisinherit
00002d46  w      .text	00000000 DVP_IRQHandler
00002d24  w      .text	00000000 UART5_IRQHandler
000023e8 g     F .text	000000ec xTaskRemoveFromEventList
00002f94 g     F .text	00000004 GPIO_SetBits
00002cf6  w      .text	00000000 TIM4_IRQHandler
0000a2fe g     F .text	000000b6 .hidden __ledf2
000029dc g     F .text	000000fe USARTx_Init
000004ee g     F .text	00000028 .hidden __riscv_save_9
00002d2a  w      .text	00000000 DMA2_Channel1_IRQHandler
00008a5e g     F .text	000000be __pow5mult
0000edf0 g     O .text	00000020 __sf_fake_stderr
000004fc g     F .text	0000001a .hidden __riscv_save_4
200034d4 g       .bss	00000000 end
00002cf8  w      .text	00000000 I2C1_EV_IRQHandler
200001f8 g     O .data	00000004 xISRStackTop
00001d9a g     F .text	000000d2 vTaskDelete
20000288 g     O .bss	00000002 received_data
00003050 g     F .text	00000176 RCC_GetClocksFreq
20000204 g     O .bss	00000004 strx
00002cda  w      .text	00000000 DMA1_Channel6_IRQHandler
0000b5d0 g     F .text	0000006e .hidden __clzsi2
0000901c g     F .text	00000042 __sfputs_r
00002d22  w      .text	00000000 UART4_IRQHandler
00003504 g     F .text	00000044 LCD_Display_Dir
00002d30  w      .text	00000000 DMA2_Channel4_IRQHandler
00008626 g     F .text	00000018 memchr
00005334  w    F .text	000004c4 _printf_float
00000ba6 g     F .text	00000002 task1
00003220 g     F .text	000000bc USART_Init
000024ea g     F .text	000000c8 xTaskCheckForTimeOut
0000502c g     F .text	000000b0 _free_r
00002cf4  w      .text	00000000 TIM3_IRQHandler
00002cc4  w      .text	00000000 RCC_IRQHandler
00000516 g     F .text	0000000c .hidden __riscv_save_3
00003410 g     F .text	00000048 LCD_SetCursor
00002cee  w      .text	00000000 TIM1_TRG_COM_IRQHandler
00002cd0  w      .text	00000000 DMA1_Channel1_IRQHandler
00000000 g       .init	00000000 _start
00002d60  w      .text	00000000 DMA2_Channel7_IRQHandler
00002c0c g     F .text	00000046 delay_init
00001efe g     F .text	00000010 vTaskSuspendAll
00005d18 g     F .text	00000034 strstr
0000b66e g     F .text	00000010 _lseek
00008b1c g     F .text	000000ce __lshift
000014ac g     F .text	00000020 uxListRemove
00002d0a  w      .text	00000000 EXTI15_10_IRQHandler
000093a0 g     F .text	00000028 strncmp
000032f2 g     F .text	00000036 USART_ITConfig
2000020c g     O .bss	00000004 Task1Task_Handler
0000891a g     F .text	00000144 __multiply
00008e08 g     F .text	000000d4 __d2b
00002290 g     F .text	0000009a vTaskSwitchContext
00002372 g     F .text	00000076 vTaskPlaceOnEventListRestricted
00002f98 g     F .text	00000004 GPIO_ResetBits
00000c78 g     F .text	00000036 vLookupTask
00002d28  w      .text	00000000 TIM7_IRQHandler
2000028c g     O .bss	00000004 xQueue
000093fe g     F .text	00000032 _close_r
00002d38  w      .text	00000000 CAN2_TX_IRQHandler
20000000 g       .dalign	00000000 _data_vma
00002d1e  w      .text	00000000 TIM5_IRQHandler
00002dfc g     F .text	000000ba FSMC_NORSRAMInit
00006bca g     F .text	00000102 __swsetup_r
00002ce8  w      .text	00000000 EXTI9_5_IRQHandler
00009c32 g     F .text	000005b4 .hidden __divdf3
00007cd8 g     F .text	000000a0 __sfp
00008f50 g     F .text	00000036 __copybits
00000738 g     F .text	000000a8 L610_RequestIP
0000a3b4 g     F .text	000004b8 .hidden __muldf3
000004ee g     F .text	00000028 .hidden __riscv_save_10
000092f6 g     F .text	0000002c __sread
00002c52 g     F .text	00000040 delay_us
00002d36  w      .text	00000000 ETH_WKUP_IRQHandler
0000863e g     F .text	00000002 __malloc_lock
00000530 g     F .text	00000016 .hidden __riscv_restore_4
00000526 g     F .text	00000020 .hidden __riscv_restore_8
00007b4e g     F .text	00000066 _fflush_r
000004fc g     F .text	0000001a .hidden __riscv_save_6
00008fcc g     F .text	00000028 _calloc_r
00002d02  w      .text	00000000 SPI2_IRQHandler
0000ee10 g     O .text	00000020 __sf_fake_stdin
0000357e g     F .text	00001530 LCD_Init
00000546 g     F .text	000000a8 memset
00000526 g     F .text	00000020 .hidden __riscv_restore_9
00000530 g     F .text	00000016 .hidden __riscv_restore_7
00000cf6 g     F .text	00000046 main
00002c92 g     F .text	0000001a delay_ms
0000c088 g     O .text	000005f0 asc2_1608
00002d56  w      .text	00000000 TIM10_BRK_IRQHandler
00004cc4 g     F .text	00000060 LCD_Color_Fill
0000b180 g     F .text	0000008c .hidden __ltsf2
00002d54  w      .text	00000000 TIM9_CC_IRQHandler
0000147e g     F .text	0000002e vListInsert
0000939a g     F .text	00000006 __sclose
00002d32  w      .text	00000000 DMA2_Channel5_IRQHandler
0000297c g     F .text	00000060 xTimerCreateTimerTask
0000b248 g     F .text	0000016a .hidden __truncdfsf2
00006e06 g     F .text	00000c16 _dtoa_r
000050dc g     F .text	000000ea _malloc_r
00006bac g     F .text	0000001e __ascii_wctomb
00004aae g     F .text	00000064 LCD_Fast_DrawPoint
00002cd8  w      .text	00000000 DMA1_Channel5_IRQHandler
00002cce  w      .text	00000000 EXTI4_IRQHandler
000016aa g     F .text	0000006c xQueueGenericCreate
00002ce2  w      .text	00000000 USB_LP_CAN1_RX0_IRQHandler
000009e8 g     F .text	000001b8 L610_Recive
200002a8 g     O .bss	00000800 USART_Rbuffer
20000210 g     O .bss	00000004 vLookupTask_Handler
00000fa4 g     F .text	000000f8 SystemInit
00002d18  w      .text	00000000 RNG_IRQHandler
0000a1e6 g     F .text	0000006a .hidden __nedf2
00005ba8 g     F .text	00000042 iprintf
000020c4 g     F .text	00000168 xTaskResumeAll
200001e8 g     O .data	00000004 uxTopUsedPriority
00002ce0  w      .text	00000000 USB_HP_CAN1_TX_IRQHandler
0000efe4 g     O .text	00000100 .hidden __clz_tab
0000143a g     F .text	0000000c xPortSetInterruptMask
00001e6c g     F .text	00000092 vTaskStartScheduler
000052b0 g     F .text	00000084 __exponent
00000000 g       .init	00000000 _sinit
00000d3c g     F .text	00000268 renderMainPage
200034c0 g     O .bss	0000000e lcddev
00006a06 g     F .text	000000e4 strtof
000093c8 g     F .text	00000036 _write_r
00000300 g       .text	00000000 xPortStartFirstTask
00002cd4  w      .text	00000000 DMA1_Channel3_IRQHandler
00002d1a  w      .text	00000000 FSMC_IRQHandler
00002d34  w      .text	00000000 ETH_IRQHandler
000092ea g     F .text	0000000c nanf
000057f8 g     F .text	0000010c _printf_common
200001f4 g     O .data	00000004 _impure_ptr
00002cec  w      .text	00000000 TIM1_UP_IRQHandler
00007a1c g     F .text	00000132 __sflush_r
00004de0 g     F .text	000000f0 LCD_Draw_Circle
00002cba  w      .text	00000000 WWDG_IRQHandler
20000200 g     O .bss	00000001 numx
00002d42  w      .text	00000000 USBHSWakeup_IRQHandler
00002d68  w      .text	00000000 DMA2_Channel11_IRQHandler
00004f48 g     F .text	00000032 __ascii_mbtowc
00002cb2  w      .text	00000000 Ecall_U_Mode_Handler
00008d0e g     F .text	00000046 __ulp
000025b2 g     F .text	0000000c vTaskMissedYield
00002d5e  w      .text	00000000 DMA2_Channel6_IRQHandler
00002cf2  w      .text	00000000 TIM2_IRQHandler
20010000 g       .stack	00000000 _eusrstack
00000516 g     F .text	0000000c .hidden __riscv_save_2
00000200 g       .text	00000000 SW_Handler
00001996 g     F .text	0000006c vQueueAddToRegistry
00001f18 g     F .text	000001ac xTaskIncrementTick
00002cea  w      .text	00000000 TIM1_BRK_IRQHandler
0000853a g     F .text	00000058 __swhatbuf_r
00003328 g     F .text	00000008 USART_SendData
00002d66  w      .text	00000000 DMA2_Channel10_IRQHandler
0000061e g     F .text	0000011a L610_Lookup
00002cc8  w      .text	00000000 EXTI1_IRQHandler
000009d2 g     F .text	00000016 L610_Pub
000004fc g     F .text	0000001a .hidden __riscv_save_5
20000202 g     O .bss	00000002 USART_Rbuffer_Num
000015ee g     F .text	000000bc xQueueGenericReset
00002ada g     F .text	0000003e _write
20000200 g       .data	00000000 _edata
0000b20c g     F .text	0000003c .hidden __unordsf2
0000092e g     F .text	000000a4 L610_Sub
0000d3d4 g     O .text	000017c0 asc2_3216
00002d0c  w      .text	00000000 RTCAlarm_IRQHandler
00001b96 g     F .text	00000204 xTaskCreate
0000f0e4 g       .dlalign	00000000 _data_lma
00002d58  w      .text	00000000 TIM10_UP_IRQHandler
00002d52  w      .text	00000000 TIM9_TRG_COM_IRQHandler
00002d4a  w      .text	00000000 UART7_IRQHandler
00002bba g     F .text	00000052 USART2_IRQHandler
00002d48  w      .text	00000000 UART6_IRQHandler
00009322 g     F .text	00000048 __swrite
0000905e g     F .text	0000028c _vfiprintf_r
00007d78 g     F .text	0000006a _fwalk_reent
00008c1c g     F .text	000000f2 __mdiff
00002cfe  w      .text	00000000 I2C2_ER_IRQHandler
0000222c g     F .text	00000064 vTaskDelay
00002cd2  w      .text	00000000 DMA1_Channel2_IRQHandler
0000ee30 g     O .text	00000020 __sf_fake_stdout
00000522 g     F .text	00000024 .hidden __riscv_restore_12
00002d10  w      .text	00000000 TIM8_BRK_IRQHandler
000025be g     F .text	0000001c xTaskGetSchedulerState
0000eca0 g     O .text	00000101 _ctype_
0000b67e g     F .text	00000010 _read
0000afaa g     F .text	0000003c .hidden __unorddf2
00002d6a  w      .text	00000000 handle_reset
00002ce6  w      .text	00000000 CAN1_SCE_IRQHandler
00004ed0 g     F .text	00000056 .hidden __fixunssfsi
00002cc2  w      .text	00000000 FLASH_IRQHandler
00000516 g     F .text	0000000c .hidden __riscv_save_0
00004c5a g     F .text	0000006a LCD_ShowString
2000028b g     O .bss	00000001 uart_cnt
00002b18 g     F .text	000000a2 USART1_IRQHandler
00008592 g     F .text	00000094 __smakebuf_r
00005d06 g     F .text	00000012 strlen
00002d40  w      .text	00000000 OTG_FS_IRQHandler
00000400 g       .text	00000000 pxPortInitialiseStack
00005904 g     F .text	000002a4 _printf_i
00002d20  w      .text	00000000 SPI3_IRQHandler
0000a250 g     F .text	000000ae .hidden __gedf2
00007e98 g     F .text	000004cc __gethex
200002a0 g     O .bss	00000004 __malloc_sbrk_start
00002cfa  w      .text	00000000 I2C1_ER_IRQHandler
00002f9c g     F .text	0000000a NVIC_PriorityGroupConfig
000013e2 g     F .text	00000016 vPortEnterCritical
2000029c g     O .bss	00000004 __malloc_free_list
0000053a g     F .text	0000000c .hidden __riscv_restore_1
0000a86c g     F .text	0000073e .hidden __subdf3
0000905e g     F .text	0000028c _vfprintf_r
00008894 g     F .text	0000006a __lo0bits
000033d0 g     F .text	00000016 LCD_RD_DATA
000033e6 g     F .text	00000018 LCD_ReadReg
20000070 g     O .data	0000016c __global_locale
00002d0e  w      .text	00000000 USBWakeUp_IRQHandler
0000b3b2 g     F .text	0000021e .hidden __trunctfdf2
0000b63e g     F .text	00000010 _close
00004da6 g     F .text	0000003a LCD_DrawRectangle
00002d2e  w      .text	00000000 DMA2_Channel3_IRQHandler
00008712 g     F .text	00000098 __multadd
000086ce g     F .text	00000044 _Bfree



Disassembly of section .init:

00000000 <_sinit>:
   0:	56b0206f          	j	2d6a <handle_reset>
   4:	00000013          	nop
   8:	00000013          	nop
   c:	00000013          	nop
  10:	00000013          	nop
  14:	00000013          	nop
  18:	00000013          	nop
  1c:	00000013          	nop
  20:	00000013          	nop
  24:	00000013          	nop
  28:	00000013          	nop
  2c:	00000013          	nop
  30:	00000013          	nop
  34:	00100073          	ebreak

Disassembly of section .vector:

00000038 <_vector_base>:
	...
  40:	0ba0                	addi	s0,sp,472
  42:	0000                	unimp
  44:	0ba4                	addi	s1,sp,472
  46:	0000                	unimp
  48:	0000                	unimp
  4a:	0000                	unimp
  4c:	2cb0                	lbu	a2,26(s1)
	...
  56:	0000                	unimp
  58:	2cb2                	lhu	a2,26(s1)
  5a:	0000                	unimp
  5c:	2cb4                	lbu	a3,26(s1)
	...
  66:	0000                	unimp
  68:	13aa                	slli	t2,t2,0x2a
  6a:	0000                	unimp
  6c:	0000                	unimp
  6e:	0000                	unimp
  70:	0200                	addi	s0,sp,256
  72:	0000                	unimp
  74:	0000                	unimp
  76:	0000                	unimp
  78:	2cba                	lhu	a4,26(s1)
  7a:	0000                	unimp
  7c:	2cbc                	lbu	a5,26(s1)
  7e:	0000                	unimp
  80:	2cbe                	lhu	a5,26(s1)
  82:	0000                	unimp
  84:	2cc0                	lbu	s0,28(s1)
  86:	0000                	unimp
  88:	2cc2                	lhu	s0,28(s1)
  8a:	0000                	unimp
  8c:	2cc4                	lbu	s1,28(s1)
  8e:	0000                	unimp
  90:	2cc6                	lhu	s1,28(s1)
  92:	0000                	unimp
  94:	2cc8                	lbu	a0,28(s1)
  96:	0000                	unimp
  98:	2cca                	lhu	a0,28(s1)
  9a:	0000                	unimp
  9c:	2ccc                	lbu	a1,28(s1)
  9e:	0000                	unimp
  a0:	2cce                	lhu	a1,28(s1)
  a2:	0000                	unimp
  a4:	2cd0                	lbu	a2,28(s1)
  a6:	0000                	unimp
  a8:	2cd2                	lhu	a2,28(s1)
  aa:	0000                	unimp
  ac:	2cd4                	lbu	a3,28(s1)
  ae:	0000                	unimp
  b0:	2cd6                	lhu	a3,28(s1)
  b2:	0000                	unimp
  b4:	2cd8                	lbu	a4,28(s1)
  b6:	0000                	unimp
  b8:	2cda                	lhu	a4,28(s1)
  ba:	0000                	unimp
  bc:	2cdc                	lbu	a5,28(s1)
  be:	0000                	unimp
  c0:	2cde                	lhu	a5,28(s1)
  c2:	0000                	unimp
  c4:	2ce0                	lbu	s0,30(s1)
  c6:	0000                	unimp
  c8:	2ce2                	lhu	s0,30(s1)
  ca:	0000                	unimp
  cc:	2ce4                	lbu	s1,30(s1)
  ce:	0000                	unimp
  d0:	2ce6                	lhu	s1,30(s1)
  d2:	0000                	unimp
  d4:	2ce8                	lbu	a0,30(s1)
  d6:	0000                	unimp
  d8:	2cea                	lhu	a0,30(s1)
  da:	0000                	unimp
  dc:	2cec                	lbu	a1,30(s1)
  de:	0000                	unimp
  e0:	2cee                	lhu	a1,30(s1)
  e2:	0000                	unimp
  e4:	2cf0                	lbu	a2,30(s1)
  e6:	0000                	unimp
  e8:	2cf2                	lhu	a2,30(s1)
  ea:	0000                	unimp
  ec:	2cf4                	lbu	a3,30(s1)
  ee:	0000                	unimp
  f0:	2cf6                	lhu	a3,30(s1)
  f2:	0000                	unimp
  f4:	2cf8                	lbu	a4,30(s1)
  f6:	0000                	unimp
  f8:	2cfa                	lhu	a4,30(s1)
  fa:	0000                	unimp
  fc:	2cfc                	lbu	a5,30(s1)
  fe:	0000                	unimp
 100:	2cfe                	lhu	a5,30(s1)
 102:	0000                	unimp
 104:	2d00                	lbu	s0,24(a0)
 106:	0000                	unimp
 108:	2d02                	lhu	s0,24(a0)
 10a:	0000                	unimp
 10c:	2b18                	lbu	a4,16(a4)
 10e:	0000                	unimp
 110:	2bba                	lhu	a4,18(a5)
 112:	0000                	unimp
 114:	2d08                	lbu	a0,24(a0)
 116:	0000                	unimp
 118:	2d0a                	lhu	a0,24(a0)
 11a:	0000                	unimp
 11c:	2d0c                	lbu	a1,24(a0)
 11e:	0000                	unimp
 120:	2d0e                	lhu	a1,24(a0)
 122:	0000                	unimp
 124:	2d10                	lbu	a2,24(a0)
 126:	0000                	unimp
 128:	2d12                	lhu	a2,24(a0)
 12a:	0000                	unimp
 12c:	2d14                	lbu	a3,24(a0)
 12e:	0000                	unimp
 130:	2d16                	lhu	a3,24(a0)
 132:	0000                	unimp
 134:	2d18                	lbu	a4,24(a0)
 136:	0000                	unimp
 138:	2d1a                	lhu	a4,24(a0)
 13a:	0000                	unimp
 13c:	2d1c                	lbu	a5,24(a0)
 13e:	0000                	unimp
 140:	2d1e                	lhu	a5,24(a0)
 142:	0000                	unimp
 144:	2d20                	lbu	s0,26(a0)
 146:	0000                	unimp
 148:	2d22                	lhu	s0,26(a0)
 14a:	0000                	unimp
 14c:	2d24                	lbu	s1,26(a0)
 14e:	0000                	unimp
 150:	2d26                	lhu	s1,26(a0)
 152:	0000                	unimp
 154:	2d28                	lbu	a0,26(a0)
 156:	0000                	unimp
 158:	2d2a                	lhu	a0,26(a0)
 15a:	0000                	unimp
 15c:	2d2c                	lbu	a1,26(a0)
 15e:	0000                	unimp
 160:	2d2e                	lhu	a1,26(a0)
 162:	0000                	unimp
 164:	2d30                	lbu	a2,26(a0)
 166:	0000                	unimp
 168:	2d32                	lhu	a2,26(a0)
 16a:	0000                	unimp
 16c:	2d34                	lbu	a3,26(a0)
 16e:	0000                	unimp
 170:	2d36                	lhu	a3,26(a0)
 172:	0000                	unimp
 174:	2d38                	lbu	a4,26(a0)
 176:	0000                	unimp
 178:	2d3a                	lhu	a4,26(a0)
 17a:	0000                	unimp
 17c:	2d3c                	lbu	a5,26(a0)
 17e:	0000                	unimp
 180:	2d3e                	lhu	a5,26(a0)
 182:	0000                	unimp
 184:	2d40                	lbu	s0,28(a0)
 186:	0000                	unimp
 188:	2d42                	lhu	s0,28(a0)
 18a:	0000                	unimp
 18c:	2d44                	lbu	s1,28(a0)
 18e:	0000                	unimp
 190:	2d46                	lhu	s1,28(a0)
 192:	0000                	unimp
 194:	2d48                	lbu	a0,28(a0)
 196:	0000                	unimp
 198:	2d4a                	lhu	a0,28(a0)
 19a:	0000                	unimp
 19c:	2d4c                	lbu	a1,28(a0)
 19e:	0000                	unimp
 1a0:	2d4e                	lhu	a1,28(a0)
 1a2:	0000                	unimp
 1a4:	2d50                	lbu	a2,28(a0)
 1a6:	0000                	unimp
 1a8:	2d52                	lhu	a2,28(a0)
 1aa:	0000                	unimp
 1ac:	2d54                	lbu	a3,28(a0)
 1ae:	0000                	unimp
 1b0:	2d56                	lhu	a3,28(a0)
 1b2:	0000                	unimp
 1b4:	2d58                	lbu	a4,28(a0)
 1b6:	0000                	unimp
 1b8:	2d5a                	lhu	a4,28(a0)
 1ba:	0000                	unimp
 1bc:	2d5c                	lbu	a5,28(a0)
 1be:	0000                	unimp
 1c0:	2d5e                	lhu	a5,28(a0)
 1c2:	0000                	unimp
 1c4:	2d60                	lbu	s0,30(a0)
 1c6:	0000                	unimp
 1c8:	2d62                	lhu	s0,30(a0)
 1ca:	0000                	unimp
 1cc:	2d64                	lbu	s1,30(a0)
 1ce:	0000                	unimp
 1d0:	2d66                	lhu	s1,30(a0)
 1d2:	0000                	unimp
 1d4:	2d68                	lbu	a0,30(a0)
	...

Disassembly of section .text:

00000200 <SW_Handler>:
     200:	f8810113          	addi	sp,sp,-120
     204:	c206                	sw	ra,4(sp)
     206:	c416                	sw	t0,8(sp)
     208:	c61a                	sw	t1,12(sp)
     20a:	c81e                	sw	t2,16(sp)
     20c:	ca22                	sw	s0,20(sp)
     20e:	cc26                	sw	s1,24(sp)
     210:	ce2a                	sw	a0,28(sp)
     212:	d02e                	sw	a1,32(sp)
     214:	d232                	sw	a2,36(sp)
     216:	d436                	sw	a3,40(sp)
     218:	d63a                	sw	a4,44(sp)
     21a:	d83e                	sw	a5,48(sp)
     21c:	da42                	sw	a6,52(sp)
     21e:	dc46                	sw	a7,56(sp)
     220:	de4a                	sw	s2,60(sp)
     222:	c0ce                	sw	s3,64(sp)
     224:	c2d2                	sw	s4,68(sp)
     226:	c4d6                	sw	s5,72(sp)
     228:	c6da                	sw	s6,76(sp)
     22a:	c8de                	sw	s7,80(sp)
     22c:	cae2                	sw	s8,84(sp)
     22e:	cce6                	sw	s9,88(sp)
     230:	ceea                	sw	s10,92(sp)
     232:	d0ee                	sw	s11,96(sp)
     234:	d2f2                	sw	t3,100(sp)
     236:	d4f6                	sw	t4,104(sp)
     238:	d6fa                	sw	t5,108(sp)
     23a:	d8fe                	sw	t6,112(sp)
     23c:	300022f3          	csrr	t0,mstatus
     240:	da96                	sw	t0,116(sp)
     242:	20000297          	auipc	t0,0x20000
     246:	ff62a283          	lw	t0,-10(t0) # 20000238 <pxCurrentTCB>
     24a:	0022a023          	sw	sp,0(t0)
     24e:	341025f3          	csrr	a1,mepc
     252:	c02e                	sw	a1,0(sp)
     254:	02000593          	li	a1,32
     258:	8045a073          	csrs	0x804,a1
     25c:	8181a103          	lw	sp,-2024(gp) # 200001f8 <xISRStackTop>
     260:	030020ef          	jal	ra,2290 <vTaskSwitchContext>

00000264 <processed_source>:
     264:	20000317          	auipc	t1,0x20000
     268:	fd432303          	lw	t1,-44(t1) # 20000238 <pxCurrentTCB>
     26c:	00032103          	lw	sp,0(t1)
     270:	4282                	lw	t0,0(sp)
     272:	34129073          	csrw	mepc,t0
     276:	52d6                	lw	t0,116(sp)
     278:	30029073          	csrw	mstatus,t0
     27c:	4092                	lw	ra,4(sp)
     27e:	42a2                	lw	t0,8(sp)
     280:	4332                	lw	t1,12(sp)
     282:	43c2                	lw	t2,16(sp)
     284:	4452                	lw	s0,20(sp)
     286:	44e2                	lw	s1,24(sp)
     288:	4572                	lw	a0,28(sp)
     28a:	5582                	lw	a1,32(sp)
     28c:	5612                	lw	a2,36(sp)
     28e:	56a2                	lw	a3,40(sp)
     290:	5732                	lw	a4,44(sp)
     292:	57c2                	lw	a5,48(sp)
     294:	5852                	lw	a6,52(sp)
     296:	58e2                	lw	a7,56(sp)
     298:	5972                	lw	s2,60(sp)
     29a:	4986                	lw	s3,64(sp)
     29c:	4a16                	lw	s4,68(sp)
     29e:	4aa6                	lw	s5,72(sp)
     2a0:	4b36                	lw	s6,76(sp)
     2a2:	4bc6                	lw	s7,80(sp)
     2a4:	4c56                	lw	s8,84(sp)
     2a6:	4ce6                	lw	s9,88(sp)
     2a8:	4d76                	lw	s10,92(sp)
     2aa:	5d86                	lw	s11,96(sp)
     2ac:	5e16                	lw	t3,100(sp)
     2ae:	5ea6                	lw	t4,104(sp)
     2b0:	5f36                	lw	t5,108(sp)
     2b2:	5fc6                	lw	t6,112(sp)
     2b4:	07810113          	addi	sp,sp,120
     2b8:	30200073          	mret
     2bc:	00000013          	nop
     2c0:	00000013          	nop
     2c4:	00000013          	nop
     2c8:	00000013          	nop
     2cc:	00000013          	nop
     2d0:	00000013          	nop
     2d4:	00000013          	nop
     2d8:	00000013          	nop
     2dc:	00000013          	nop
     2e0:	00000013          	nop
     2e4:	00000013          	nop
     2e8:	00000013          	nop
     2ec:	00000013          	nop
     2f0:	00000013          	nop
     2f4:	00000013          	nop
     2f8:	00000013          	nop
     2fc:	00000013          	nop

00000300 <xPortStartFirstTask>:
     300:	8181a283          	lw	t0,-2024(gp) # 200001f8 <xISRStackTop>
     304:	e0028293          	addi	t0,t0,-512
     308:	34029073          	csrw	mscratch,t0
     30c:	20000117          	auipc	sp,0x20000
     310:	f2c12103          	lw	sp,-212(sp) # 20000238 <pxCurrentTCB>
     314:	4102                	lw	sp,0(sp)
     316:	4082                	lw	ra,0(sp)
     318:	4332                	lw	t1,12(sp)
     31a:	43c2                	lw	t2,16(sp)
     31c:	4452                	lw	s0,20(sp)
     31e:	44e2                	lw	s1,24(sp)
     320:	4572                	lw	a0,28(sp)
     322:	5582                	lw	a1,32(sp)
     324:	5612                	lw	a2,36(sp)
     326:	56a2                	lw	a3,40(sp)
     328:	5732                	lw	a4,44(sp)
     32a:	57c2                	lw	a5,48(sp)
     32c:	5852                	lw	a6,52(sp)
     32e:	58e2                	lw	a7,56(sp)
     330:	5972                	lw	s2,60(sp)
     332:	4986                	lw	s3,64(sp)
     334:	4a16                	lw	s4,68(sp)
     336:	4aa6                	lw	s5,72(sp)
     338:	4b36                	lw	s6,76(sp)
     33a:	4bc6                	lw	s7,80(sp)
     33c:	4c56                	lw	s8,84(sp)
     33e:	4ce6                	lw	s9,88(sp)
     340:	4d76                	lw	s10,92(sp)
     342:	5d86                	lw	s11,96(sp)
     344:	5e16                	lw	t3,100(sp)
     346:	5ea6                	lw	t4,104(sp)
     348:	5f36                	lw	t5,108(sp)
     34a:	5fc6                	lw	t6,112(sp)
     34c:	52d6                	lw	t0,116(sp)
     34e:	02a1                	addi	t0,t0,8
     350:	30029073          	csrw	mstatus,t0
     354:	42a2                	lw	t0,8(sp)
     356:	07810113          	addi	sp,sp,120
     35a:	8082                	ret
     35c:	00000013          	nop
     360:	00000013          	nop
     364:	00000013          	nop
     368:	00000013          	nop
     36c:	00000013          	nop
     370:	00000013          	nop
     374:	00000013          	nop
     378:	00000013          	nop
     37c:	00000013          	nop
     380:	00000013          	nop
     384:	00000013          	nop
     388:	00000013          	nop
     38c:	00000013          	nop
     390:	00000013          	nop
     394:	00000013          	nop
     398:	00000013          	nop
     39c:	00000013          	nop
     3a0:	00000013          	nop
     3a4:	00000013          	nop
     3a8:	00000013          	nop
     3ac:	00000013          	nop
     3b0:	00000013          	nop
     3b4:	00000013          	nop
     3b8:	00000013          	nop
     3bc:	00000013          	nop
     3c0:	00000013          	nop
     3c4:	00000013          	nop
     3c8:	00000013          	nop
     3cc:	00000013          	nop
     3d0:	00000013          	nop
     3d4:	00000013          	nop
     3d8:	00000013          	nop
     3dc:	00000013          	nop
     3e0:	00000013          	nop
     3e4:	00000013          	nop
     3e8:	00000013          	nop
     3ec:	00000013          	nop
     3f0:	00000013          	nop
     3f4:	00000013          	nop
     3f8:	00000013          	nop
     3fc:	00000013          	nop

00000400 <pxPortInitialiseStack>:
     400:	300022f3          	csrr	t0,mstatus
     404:	ff72f293          	andi	t0,t0,-9
     408:	78800313          	li	t1,1928
     40c:	0312                	slli	t1,t1,0x4
     40e:	0062e2b3          	or	t0,t0,t1
     412:	1571                	addi	a0,a0,-4
     414:	00552023          	sw	t0,0(a0)
     418:	fa850513          	addi	a0,a0,-88
     41c:	c110                	sw	a2,0(a0)
     41e:	1521                	addi	a0,a0,-24
     420:	00052023          	sw	zero,0(a0)
     424:	00000293          	li	t0,0

00000428 <chip_specific_stack_frame>:
     428:	00028763          	beqz	t0,436 <chip_specific_stack_frame+0xe>
     42c:	1571                	addi	a0,a0,-4
     42e:	00052023          	sw	zero,0(a0)
     432:	12fd                	addi	t0,t0,-1
     434:	bfd5                	j	428 <chip_specific_stack_frame>
     436:	1571                	addi	a0,a0,-4
     438:	c10c                	sw	a1,0(a0)
     43a:	8082                	ret
	...

000004e6 <__riscv_save_12>:
     4e6:	7139                	addi	sp,sp,-64
     4e8:	4301                	li	t1,0
     4ea:	c66e                	sw	s11,12(sp)
     4ec:	a019                	j	4f2 <__riscv_save_10+0x4>

000004ee <__riscv_save_10>:
     4ee:	7139                	addi	sp,sp,-64
     4f0:	5341                	li	t1,-16
     4f2:	c86a                	sw	s10,16(sp)
     4f4:	ca66                	sw	s9,20(sp)
     4f6:	cc62                	sw	s8,24(sp)
     4f8:	ce5e                	sw	s7,28(sp)
     4fa:	a019                	j	500 <__riscv_save_4+0x4>

000004fc <__riscv_save_4>:
     4fc:	7139                	addi	sp,sp,-64
     4fe:	5301                	li	t1,-32
     500:	d05a                	sw	s6,32(sp)
     502:	d256                	sw	s5,36(sp)
     504:	d452                	sw	s4,40(sp)
     506:	d64e                	sw	s3,44(sp)
     508:	d84a                	sw	s2,48(sp)
     50a:	da26                	sw	s1,52(sp)
     50c:	dc22                	sw	s0,56(sp)
     50e:	de06                	sw	ra,60(sp)
     510:	40610133          	sub	sp,sp,t1
     514:	8282                	jr	t0

00000516 <__riscv_save_0>:
     516:	1141                	addi	sp,sp,-16
     518:	c04a                	sw	s2,0(sp)
     51a:	c226                	sw	s1,4(sp)
     51c:	c422                	sw	s0,8(sp)
     51e:	c606                	sw	ra,12(sp)
     520:	8282                	jr	t0

00000522 <__riscv_restore_12>:
     522:	4db2                	lw	s11,12(sp)
     524:	0141                	addi	sp,sp,16

00000526 <__riscv_restore_10>:
     526:	4d02                	lw	s10,0(sp)
     528:	4c92                	lw	s9,4(sp)
     52a:	4c22                	lw	s8,8(sp)
     52c:	4bb2                	lw	s7,12(sp)
     52e:	0141                	addi	sp,sp,16

00000530 <__riscv_restore_4>:
     530:	4b02                	lw	s6,0(sp)
     532:	4a92                	lw	s5,4(sp)
     534:	4a22                	lw	s4,8(sp)
     536:	49b2                	lw	s3,12(sp)
     538:	0141                	addi	sp,sp,16

0000053a <__riscv_restore_0>:
     53a:	4902                	lw	s2,0(sp)
     53c:	4492                	lw	s1,4(sp)
     53e:	4422                	lw	s0,8(sp)
     540:	40b2                	lw	ra,12(sp)
     542:	0141                	addi	sp,sp,16
     544:	8082                	ret

00000546 <memset>:
     546:	433d                	li	t1,15
     548:	872a                	mv	a4,a0
     54a:	02c37363          	bgeu	t1,a2,570 <memset+0x2a>
     54e:	00f77793          	andi	a5,a4,15
     552:	efbd                	bnez	a5,5d0 <memset+0x8a>
     554:	e5ad                	bnez	a1,5be <memset+0x78>
     556:	ff067693          	andi	a3,a2,-16
     55a:	8a3d                	andi	a2,a2,15
     55c:	96ba                	add	a3,a3,a4
     55e:	c30c                	sw	a1,0(a4)
     560:	c34c                	sw	a1,4(a4)
     562:	c70c                	sw	a1,8(a4)
     564:	c74c                	sw	a1,12(a4)
     566:	0741                	addi	a4,a4,16
     568:	fed76be3          	bltu	a4,a3,55e <memset+0x18>
     56c:	e211                	bnez	a2,570 <memset+0x2a>
     56e:	8082                	ret
     570:	40c306b3          	sub	a3,t1,a2
     574:	068a                	slli	a3,a3,0x2
     576:	00000297          	auipc	t0,0x0
     57a:	9696                	add	a3,a3,t0
     57c:	00a68067          	jr	10(a3)
     580:	00b70723          	sb	a1,14(a4)
     584:	00b706a3          	sb	a1,13(a4)
     588:	00b70623          	sb	a1,12(a4)
     58c:	00b705a3          	sb	a1,11(a4)
     590:	00b70523          	sb	a1,10(a4)
     594:	00b704a3          	sb	a1,9(a4)
     598:	00b70423          	sb	a1,8(a4)
     59c:	00b703a3          	sb	a1,7(a4)
     5a0:	00b70323          	sb	a1,6(a4)
     5a4:	00b702a3          	sb	a1,5(a4)
     5a8:	00b70223          	sb	a1,4(a4)
     5ac:	00b701a3          	sb	a1,3(a4)
     5b0:	00b70123          	sb	a1,2(a4)
     5b4:	00b700a3          	sb	a1,1(a4)
     5b8:	00b70023          	sb	a1,0(a4)
     5bc:	8082                	ret
     5be:	0ff5f593          	andi	a1,a1,255
     5c2:	00859693          	slli	a3,a1,0x8
     5c6:	8dd5                	or	a1,a1,a3
     5c8:	01059693          	slli	a3,a1,0x10
     5cc:	8dd5                	or	a1,a1,a3
     5ce:	b761                	j	556 <memset+0x10>
     5d0:	00279693          	slli	a3,a5,0x2
     5d4:	00000297          	auipc	t0,0x0
     5d8:	9696                	add	a3,a3,t0
     5da:	8286                	mv	t0,ra
     5dc:	fa8680e7          	jalr	-88(a3)
     5e0:	8096                	mv	ra,t0
     5e2:	17c1                	addi	a5,a5,-16
     5e4:	8f1d                	sub	a4,a4,a5
     5e6:	963e                	add	a2,a2,a5
     5e8:	f8c374e3          	bgeu	t1,a2,570 <memset+0x2a>
     5ec:	b7a5                	j	554 <memset+0xe>

000005ee <L610_Init>:
     5ee:	f29ff2ef          	jal	t0,516 <__riscv_save_0>
     5f2:	0000b537          	lui	a0,0xb
     5f6:	6c050513          	addi	a0,a0,1728 # b6c0 <_sbrk+0x32>
     5fa:	6ce050ef          	jal	ra,5cc8 <puts>
     5fe:	6505                	lui	a0,0x1
     600:	38850513          	addi	a0,a0,904 # 1388 <xPortStartScheduler+0x6c>
     604:	429010ef          	jal	ra,222c <vTaskDelay>
     608:	0000b537          	lui	a0,0xb
     60c:	6d450513          	addi	a0,a0,1748 # b6d4 <_sbrk+0x46>
     610:	6b8050ef          	jal	ra,5cc8 <puts>
     614:	3e800513          	li	a0,1000
     618:	415010ef          	jal	ra,222c <vTaskDelay>
     61c:	bf39                	j	53a <__riscv_restore_0>

0000061e <L610_Lookup>:
     61e:	edfff2ef          	jal	t0,4fc <__riscv_save_4>
     622:	0000b937          	lui	s2,0xb
     626:	6d890513          	addi	a0,s2,1752 # b6d8 <_sbrk+0x4a>
     62a:	69e050ef          	jal	ra,5cc8 <puts>
     62e:	3e800513          	li	a0,1000
     632:	3fb010ef          	jal	ra,222c <vTaskDelay>
     636:	0000b9b7          	lui	s3,0xb
     63a:	200004b7          	lui	s1,0x20000
     63e:	6e098593          	addi	a1,s3,1760 # b6e0 <_sbrk+0x52>
     642:	2a848513          	addi	a0,s1,680 # 200002a8 <USART_Rbuffer>
     646:	20000437          	lui	s0,0x20000
     64a:	6ce050ef          	jal	ra,5d18 <strstr>
     64e:	20a42223          	sw	a0,516(s0) # 20000204 <strx>
     652:	20000ab7          	lui	s5,0x20000
     656:	20440413          	addi	s0,s0,516
     65a:	0000bb37          	lui	s6,0xb
     65e:	401c                	lw	a5,0(s0)
     660:	202a8a13          	addi	s4,s5,514 # 20000202 <USART_Rbuffer_Num>
     664:	c7b5                	beqz	a5,6d0 <L610_Lookup+0xb2>
     666:	0000b537          	lui	a0,0xb
     66a:	6fc50513          	addi	a0,a0,1788 # b6fc <_sbrk+0x6e>
     66e:	65a050ef          	jal	ra,5cc8 <puts>
     672:	3e800513          	li	a0,1000
     676:	3b7010ef          	jal	ra,222c <vTaskDelay>
     67a:	0000b937          	lui	s2,0xb
     67e:	71090513          	addi	a0,s2,1808 # b710 <_sbrk+0x82>
     682:	646050ef          	jal	ra,5cc8 <puts>
     686:	3e800513          	li	a0,1000
     68a:	3a3010ef          	jal	ra,222c <vTaskDelay>
     68e:	0000b9b7          	lui	s3,0xb
     692:	71c98593          	addi	a1,s3,1820 # b71c <_sbrk+0x8e>
     696:	2a848513          	addi	a0,s1,680
     69a:	67e050ef          	jal	ra,5d18 <strstr>
     69e:	c008                	sw	a0,0(s0)
     6a0:	0000bab7          	lui	s5,0xb
     6a4:	401c                	lw	a5,0(s0)
     6a6:	cfb9                	beqz	a5,704 <L610_Lookup+0xe6>
     6a8:	0000b537          	lui	a0,0xb
     6ac:	73850513          	addi	a0,a0,1848 # b738 <_sbrk+0xaa>
     6b0:	618050ef          	jal	ra,5cc8 <puts>
     6b4:	6605                	lui	a2,0x1
     6b6:	80060613          	addi	a2,a2,-2048 # 800 <__stack_size>
     6ba:	4581                	li	a1,0
     6bc:	2a848513          	addi	a0,s1,680
     6c0:	000a1023          	sh	zero,0(s4)
     6c4:	3549                	jal	546 <memset>
     6c6:	3e800513          	li	a0,1000
     6ca:	363010ef          	jal	ra,222c <vTaskDelay>
     6ce:	b58d                	j	530 <__riscv_restore_4>
     6d0:	6e8b0513          	addi	a0,s6,1768 # b6e8 <_sbrk+0x5a>
     6d4:	5f4050ef          	jal	ra,5cc8 <puts>
     6d8:	3e800513          	li	a0,1000
     6dc:	351010ef          	jal	ra,222c <vTaskDelay>
     6e0:	6d890513          	addi	a0,s2,1752
     6e4:	000a1023          	sh	zero,0(s4)
     6e8:	5e0050ef          	jal	ra,5cc8 <puts>
     6ec:	3e800513          	li	a0,1000
     6f0:	33d010ef          	jal	ra,222c <vTaskDelay>
     6f4:	6e098593          	addi	a1,s3,1760
     6f8:	2a848513          	addi	a0,s1,680
     6fc:	61c050ef          	jal	ra,5d18 <strstr>
     700:	c008                	sw	a0,0(s0)
     702:	bfb1                	j	65e <L610_Lookup+0x40>
     704:	728a8513          	addi	a0,s5,1832 # b728 <_sbrk+0x9a>
     708:	5c0050ef          	jal	ra,5cc8 <puts>
     70c:	3e800513          	li	a0,1000
     710:	31d010ef          	jal	ra,222c <vTaskDelay>
     714:	71090513          	addi	a0,s2,1808
     718:	000a1023          	sh	zero,0(s4)
     71c:	5ac050ef          	jal	ra,5cc8 <puts>
     720:	3e800513          	li	a0,1000
     724:	309010ef          	jal	ra,222c <vTaskDelay>
     728:	71c98593          	addi	a1,s3,1820
     72c:	2a848513          	addi	a0,s1,680
     730:	5e8050ef          	jal	ra,5d18 <strstr>
     734:	c008                	sw	a0,0(s0)
     736:	b7bd                	j	6a4 <L610_Lookup+0x86>

00000738 <L610_RequestIP>:
     738:	dc5ff2ef          	jal	t0,4fc <__riscv_save_4>
     73c:	0000c537          	lui	a0,0xc
     740:	85850513          	addi	a0,a0,-1960 # b858 <_sbrk+0x1ca>
     744:	584050ef          	jal	ra,5cc8 <puts>
     748:	3e800513          	li	a0,1000
     74c:	2e1010ef          	jal	ra,222c <vTaskDelay>
     750:	0000c937          	lui	s2,0xc
     754:	20000437          	lui	s0,0x20000
     758:	86890593          	addi	a1,s2,-1944 # b868 <_sbrk+0x1da>
     75c:	2a840513          	addi	a0,s0,680 # 200002a8 <USART_Rbuffer>
     760:	200004b7          	lui	s1,0x20000
     764:	5b4050ef          	jal	ra,5d18 <strstr>
     768:	20a4a223          	sw	a0,516(s1) # 20000204 <strx>
     76c:	20000a37          	lui	s4,0x20000
     770:	20448493          	addi	s1,s1,516
     774:	0000cab7          	lui	s5,0xc
     778:	0000cb37          	lui	s6,0xc
     77c:	409c                	lw	a5,0(s1)
     77e:	202a0993          	addi	s3,s4,514 # 20000202 <USART_Rbuffer_Num>
     782:	c78d                	beqz	a5,7ac <L610_RequestIP+0x74>
     784:	0000c537          	lui	a0,0xc
     788:	89850513          	addi	a0,a0,-1896 # b898 <_sbrk+0x20a>
     78c:	53c050ef          	jal	ra,5cc8 <puts>
     790:	6605                	lui	a2,0x1
     792:	80060613          	addi	a2,a2,-2048 # 800 <__stack_size>
     796:	4581                	li	a1,0
     798:	2a840513          	addi	a0,s0,680
     79c:	00099023          	sh	zero,0(s3)
     7a0:	335d                	jal	546 <memset>
     7a2:	3e800513          	li	a0,1000
     7a6:	287010ef          	jal	ra,222c <vTaskDelay>
     7aa:	b359                	j	530 <__riscv_restore_4>
     7ac:	874a8513          	addi	a0,s5,-1932 # b874 <_sbrk+0x1e6>
     7b0:	518050ef          	jal	ra,5cc8 <puts>
     7b4:	3e800513          	li	a0,1000
     7b8:	275010ef          	jal	ra,222c <vTaskDelay>
     7bc:	888b0513          	addi	a0,s6,-1912 # b888 <_sbrk+0x1fa>
     7c0:	00099023          	sh	zero,0(s3)
     7c4:	504050ef          	jal	ra,5cc8 <puts>
     7c8:	3e800513          	li	a0,1000
     7cc:	261010ef          	jal	ra,222c <vTaskDelay>
     7d0:	86890593          	addi	a1,s2,-1944
     7d4:	2a840513          	addi	a0,s0,680
     7d8:	540050ef          	jal	ra,5d18 <strstr>
     7dc:	c088                	sw	a0,0(s1)
     7de:	bf79                	j	77c <L610_RequestIP+0x44>

000007e0 <L610_SetAndConnect>:
     7e0:	d0fff2ef          	jal	t0,4ee <__riscv_save_10>
     7e4:	0000c937          	lui	s2,0xc
     7e8:	8a890513          	addi	a0,s2,-1880 # b8a8 <_sbrk+0x21a>
     7ec:	4dc050ef          	jal	ra,5cc8 <puts>
     7f0:	3e800513          	li	a0,1000
     7f4:	239010ef          	jal	ra,222c <vTaskDelay>
     7f8:	0000ca37          	lui	s4,0xc
     7fc:	20000437          	lui	s0,0x20000
     800:	8f0a0593          	addi	a1,s4,-1808 # b8f0 <_sbrk+0x262>
     804:	2a840513          	addi	a0,s0,680 # 200002a8 <USART_Rbuffer>
     808:	200004b7          	lui	s1,0x20000
     80c:	50c050ef          	jal	ra,5d18 <strstr>
     810:	20a4a223          	sw	a0,516(s1) # 20000204 <strx>
     814:	20000ab7          	lui	s5,0x20000
     818:	20448493          	addi	s1,s1,516
     81c:	0000cb37          	lui	s6,0xc
     820:	409c                	lw	a5,0(s1)
     822:	202a8993          	addi	s3,s5,514 # 20000202 <USART_Rbuffer_Num>
     826:	c3dd                	beqz	a5,8cc <__stack_size+0xcc>
     828:	0000c537          	lui	a0,0xc
     82c:	92050513          	addi	a0,a0,-1760 # b920 <_sbrk+0x292>
     830:	6905                	lui	s2,0x1
     832:	496050ef          	jal	ra,5cc8 <puts>
     836:	80090913          	addi	s2,s2,-2048 # 800 <__stack_size>
     83a:	864a                	mv	a2,s2
     83c:	4581                	li	a1,0
     83e:	2a840513          	addi	a0,s0,680
     842:	00099023          	sh	zero,0(s3)
     846:	3301                	jal	546 <memset>
     848:	3e800513          	li	a0,1000
     84c:	1e1010ef          	jal	ra,222c <vTaskDelay>
     850:	0000ca37          	lui	s4,0xc
     854:	93ca0513          	addi	a0,s4,-1732 # b93c <_sbrk+0x2ae>
     858:	470050ef          	jal	ra,5cc8 <puts>
     85c:	3e800513          	li	a0,1000
     860:	1cd010ef          	jal	ra,222c <vTaskDelay>
     864:	0000cab7          	lui	s5,0xc
     868:	95ca8593          	addi	a1,s5,-1700 # b95c <_sbrk+0x2ce>
     86c:	2a840513          	addi	a0,s0,680
     870:	4a8050ef          	jal	ra,5d18 <strstr>
     874:	c088                	sw	a0,0(s1)
     876:	0000cbb7          	lui	s7,0xc
     87a:	0000cc37          	lui	s8,0xc
     87e:	409c                	lw	a5,0(s1)
     880:	e395                	bnez	a5,8a4 <__stack_size+0xa4>
     882:	96cb8593          	addi	a1,s7,-1684 # b96c <_sbrk+0x2de>
     886:	2a840513          	addi	a0,s0,680
     88a:	48e050ef          	jal	ra,5d18 <strstr>
     88e:	8b2a                	mv	s6,a0
     890:	c088                	sw	a0,0(s1)
     892:	864a                	mv	a2,s2
     894:	4581                	li	a1,0
     896:	2a840513          	addi	a0,s0,680
     89a:	00099023          	sh	zero,0(s3)
     89e:	3165                	jal	546 <memset>
     8a0:	060b0063          	beqz	s6,900 <__stack_size+0x100>
     8a4:	0000c537          	lui	a0,0xc
     8a8:	97c50513          	addi	a0,a0,-1668 # b97c <_sbrk+0x2ee>
     8ac:	41c050ef          	jal	ra,5cc8 <puts>
     8b0:	6605                	lui	a2,0x1
     8b2:	80060613          	addi	a2,a2,-2048 # 800 <__stack_size>
     8b6:	4581                	li	a1,0
     8b8:	2a840513          	addi	a0,s0,680
     8bc:	00099023          	sh	zero,0(s3)
     8c0:	3159                	jal	546 <memset>
     8c2:	3e800513          	li	a0,1000
     8c6:	167010ef          	jal	ra,222c <vTaskDelay>
     8ca:	b9b1                	j	526 <__riscv_restore_10>
     8cc:	904b0513          	addi	a0,s6,-1788 # b904 <_sbrk+0x276>
     8d0:	3f8050ef          	jal	ra,5cc8 <puts>
     8d4:	3e800513          	li	a0,1000
     8d8:	155010ef          	jal	ra,222c <vTaskDelay>
     8dc:	8a890513          	addi	a0,s2,-1880
     8e0:	00099023          	sh	zero,0(s3)
     8e4:	3e4050ef          	jal	ra,5cc8 <puts>
     8e8:	3e800513          	li	a0,1000
     8ec:	141010ef          	jal	ra,222c <vTaskDelay>
     8f0:	8f0a0593          	addi	a1,s4,-1808
     8f4:	2a840513          	addi	a0,s0,680
     8f8:	420050ef          	jal	ra,5d18 <strstr>
     8fc:	c088                	sw	a0,0(s1)
     8fe:	b70d                	j	820 <__stack_size+0x20>
     900:	98cc0513          	addi	a0,s8,-1652 # b98c <_sbrk+0x2fe>
     904:	3c4050ef          	jal	ra,5cc8 <puts>
     908:	93ca0513          	addi	a0,s4,-1732
     90c:	3bc050ef          	jal	ra,5cc8 <puts>
     910:	95ca8593          	addi	a1,s5,-1700
     914:	2a840513          	addi	a0,s0,680
     918:	400050ef          	jal	ra,5d18 <strstr>
     91c:	c088                	sw	a0,0(s1)
     91e:	864a                	mv	a2,s2
     920:	4581                	li	a1,0
     922:	2a840513          	addi	a0,s0,680
     926:	00099023          	sh	zero,0(s3)
     92a:	3931                	jal	546 <memset>
     92c:	bf89                	j	87e <__stack_size+0x7e>

0000092e <L610_Sub>:
     92e:	bcfff2ef          	jal	t0,4fc <__riscv_save_4>
     932:	0000c937          	lui	s2,0xc
     936:	99c90513          	addi	a0,s2,-1636 # b99c <_sbrk+0x30e>
     93a:	38e050ef          	jal	ra,5cc8 <puts>
     93e:	7d000513          	li	a0,2000
     942:	0eb010ef          	jal	ra,222c <vTaskDelay>
     946:	0000c9b7          	lui	s3,0xc
     94a:	20000437          	lui	s0,0x20000
     94e:	9d898593          	addi	a1,s3,-1576 # b9d8 <_sbrk+0x34a>
     952:	2a840513          	addi	a0,s0,680 # 200002a8 <USART_Rbuffer>
     956:	200004b7          	lui	s1,0x20000
     95a:	3be050ef          	jal	ra,5d18 <strstr>
     95e:	20a4a223          	sw	a0,516(s1) # 20000204 <strx>
     962:	20000ab7          	lui	s5,0x20000
     966:	20448493          	addi	s1,s1,516
     96a:	0000cb37          	lui	s6,0xc
     96e:	409c                	lw	a5,0(s1)
     970:	202a8a13          	addi	s4,s5,514 # 20000202 <USART_Rbuffer_Num>
     974:	c78d                	beqz	a5,99e <L610_Sub+0x70>
     976:	0000c537          	lui	a0,0xc
     97a:	9fc50513          	addi	a0,a0,-1540 # b9fc <_sbrk+0x36e>
     97e:	34a050ef          	jal	ra,5cc8 <puts>
     982:	6605                	lui	a2,0x1
     984:	80060613          	addi	a2,a2,-2048 # 800 <__stack_size>
     988:	4581                	li	a1,0
     98a:	2a840513          	addi	a0,s0,680
     98e:	000a1023          	sh	zero,0(s4)
     992:	3e55                	jal	546 <memset>
     994:	3e800513          	li	a0,1000
     998:	095010ef          	jal	ra,222c <vTaskDelay>
     99c:	be51                	j	530 <__riscv_restore_4>
     99e:	9e8b0513          	addi	a0,s6,-1560 # b9e8 <_sbrk+0x35a>
     9a2:	326050ef          	jal	ra,5cc8 <puts>
     9a6:	3e800513          	li	a0,1000
     9aa:	083010ef          	jal	ra,222c <vTaskDelay>
     9ae:	99c90513          	addi	a0,s2,-1636
     9b2:	000a1023          	sh	zero,0(s4)
     9b6:	312050ef          	jal	ra,5cc8 <puts>
     9ba:	3e800513          	li	a0,1000
     9be:	06f010ef          	jal	ra,222c <vTaskDelay>
     9c2:	9d898593          	addi	a1,s3,-1576
     9c6:	2a840513          	addi	a0,s0,680
     9ca:	34e050ef          	jal	ra,5d18 <strstr>
     9ce:	c088                	sw	a0,0(s1)
     9d0:	bf79                	j	96e <L610_Sub+0x40>

000009d2 <L610_Pub>:
     9d2:	b45ff2ef          	jal	t0,516 <__riscv_save_0>
     9d6:	862e                	mv	a2,a1
     9d8:	85aa                	mv	a1,a0
     9da:	0000b537          	lui	a0,0xb
     9de:	74850513          	addi	a0,a0,1864 # b748 <_sbrk+0xba>
     9e2:	1c6050ef          	jal	ra,5ba8 <iprintf>
     9e6:	be91                	j	53a <__riscv_restore_0>

000009e8 <L610_Recive>:
     9e8:	b2fff2ef          	jal	t0,516 <__riscv_save_0>
     9ec:	200004b7          	lui	s1,0x20000
     9f0:	7161                	addi	sp,sp,-432
     9f2:	892a                	mv	s2,a0
     9f4:	8426                	mv	s0,s1
     9f6:	2a848783          	lb	a5,680(s1) # 200002a8 <USART_Rbuffer>
     9fa:	18078e63          	beqz	a5,b96 <L610_Recive+0x1ae>
     9fe:	3e800513          	li	a0,1000
     a02:	02b010ef          	jal	ra,222c <vTaskDelay>
     a06:	0000b5b7          	lui	a1,0xb
     a0a:	7f058593          	addi	a1,a1,2032 # b7f0 <_sbrk+0x162>
     a0e:	2a848513          	addi	a0,s1,680
     a12:	306050ef          	jal	ra,5d18 <strstr>
     a16:	cd05                	beqz	a0,a4e <L610_Recive+0x66>
     a18:	0818                	addi	a4,sp,16
     a1a:	4781                	li	a5,0
     a1c:	02200593          	li	a1,34
     a20:	06400613          	li	a2,100
     a24:	00f506b3          	add	a3,a0,a5
     a28:	00768683          	lb	a3,7(a3)
     a2c:	00b68563          	beq	a3,a1,a36 <L610_Recive+0x4e>
     a30:	0705                	addi	a4,a4,1
     a32:	14c79163          	bne	a5,a2,b74 <L610_Recive+0x18c>
     a36:	1b18                	addi	a4,sp,432
     a38:	0000b537          	lui	a0,0xb
     a3c:	97ba                	add	a5,a5,a4
     a3e:	07610593          	addi	a1,sp,118
     a42:	7f850513          	addi	a0,a0,2040 # b7f8 <_sbrk+0x16a>
     a46:	ec078323          	sb	zero,-314(a5)
     a4a:	15e050ef          	jal	ra,5ba8 <iprintf>
     a4e:	0000c5b7          	lui	a1,0xc
     a52:	80858593          	addi	a1,a1,-2040 # b808 <_sbrk+0x17a>
     a56:	2a840513          	addi	a0,s0,680
     a5a:	2be050ef          	jal	ra,5d18 <strstr>
     a5e:	c90d                	beqz	a0,a90 <L610_Recive+0xa8>
     a60:	4781                	li	a5,0
     a62:	02200613          	li	a2,34
     a66:	06400693          	li	a3,100
     a6a:	00f50733          	add	a4,a0,a5
     a6e:	00570703          	lb	a4,5(a4)
     a72:	00c70463          	beq	a4,a2,a7a <L610_Recive+0x92>
     a76:	10d79363          	bne	a5,a3,b7c <L610_Recive+0x194>
     a7a:	1b18                	addi	a4,sp,432
     a7c:	0000c537          	lui	a0,0xc
     a80:	97ba                	add	a5,a5,a4
     a82:	080c                	addi	a1,sp,16
     a84:	80c50513          	addi	a0,a0,-2036 # b80c <_sbrk+0x17e>
     a88:	e6078023          	sb	zero,-416(a5)
     a8c:	11c050ef          	jal	ra,5ba8 <iprintf>
     a90:	0000c5b7          	lui	a1,0xc
     a94:	81c58593          	addi	a1,a1,-2020 # b81c <_sbrk+0x18e>
     a98:	2a840513          	addi	a0,s0,680
     a9c:	27c050ef          	jal	ra,5d18 <strstr>
     aa0:	c539                	beqz	a0,aee <L610_Recive+0x106>
     aa2:	0818                	addi	a4,sp,16
     aa4:	4781                	li	a5,0
     aa6:	02c00593          	li	a1,44
     aaa:	02200813          	li	a6,34
     aae:	06400613          	li	a2,100
     ab2:	00f506b3          	add	a3,a0,a5
     ab6:	00868683          	lb	a3,8(a3)
     aba:	00b68763          	beq	a3,a1,ac8 <L610_Recive+0xe0>
     abe:	01068563          	beq	a3,a6,ac8 <L610_Recive+0xe0>
     ac2:	0705                	addi	a4,a4,1
     ac4:	0cc79163          	bne	a5,a2,b86 <L610_Recive+0x19e>
     ac8:	1b18                	addi	a4,sp,432
     aca:	97ba                	add	a5,a5,a4
     acc:	006c                	addi	a1,sp,12
     ace:	09e8                	addi	a0,sp,220
     ad0:	f2078623          	sb	zero,-212(a5)
     ad4:	733050ef          	jal	ra,6a06 <strtof>
     ad8:	3f8040ef          	jal	ra,4ed0 <__fixunssfsi>
     adc:	06a10aa3          	sb	a0,117(sp)
     ae0:	0000c537          	lui	a0,0xc
     ae4:	09ec                	addi	a1,sp,220
     ae6:	82450513          	addi	a0,a0,-2012 # b824 <_sbrk+0x196>
     aea:	0be050ef          	jal	ra,5ba8 <iprintf>
     aee:	0000c5b7          	lui	a1,0xc
     af2:	83858593          	addi	a1,a1,-1992 # b838 <_sbrk+0x1aa>
     af6:	2a840513          	addi	a0,s0,680
     afa:	21e050ef          	jal	ra,5d18 <strstr>
     afe:	c539                	beqz	a0,b4c <L610_Recive+0x164>
     b00:	0818                	addi	a4,sp,16
     b02:	4781                	li	a5,0
     b04:	02c00593          	li	a1,44
     b08:	02200813          	li	a6,34
     b0c:	06400613          	li	a2,100
     b10:	00f506b3          	add	a3,a0,a5
     b14:	00968683          	lb	a3,9(a3)
     b18:	00b68763          	beq	a3,a1,b26 <L610_Recive+0x13e>
     b1c:	01068563          	beq	a3,a6,b26 <L610_Recive+0x13e>
     b20:	0705                	addi	a4,a4,1
     b22:	06c79663          	bne	a5,a2,b8e <L610_Recive+0x1a6>
     b26:	1b18                	addi	a4,sp,432
     b28:	97ba                	add	a5,a5,a4
     b2a:	006c                	addi	a1,sp,12
     b2c:	0288                	addi	a0,sp,320
     b2e:	f8078823          	sb	zero,-112(a5)
     b32:	6d5050ef          	jal	ra,6a06 <strtof>
     b36:	39a040ef          	jal	ra,4ed0 <__fixunssfsi>
     b3a:	0ca10da3          	sb	a0,219(sp)
     b3e:	0000c537          	lui	a0,0xc
     b42:	028c                	addi	a1,sp,320
     b44:	84050513          	addi	a0,a0,-1984 # b840 <_sbrk+0x1b2>
     b48:	060050ef          	jal	ra,5ba8 <iprintf>
     b4c:	6605                	lui	a2,0x1
     b4e:	200007b7          	lui	a5,0x20000
     b52:	80060613          	addi	a2,a2,-2048 # 800 <__stack_size>
     b56:	4581                	li	a1,0
     b58:	2a840513          	addi	a0,s0,680
     b5c:	20079123          	sh	zero,514(a5) # 20000202 <USART_Rbuffer_Num>
     b60:	32dd                	jal	546 <memset>
     b62:	080c                	addi	a1,sp,16
     b64:	1a000613          	li	a2,416
     b68:	854a                	mv	a0,s2
     b6a:	410040ef          	jal	ra,4f7a <memcpy>
     b6e:	854a                	mv	a0,s2
     b70:	615d                	addi	sp,sp,432
     b72:	b2e1                	j	53a <__riscv_restore_0>
     b74:	0785                	addi	a5,a5,1
     b76:	06d702a3          	sb	a3,101(a4)
     b7a:	b56d                	j	a24 <L610_Recive+0x3c>
     b7c:	080c                	addi	a1,sp,16
     b7e:	95be                	add	a1,a1,a5
     b80:	a198                	sb	a4,0(a1)
     b82:	0785                	addi	a5,a5,1
     b84:	b5dd                	j	a6a <L610_Recive+0x82>
     b86:	0785                	addi	a5,a5,1
     b88:	0cd705a3          	sb	a3,203(a4)
     b8c:	b71d                	j	ab2 <L610_Recive+0xca>
     b8e:	0785                	addi	a5,a5,1
     b90:	12d707a3          	sb	a3,303(a4)
     b94:	bfb5                	j	b10 <L610_Recive+0x128>
     b96:	1f400513          	li	a0,500
     b9a:	692010ef          	jal	ra,222c <vTaskDelay>
     b9e:	bda1                	j	9f6 <L610_Recive+0xe>

00000ba0 <NMI_Handler>:
     ba0:	30200073          	mret

00000ba4 <HardFault_Handler>:
     ba4:	a001                	j	ba4 <HardFault_Handler>

00000ba6 <task1>:
     ba6:	a001                	j	ba6 <task1>

00000ba8 <start_task>:
     ba8:	96fff2ef          	jal	t0,516 <__riscv_save_0>
     bac:	037000ef          	jal	ra,13e2 <vPortEnterCritical>
     bb0:	2271                	jal	d3c <renderMainPage>
     bb2:	200007b7          	lui	a5,0x20000
     bb6:	0000c5b7          	lui	a1,0xc
     bba:	00001537          	lui	a0,0x1
     bbe:	20c78793          	addi	a5,a5,524 # 2000020c <Task1Task_Handler>
     bc2:	4709                	li	a4,2
     bc4:	4681                	li	a3,0
     bc6:	10000613          	li	a2,256
     bca:	a1c58593          	addi	a1,a1,-1508 # ba1c <_sbrk+0x38e>
     bce:	ba650513          	addi	a0,a0,-1114 # ba6 <task1>
     bd2:	7c5000ef          	jal	ra,1b96 <xTaskCreate>
     bd6:	200007b7          	lui	a5,0x20000
     bda:	0000c5b7          	lui	a1,0xc
     bde:	00001537          	lui	a0,0x1
     be2:	21478793          	addi	a5,a5,532 # 20000214 <vSerialTask_Handler>
     be6:	4709                	li	a4,2
     be8:	4681                	li	a3,0
     bea:	10000613          	li	a2,256
     bee:	a2458593          	addi	a1,a1,-1500 # ba24 <_sbrk+0x396>
     bf2:	c3250513          	addi	a0,a0,-974 # c32 <vSerialTask>
     bf6:	7a1000ef          	jal	ra,1b96 <xTaskCreate>
     bfa:	200007b7          	lui	a5,0x20000
     bfe:	0000c5b7          	lui	a1,0xc
     c02:	00001537          	lui	a0,0x1
     c06:	4709                	li	a4,2
     c08:	4681                	li	a3,0
     c0a:	10000613          	li	a2,256
     c0e:	a3058593          	addi	a1,a1,-1488 # ba30 <_sbrk+0x3a2>
     c12:	21078793          	addi	a5,a5,528 # 20000210 <vLookupTask_Handler>
     c16:	c7850513          	addi	a0,a0,-904 # c78 <vLookupTask>
     c1a:	77d000ef          	jal	ra,1b96 <xTaskCreate>
     c1e:	200007b7          	lui	a5,0x20000
     c22:	2087a503          	lw	a0,520(a5) # 20000208 <StartTask_Handler>
     c26:	174010ef          	jal	ra,1d9a <vTaskDelete>
     c2a:	7ce000ef          	jal	ra,13f8 <vPortExitCritical>
     c2e:	90dff06f          	j	53a <__riscv_restore_0>

00000c32 <vSerialTask>:
     c32:	8cbff2ef          	jal	t0,4fc <__riscv_save_4>
     c36:	20000437          	lui	s0,0x20000
     c3a:	1141                	addi	sp,sp,-16
     c3c:	20000937          	lui	s2,0x20000
     c40:	4985                	li	s3,1
     c42:	200004b7          	lui	s1,0x20000
     c46:	3ff00a13          	li	s4,1023
     c4a:	2a840413          	addi	s0,s0,680 # 200002a8 <USART_Rbuffer>
     c4e:	28c92503          	lw	a0,652(s2) # 2000028c <xQueue>
     c52:	567d                	li	a2,-1
     c54:	00f10593          	addi	a1,sp,15
     c58:	3e1000ef          	jal	ra,1838 <xQueueReceive>
     c5c:	ff3519e3          	bne	a0,s3,c4e <vSerialTask+0x1c>
     c60:	2024d783          	lhu	a5,514(s1) # 20000202 <USART_Rbuffer_Num>
     c64:	fefa65e3          	bltu	s4,a5,c4e <vSerialTask+0x1c>
     c68:	8798                	lbu	a4,15(sp)
     c6a:	00178693          	addi	a3,a5,1
     c6e:	97a2                	add	a5,a5,s0
     c70:	20d49123          	sh	a3,514(s1)
     c74:	a398                	sb	a4,0(a5)
     c76:	bfe1                	j	c4e <vSerialTask+0x1c>

00000c78 <vLookupTask>:
     c78:	89fff2ef          	jal	t0,516 <__riscv_save_0>
     c7c:	7125                	addi	sp,sp,-416
     c7e:	971ff0ef          	jal	ra,5ee <L610_Init>
     c82:	99dff0ef          	jal	ra,61e <L610_Lookup>
     c86:	3c4d                	jal	738 <L610_RequestIP>
     c88:	3ea1                	jal	7e0 <L610_SetAndConnect>
     c8a:	3155                	jal	92e <L610_Sub>
     c8c:	0000c5b7          	lui	a1,0xc
     c90:	0000c537          	lui	a0,0xc
     c94:	a3c58593          	addi	a1,a1,-1476 # ba3c <_sbrk+0x3ae>
     c98:	a4450513          	addi	a0,a0,-1468 # ba44 <_sbrk+0x3b6>
     c9c:	3b1d                	jal	9d2 <L610_Pub>
     c9e:	850a                	mv	a0,sp
     ca0:	33a1                	jal	9e8 <L610_Recive>
     ca2:	4501                	li	a0,0
     ca4:	0f6010ef          	jal	ra,1d9a <vTaskDelete>
     ca8:	611d                	addi	sp,sp,416
     caa:	891ff06f          	j	53a <__riscv_restore_0>

00000cae <freertos_demo>:
     cae:	869ff2ef          	jal	t0,516 <__riscv_save_0>
     cb2:	4601                	li	a2,0
     cb4:	4585                	li	a1,1
     cb6:	40000513          	li	a0,1024
     cba:	1f1000ef          	jal	ra,16aa <xQueueGenericCreate>
     cbe:	200007b7          	lui	a5,0x20000
     cc2:	28a7a623          	sw	a0,652(a5) # 2000028c <xQueue>
     cc6:	e111                	bnez	a0,cca <freertos_demo+0x1c>
     cc8:	a001                	j	cc8 <freertos_demo+0x1a>
     cca:	200007b7          	lui	a5,0x20000
     cce:	0000c5b7          	lui	a1,0xc
     cd2:	00001537          	lui	a0,0x1
     cd6:	20878793          	addi	a5,a5,520 # 20000208 <StartTask_Handler>
     cda:	4705                	li	a4,1
     cdc:	4681                	li	a3,0
     cde:	10000613          	li	a2,256
     ce2:	a1058593          	addi	a1,a1,-1520 # ba10 <_sbrk+0x382>
     ce6:	ba850513          	addi	a0,a0,-1112 # ba8 <start_task>
     cea:	6ad000ef          	jal	ra,1b96 <xTaskCreate>
     cee:	17e010ef          	jal	ra,1e6c <vTaskStartScheduler>
     cf2:	849ff06f          	j	53a <__riscv_restore_0>

00000cf6 <main>:
     cf6:	821ff2ef          	jal	t0,516 <__riscv_save_0>
     cfa:	4511                	li	a0,4
     cfc:	2a0020ef          	jal	ra,2f9c <NVIC_PriorityGroupConfig>
     d00:	09000513          	li	a0,144
     d04:	709010ef          	jal	ra,2c0c <delay_init>
     d08:	40011437          	lui	s0,0x40011
     d0c:	4d1010ef          	jal	ra,29dc <USARTx_Init>
     d10:	682020ef          	jal	ra,3392 <LCD_Reset_GPIO_Init>
     d14:	65a1                	lui	a1,0x8
     d16:	80040513          	addi	a0,s0,-2048 # 40010800 <__freertos_irq_stack_top+0x20000800>
     d1a:	27e020ef          	jal	ra,2f98 <GPIO_ResetBits>
     d1e:	06400513          	li	a0,100
     d22:	771010ef          	jal	ra,2c92 <delay_ms>
     d26:	80040513          	addi	a0,s0,-2048
     d2a:	65a1                	lui	a1,0x8
     d2c:	268020ef          	jal	ra,2f94 <GPIO_SetBits>
     d30:	04f020ef          	jal	ra,357e <LCD_Init>
     d34:	3fad                	jal	cae <freertos_demo>
     d36:	4501                	li	a0,0
     d38:	803ff06f          	j	53a <__riscv_restore_0>

00000d3c <renderMainPage>:
     d3c:	fdaff2ef          	jal	t0,516 <__riscv_save_0>
     d40:	4501                	li	a0,0
     d42:	007020ef          	jal	ra,3548 <LCD_Clear>
     d46:	200007b7          	lui	a5,0x20000
     d4a:	577d                	li	a4,-1
     d4c:	28e79c23          	sh	a4,664(a5) # 20000298 <POINT_COLOR>
     d50:	6721                	lui	a4,0x8
     d52:	43070713          	addi	a4,a4,1072 # 8430 <__hexnan+0x72>
     d56:	1c800693          	li	a3,456
     d5a:	2f800613          	li	a2,760
     d5e:	45e1                	li	a1,24
     d60:	02800513          	li	a0,40
     d64:	761030ef          	jal	ra,4cc4 <LCD_Color_Fill>
     d68:	1c800693          	li	a3,456
     d6c:	4651                	li	a2,20
     d6e:	45e1                	li	a1,24
     d70:	4551                	li	a0,20
     d72:	7b3030ef          	jal	ra,4d24 <LCD_DrawLine>
     d76:	1dc00693          	li	a3,476
     d7a:	2f800613          	li	a2,760
     d7e:	1dc00593          	li	a1,476
     d82:	02800513          	li	a0,40
     d86:	79f030ef          	jal	ra,4d24 <LCD_DrawLine>
     d8a:	4691                	li	a3,4
     d8c:	2f800613          	li	a2,760
     d90:	4591                	li	a1,4
     d92:	02800513          	li	a0,40
     d96:	78f030ef          	jal	ra,4d24 <LCD_DrawLine>
     d9a:	1c800693          	li	a3,456
     d9e:	30c00613          	li	a2,780
     da2:	45e1                	li	a1,24
     da4:	30c00513          	li	a0,780
     da8:	77d030ef          	jal	ra,4d24 <LCD_DrawLine>
     dac:	1c800693          	li	a3,456
     db0:	2f800613          	li	a2,760
     db4:	45e1                	li	a1,24
     db6:	02800513          	li	a0,40
     dba:	7ed030ef          	jal	ra,4da6 <LCD_DrawRectangle>
     dbe:	4651                	li	a2,20
     dc0:	45e1                	li	a1,24
     dc2:	02800513          	li	a0,40
     dc6:	01a040ef          	jal	ra,4de0 <LCD_Draw_Circle>
     dca:	4651                	li	a2,20
     dcc:	1c800593          	li	a1,456
     dd0:	02800513          	li	a0,40
     dd4:	00c040ef          	jal	ra,4de0 <LCD_Draw_Circle>
     dd8:	4651                	li	a2,20
     dda:	1c800593          	li	a1,456
     dde:	2f800513          	li	a0,760
     de2:	7ff030ef          	jal	ra,4de0 <LCD_Draw_Circle>
     de6:	4651                	li	a2,20
     de8:	45e1                	li	a1,24
     dea:	2f800513          	li	a0,760
     dee:	7f3030ef          	jal	ra,4de0 <LCD_Draw_Circle>
     df2:	0000c7b7          	lui	a5,0xc
     df6:	a4c78793          	addi	a5,a5,-1460 # ba4c <_sbrk+0x3be>
     dfa:	02000713          	li	a4,32
     dfe:	02000693          	li	a3,32
     e02:	12000613          	li	a2,288
     e06:	02800593          	li	a1,40
     e0a:	0fa00513          	li	a0,250
     e0e:	64d030ef          	jal	ra,4c5a <LCD_ShowString>
     e12:	6431                	lui	s0,0xc
     e14:	61840713          	addi	a4,s0,1560 # c618 <asc2_1608+0x590>
     e18:	11e00693          	li	a3,286
     e1c:	10e00613          	li	a2,270
     e20:	0a600593          	li	a1,166
     e24:	03c00513          	li	a0,60
     e28:	69d030ef          	jal	ra,4cc4 <LCD_Color_Fill>
     e2c:	61840713          	addi	a4,s0,1560
     e30:	11e00693          	li	a3,286
     e34:	1f900613          	li	a2,505
     e38:	0a600593          	li	a1,166
     e3c:	12700513          	li	a0,295
     e40:	685030ef          	jal	ra,4cc4 <LCD_Color_Fill>
     e44:	61840713          	addi	a4,s0,1560
     e48:	11e00693          	li	a3,286
     e4c:	2e400613          	li	a2,740
     e50:	0a600593          	li	a1,166
     e54:	21200513          	li	a0,530
     e58:	66d030ef          	jal	ra,4cc4 <LCD_Color_Fill>
     e5c:	61840713          	addi	a4,s0,1560
     e60:	1af00693          	li	a3,431
     e64:	10e00613          	li	a2,270
     e68:	13700593          	li	a1,311
     e6c:	03c00513          	li	a0,60
     e70:	655030ef          	jal	ra,4cc4 <LCD_Color_Fill>
     e74:	61840713          	addi	a4,s0,1560
     e78:	1af00693          	li	a3,431
     e7c:	1f900613          	li	a2,505
     e80:	13700593          	li	a1,311
     e84:	12700513          	li	a0,295
     e88:	63d030ef          	jal	ra,4cc4 <LCD_Color_Fill>
     e8c:	61840713          	addi	a4,s0,1560
     e90:	1af00693          	li	a3,431
     e94:	2e400613          	li	a2,740
     e98:	13700593          	li	a1,311
     e9c:	21200513          	li	a0,530
     ea0:	625030ef          	jal	ra,4cc4 <LCD_Color_Fill>
     ea4:	0000c7b7          	lui	a5,0xc
     ea8:	a6078793          	addi	a5,a5,-1440 # ba60 <_sbrk+0x3d2>
     eac:	02000713          	li	a4,32
     eb0:	02000693          	li	a3,32
     eb4:	05000613          	li	a2,80
     eb8:	0c800593          	li	a1,200
     ebc:	06400513          	li	a0,100
     ec0:	59b030ef          	jal	ra,4c5a <LCD_ShowString>
     ec4:	0000c7b7          	lui	a5,0xc
     ec8:	a6878793          	addi	a5,a5,-1432 # ba68 <_sbrk+0x3da>
     ecc:	02000713          	li	a4,32
     ed0:	02000693          	li	a3,32
     ed4:	08000613          	li	a2,128
     ed8:	0c800593          	li	a1,200
     edc:	14000513          	li	a0,320
     ee0:	57b030ef          	jal	ra,4c5a <LCD_ShowString>
     ee4:	0000c7b7          	lui	a5,0xc
     ee8:	a7478793          	addi	a5,a5,-1420 # ba74 <_sbrk+0x3e6>
     eec:	02000713          	li	a4,32
     ef0:	02000693          	li	a3,32
     ef4:	05000613          	li	a2,80
     ef8:	0c800593          	li	a1,200
     efc:	23a00513          	li	a0,570
     f00:	55b030ef          	jal	ra,4c5a <LCD_ShowString>
     f04:	0000c437          	lui	s0,0xc
     f08:	a7c40793          	addi	a5,s0,-1412 # ba7c <_sbrk+0x3ee>
     f0c:	02000713          	li	a4,32
     f10:	02000693          	li	a3,32
     f14:	05000613          	li	a2,80
     f18:	0f000593          	li	a1,240
     f1c:	25800513          	li	a0,600
     f20:	53b030ef          	jal	ra,4c5a <LCD_ShowString>
     f24:	0000c7b7          	lui	a5,0xc
     f28:	a8478793          	addi	a5,a5,-1404 # ba84 <_sbrk+0x3f6>
     f2c:	02000713          	li	a4,32
     f30:	02000693          	li	a3,32
     f34:	09000613          	li	a2,144
     f38:	15900593          	li	a1,345
     f3c:	06400513          	li	a0,100
     f40:	51b030ef          	jal	ra,4c5a <LCD_ShowString>
     f44:	a7c40793          	addi	a5,s0,-1412
     f48:	02000713          	li	a4,32
     f4c:	02000693          	li	a3,32
     f50:	05000613          	li	a2,80
     f54:	18100593          	li	a1,385
     f58:	08200513          	li	a0,130
     f5c:	4ff030ef          	jal	ra,4c5a <LCD_ShowString>
     f60:	0000c7b7          	lui	a5,0xc
     f64:	a9078793          	addi	a5,a5,-1392 # ba90 <_sbrk+0x402>
     f68:	02000713          	li	a4,32
     f6c:	02000693          	li	a3,32
     f70:	06000613          	li	a2,96
     f74:	15900593          	li	a1,345
     f78:	14000513          	li	a0,320
     f7c:	4df030ef          	jal	ra,4c5a <LCD_ShowString>
     f80:	0000c7b7          	lui	a5,0xc
     f84:	a9878793          	addi	a5,a5,-1384 # ba98 <_sbrk+0x40a>
     f88:	02000713          	li	a4,32
     f8c:	02000693          	li	a3,32
     f90:	06000613          	li	a2,96
     f94:	15900593          	li	a1,345
     f98:	23a00513          	li	a0,570
     f9c:	4bf030ef          	jal	ra,4c5a <LCD_ShowString>
     fa0:	d9aff06f          	j	53a <__riscv_restore_0>

00000fa4 <SystemInit>:
     fa4:	400217b7          	lui	a5,0x40021
     fa8:	4398                	lw	a4,0(a5)
     faa:	f8ff06b7          	lui	a3,0xf8ff0
     fae:	1141                	addi	sp,sp,-16
     fb0:	00176713          	ori	a4,a4,1
     fb4:	c398                	sw	a4,0(a5)
     fb6:	43d8                	lw	a4,4(a5)
     fb8:	00020637          	lui	a2,0x20
     fbc:	8f75                	and	a4,a4,a3
     fbe:	c3d8                	sw	a4,4(a5)
     fc0:	4398                	lw	a4,0(a5)
     fc2:	fef706b7          	lui	a3,0xfef70
     fc6:	16fd                	addi	a3,a3,-1
     fc8:	8f75                	and	a4,a4,a3
     fca:	c398                	sw	a4,0(a5)
     fcc:	4398                	lw	a4,0(a5)
     fce:	fffc06b7          	lui	a3,0xfffc0
     fd2:	16fd                	addi	a3,a3,-1
     fd4:	8f75                	and	a4,a4,a3
     fd6:	c398                	sw	a4,0(a5)
     fd8:	43d8                	lw	a4,4(a5)
     fda:	ff8106b7          	lui	a3,0xff810
     fde:	16fd                	addi	a3,a3,-1
     fe0:	8f75                	and	a4,a4,a3
     fe2:	c3d8                	sw	a4,4(a5)
     fe4:	4398                	lw	a4,0(a5)
     fe6:	ec0006b7          	lui	a3,0xec000
     fea:	16fd                	addi	a3,a3,-1
     fec:	8f75                	and	a4,a4,a3
     fee:	c398                	sw	a4,0(a5)
     ff0:	00ff0737          	lui	a4,0xff0
     ff4:	c798                	sw	a4,8(a5)
     ff6:	0207a623          	sw	zero,44(a5) # 4002102c <__freertos_irq_stack_top+0x2001102c>
     ffa:	c402                	sw	zero,8(sp)
     ffc:	c602                	sw	zero,12(sp)
     ffe:	4398                	lw	a4,0(a5)
    1000:	66c1                	lui	a3,0x10
    1002:	8f55                	or	a4,a4,a3
    1004:	c398                	sw	a4,0(a5)
    1006:	400216b7          	lui	a3,0x40021
    100a:	6705                	lui	a4,0x1
    100c:	429c                	lw	a5,0(a3)
    100e:	8ff1                	and	a5,a5,a2
    1010:	c63e                	sw	a5,12(sp)
    1012:	47a2                	lw	a5,8(sp)
    1014:	0785                	addi	a5,a5,1
    1016:	c43e                	sw	a5,8(sp)
    1018:	47b2                	lw	a5,12(sp)
    101a:	e781                	bnez	a5,1022 <SystemInit+0x7e>
    101c:	47a2                	lw	a5,8(sp)
    101e:	fee797e3          	bne	a5,a4,100c <SystemInit+0x68>
    1022:	400217b7          	lui	a5,0x40021
    1026:	439c                	lw	a5,0(a5)
    1028:	00e79713          	slli	a4,a5,0xe
    102c:	06075663          	bgez	a4,1098 <SystemInit+0xf4>
    1030:	4785                	li	a5,1
    1032:	c63e                	sw	a5,12(sp)
    1034:	4732                	lw	a4,12(sp)
    1036:	4785                	li	a5,1
    1038:	04f71e63          	bne	a4,a5,1094 <SystemInit+0xf0>
    103c:	400217b7          	lui	a5,0x40021
    1040:	43d8                	lw	a4,4(a5)
    1042:	ffc106b7          	lui	a3,0xffc10
    1046:	16fd                	addi	a3,a3,-1
    1048:	c3d8                	sw	a4,4(a5)
    104a:	43d8                	lw	a4,4(a5)
    104c:	c3d8                	sw	a4,4(a5)
    104e:	43d8                	lw	a4,4(a5)
    1050:	40076713          	ori	a4,a4,1024
    1054:	c3d8                	sw	a4,4(a5)
    1056:	43d8                	lw	a4,4(a5)
    1058:	8f75                	and	a4,a4,a3
    105a:	c3d8                	sw	a4,4(a5)
    105c:	43d8                	lw	a4,4(a5)
    105e:	66c1                	lui	a3,0x10
    1060:	8f55                	or	a4,a4,a3
    1062:	c3d8                	sw	a4,4(a5)
    1064:	4398                	lw	a4,0(a5)
    1066:	010006b7          	lui	a3,0x1000
    106a:	8f55                	or	a4,a4,a3
    106c:	c398                	sw	a4,0(a5)
    106e:	4398                	lw	a4,0(a5)
    1070:	00671693          	slli	a3,a4,0x6
    1074:	fe06dde3          	bgez	a3,106e <SystemInit+0xca>
    1078:	43d8                	lw	a4,4(a5)
    107a:	400216b7          	lui	a3,0x40021
    107e:	9b71                	andi	a4,a4,-4
    1080:	c3d8                	sw	a4,4(a5)
    1082:	43d8                	lw	a4,4(a5)
    1084:	00276713          	ori	a4,a4,2
    1088:	c3d8                	sw	a4,4(a5)
    108a:	4721                	li	a4,8
    108c:	42dc                	lw	a5,4(a3)
    108e:	8bb1                	andi	a5,a5,12
    1090:	fee79ee3          	bne	a5,a4,108c <SystemInit+0xe8>
    1094:	0141                	addi	sp,sp,16
    1096:	8082                	ret
    1098:	c602                	sw	zero,12(sp)
    109a:	bf69                	j	1034 <SystemInit+0x90>

0000109c <prvInsertBlockIntoFreeList>:
    109c:	200007b7          	lui	a5,0x20000
    10a0:	23078793          	addi	a5,a5,560 # 20000230 <xStart>
    10a4:	4398                	lw	a4,0(a5)
    10a6:	02a76f63          	bltu	a4,a0,10e4 <prvInsertBlockIntoFreeList+0x48>
    10aa:	43d0                	lw	a2,4(a5)
    10ac:	00c786b3          	add	a3,a5,a2
    10b0:	00d51663          	bne	a0,a3,10bc <prvInsertBlockIntoFreeList+0x20>
    10b4:	4154                	lw	a3,4(a0)
    10b6:	853e                	mv	a0,a5
    10b8:	96b2                	add	a3,a3,a2
    10ba:	c3d4                	sw	a3,4(a5)
    10bc:	4150                	lw	a2,4(a0)
    10be:	00c506b3          	add	a3,a0,a2
    10c2:	00d71c63          	bne	a4,a3,10da <prvInsertBlockIntoFreeList+0x3e>
    10c6:	200006b7          	lui	a3,0x20000
    10ca:	2186a683          	lw	a3,536(a3) # 20000218 <pxEnd>
    10ce:	00d70663          	beq	a4,a3,10da <prvInsertBlockIntoFreeList+0x3e>
    10d2:	4354                	lw	a3,4(a4)
    10d4:	4318                	lw	a4,0(a4)
    10d6:	96b2                	add	a3,a3,a2
    10d8:	c154                	sw	a3,4(a0)
    10da:	c118                	sw	a4,0(a0)
    10dc:	00f50363          	beq	a0,a5,10e2 <prvInsertBlockIntoFreeList+0x46>
    10e0:	c388                	sw	a0,0(a5)
    10e2:	8082                	ret
    10e4:	87ba                	mv	a5,a4
    10e6:	bf7d                	j	10a4 <prvInsertBlockIntoFreeList+0x8>

000010e8 <pvPortMalloc>:
    10e8:	c14ff2ef          	jal	t0,4fc <__riscv_save_4>
    10ec:	1141                	addi	sp,sp,-16
    10ee:	c62a                	sw	a0,12(sp)
    10f0:	60f000ef          	jal	ra,1efe <vTaskSuspendAll>
    10f4:	200006b7          	lui	a3,0x20000
    10f8:	2186a783          	lw	a5,536(a3) # 20000218 <pxEnd>
    10fc:	20000637          	lui	a2,0x20000
    1100:	21868693          	addi	a3,a3,536
    1104:	21c60613          	addi	a2,a2,540 # 2000021c <xBlockAllocatedBit>
    1108:	4532                	lw	a0,12(sp)
    110a:	efa9                	bnez	a5,1164 <pvPortMalloc+0x7c>
    110c:	20001737          	lui	a4,0x20001
    1110:	aa870793          	addi	a5,a4,-1368 # 20000aa8 <ucHeap>
    1114:	00f7f593          	andi	a1,a5,15
    1118:	aa870713          	addi	a4,a4,-1368
    111c:	c581                	beqz	a1,1124 <pvPortMalloc+0x3c>
    111e:	00f78713          	addi	a4,a5,15
    1122:	9b41                	andi	a4,a4,-16
    1124:	200005b7          	lui	a1,0x20000
    1128:	23058593          	addi	a1,a1,560 # 20000230 <xStart>
    112c:	0005a223          	sw	zero,4(a1)
    1130:	c198                	sw	a4,0(a1)
    1132:	6589                	lui	a1,0x2
    1134:	7f058593          	addi	a1,a1,2032 # 27f0 <prvTimerTask+0x6>
    1138:	97ae                	add	a5,a5,a1
    113a:	9bc1                	andi	a5,a5,-16
    113c:	0007a223          	sw	zero,4(a5)
    1140:	0007a023          	sw	zero,0(a5)
    1144:	40e785b3          	sub	a1,a5,a4
    1148:	c29c                	sw	a5,0(a3)
    114a:	c31c                	sw	a5,0(a4)
    114c:	200007b7          	lui	a5,0x20000
    1150:	22b7a223          	sw	a1,548(a5) # 20000224 <xMinimumEverFreeBytesRemaining>
    1154:	200007b7          	lui	a5,0x20000
    1158:	22b7a023          	sw	a1,544(a5) # 20000220 <xFreeBytesRemaining>
    115c:	800007b7          	lui	a5,0x80000
    1160:	c34c                	sw	a1,4(a4)
    1162:	c21c                	sw	a5,0(a2)
    1164:	00062a03          	lw	s4,0(a2)
    1168:	00aa77b3          	and	a5,s4,a0
    116c:	e385                	bnez	a5,118c <pvPortMalloc+0xa4>
    116e:	fff50793          	addi	a5,a0,-1
    1172:	5739                	li	a4,-18
    1174:	00f76c63          	bltu	a4,a5,118c <pvPortMalloc+0xa4>
    1178:	01050793          	addi	a5,a0,16
    117c:	00f7f713          	andi	a4,a5,15
    1180:	c341                	beqz	a4,1200 <pvPortMalloc+0x118>
    1182:	ff07f713          	andi	a4,a5,-16
    1186:	0741                	addi	a4,a4,16
    1188:	06e7eb63          	bltu	a5,a4,11fe <pvPortMalloc+0x116>
    118c:	4481                	li	s1,0
    118e:	a089                	j	11d0 <pvPortMalloc+0xe8>
    1190:	8722                	mv	a4,s0
    1192:	842e                	mv	s0,a1
    1194:	a061                	j	121c <pvPortMalloc+0x134>
    1196:	c158                	sw	a4,4(a0)
    1198:	c05c                	sw	a5,4(s0)
    119a:	3709                	jal	109c <prvInsertBlockIntoFreeList>
    119c:	4058                	lw	a4,4(s0)
    119e:	200006b7          	lui	a3,0x20000
    11a2:	22468693          	addi	a3,a3,548 # 20000224 <xMinimumEverFreeBytesRemaining>
    11a6:	4290                	lw	a2,0(a3)
    11a8:	40e907b3          	sub	a5,s2,a4
    11ac:	00f9a023          	sw	a5,0(s3)
    11b0:	00c7f363          	bgeu	a5,a2,11b6 <pvPortMalloc+0xce>
    11b4:	c29c                	sw	a5,0(a3)
    11b6:	200007b7          	lui	a5,0x20000
    11ba:	00ea6733          	or	a4,s4,a4
    11be:	22878793          	addi	a5,a5,552 # 20000228 <xNumberOfSuccessfulAllocations>
    11c2:	c058                	sw	a4,4(s0)
    11c4:	4398                	lw	a4,0(a5)
    11c6:	04c1                	addi	s1,s1,16
    11c8:	00042023          	sw	zero,0(s0)
    11cc:	0705                	addi	a4,a4,1
    11ce:	c398                	sw	a4,0(a5)
    11d0:	6f5000ef          	jal	ra,20c4 <xTaskResumeAll>
    11d4:	00f4f793          	andi	a5,s1,15
    11d8:	cbd1                	beqz	a5,126c <pvPortMalloc+0x184>
    11da:	67a1                	lui	a5,0x8
    11dc:	80078793          	addi	a5,a5,-2048 # 7800 <_dtoa_r+0x9fa>
    11e0:	30079073          	csrw	mstatus,a5
    11e4:	0000c637          	lui	a2,0xc
    11e8:	0000c537          	lui	a0,0xc
    11ec:	aa060613          	addi	a2,a2,-1376 # baa0 <_sbrk+0x412>
    11f0:	11000593          	li	a1,272
    11f4:	ae050513          	addi	a0,a0,-1312 # bae0 <_sbrk+0x452>
    11f8:	1b1040ef          	jal	ra,5ba8 <iprintf>
    11fc:	a001                	j	11fc <pvPortMalloc+0x114>
    11fe:	87ba                	mv	a5,a4
    1200:	20000737          	lui	a4,0x20000
    1204:	22072903          	lw	s2,544(a4) # 20000220 <xFreeBytesRemaining>
    1208:	22070993          	addi	s3,a4,544
    120c:	f8f960e3          	bltu	s2,a5,118c <pvPortMalloc+0xa4>
    1210:	20000737          	lui	a4,0x20000
    1214:	23072403          	lw	s0,560(a4) # 20000230 <xStart>
    1218:	23070713          	addi	a4,a4,560
    121c:	4050                	lw	a2,4(s0)
    121e:	00f67463          	bgeu	a2,a5,1226 <pvPortMalloc+0x13e>
    1222:	400c                	lw	a1,0(s0)
    1224:	f5b5                	bnez	a1,1190 <pvPortMalloc+0xa8>
    1226:	4294                	lw	a3,0(a3)
    1228:	f68682e3          	beq	a3,s0,118c <pvPortMalloc+0xa4>
    122c:	4014                	lw	a3,0(s0)
    122e:	4304                	lw	s1,0(a4)
    1230:	c314                	sw	a3,0(a4)
    1232:	40f60733          	sub	a4,a2,a5
    1236:	02000693          	li	a3,32
    123a:	f6e6f1e3          	bgeu	a3,a4,119c <pvPortMalloc+0xb4>
    123e:	00f40533          	add	a0,s0,a5
    1242:	00f57693          	andi	a3,a0,15
    1246:	daa1                	beqz	a3,1196 <pvPortMalloc+0xae>
    1248:	67a1                	lui	a5,0x8
    124a:	80078793          	addi	a5,a5,-2048 # 7800 <_dtoa_r+0x9fa>
    124e:	30079073          	csrw	mstatus,a5
    1252:	0000c637          	lui	a2,0xc
    1256:	0000c537          	lui	a0,0xc
    125a:	aa060613          	addi	a2,a2,-1376 # baa0 <_sbrk+0x412>
    125e:	0cf00593          	li	a1,207
    1262:	ae050513          	addi	a0,a0,-1312 # bae0 <_sbrk+0x452>
    1266:	143040ef          	jal	ra,5ba8 <iprintf>
    126a:	a001                	j	126a <pvPortMalloc+0x182>
    126c:	8526                	mv	a0,s1
    126e:	0141                	addi	sp,sp,16
    1270:	ac0ff06f          	j	530 <__riscv_restore_4>

00001274 <vPortFree>:
    1274:	c155                	beqz	a0,1318 <vPortFree+0xa4>
    1276:	aa0ff2ef          	jal	t0,516 <__riscv_save_0>
    127a:	200007b7          	lui	a5,0x20000
    127e:	ff452703          	lw	a4,-12(a0)
    1282:	21c7a783          	lw	a5,540(a5) # 2000021c <xBlockAllocatedBit>
    1286:	842a                	mv	s0,a0
    1288:	00f776b3          	and	a3,a4,a5
    128c:	e29d                	bnez	a3,12b2 <vPortFree+0x3e>
    128e:	67a1                	lui	a5,0x8
    1290:	80078793          	addi	a5,a5,-2048 # 7800 <_dtoa_r+0x9fa>
    1294:	30079073          	csrw	mstatus,a5
    1298:	0000c637          	lui	a2,0xc
    129c:	0000c537          	lui	a0,0xc
    12a0:	aa060613          	addi	a2,a2,-1376 # baa0 <_sbrk+0x412>
    12a4:	12400593          	li	a1,292
    12a8:	ae050513          	addi	a0,a0,-1312 # bae0 <_sbrk+0x452>
    12ac:	0fd040ef          	jal	ra,5ba8 <iprintf>
    12b0:	a001                	j	12b0 <vPortFree+0x3c>
    12b2:	ff052683          	lw	a3,-16(a0)
    12b6:	c29d                	beqz	a3,12dc <vPortFree+0x68>
    12b8:	67a1                	lui	a5,0x8
    12ba:	80078793          	addi	a5,a5,-2048 # 7800 <_dtoa_r+0x9fa>
    12be:	30079073          	csrw	mstatus,a5
    12c2:	0000c637          	lui	a2,0xc
    12c6:	0000c537          	lui	a0,0xc
    12ca:	aa060613          	addi	a2,a2,-1376 # baa0 <_sbrk+0x412>
    12ce:	12500593          	li	a1,293
    12d2:	ae050513          	addi	a0,a0,-1312 # bae0 <_sbrk+0x452>
    12d6:	0d3040ef          	jal	ra,5ba8 <iprintf>
    12da:	a001                	j	12da <vPortFree+0x66>
    12dc:	fff7c793          	not	a5,a5
    12e0:	8ff9                	and	a5,a5,a4
    12e2:	fef52a23          	sw	a5,-12(a0)
    12e6:	419000ef          	jal	ra,1efe <vTaskSuspendAll>
    12ea:	200007b7          	lui	a5,0x20000
    12ee:	22078793          	addi	a5,a5,544 # 20000220 <xFreeBytesRemaining>
    12f2:	4394                	lw	a3,0(a5)
    12f4:	ff442703          	lw	a4,-12(s0)
    12f8:	ff040513          	addi	a0,s0,-16
    12fc:	9736                	add	a4,a4,a3
    12fe:	c398                	sw	a4,0(a5)
    1300:	3b71                	jal	109c <prvInsertBlockIntoFreeList>
    1302:	200007b7          	lui	a5,0x20000
    1306:	22c78793          	addi	a5,a5,556 # 2000022c <xNumberOfSuccessfulFrees>
    130a:	4398                	lw	a4,0(a5)
    130c:	0705                	addi	a4,a4,1
    130e:	c398                	sw	a4,0(a5)
    1310:	5b5000ef          	jal	ra,20c4 <xTaskResumeAll>
    1314:	a26ff06f          	j	53a <__riscv_restore_0>
    1318:	8082                	ret

0000131a <vPortSetupTimerInterrupt>:
    131a:	8082                	ret

0000131c <xPortStartScheduler>:
    131c:	9faff2ef          	jal	t0,516 <__riscv_save_0>
    1320:	1141                	addi	sp,sp,-16
    1322:	c602                	sw	zero,12(sp)
    1324:	305027f3          	csrr	a5,mtvec
    1328:	c63e                	sw	a5,12(sp)
    132a:	47b2                	lw	a5,12(sp)
    132c:	470d                	li	a4,3
    132e:	8b8d                	andi	a5,a5,3
    1330:	02e78463          	beq	a5,a4,1358 <xPortStartScheduler+0x3c>
    1334:	67a1                	lui	a5,0x8
    1336:	80078793          	addi	a5,a5,-2048 # 7800 <_dtoa_r+0x9fa>
    133a:	30079073          	csrw	mstatus,a5
    133e:	0000c637          	lui	a2,0xc
    1342:	0000c537          	lui	a0,0xc
    1346:	b0460613          	addi	a2,a2,-1276 # bb04 <_sbrk+0x476>
    134a:	0b600593          	li	a1,182
    134e:	ae050513          	addi	a0,a0,-1312 # bae0 <_sbrk+0x452>
    1352:	057040ef          	jal	ra,5ba8 <iprintf>
    1356:	a001                	j	1356 <xPortStartScheduler+0x3a>
    1358:	200107b7          	lui	a5,0x20010
    135c:	00078793          	mv	a5,a5
    1360:	8bbd                	andi	a5,a5,15
    1362:	c39d                	beqz	a5,1388 <xPortStartScheduler+0x6c>
    1364:	67a1                	lui	a5,0x8
    1366:	80078793          	addi	a5,a5,-2048 # 7800 <_dtoa_r+0x9fa>
    136a:	30079073          	csrw	mstatus,a5
    136e:	0000c637          	lui	a2,0xc
    1372:	0000c537          	lui	a0,0xc
    1376:	b0460613          	addi	a2,a2,-1276 # bb04 <_sbrk+0x476>
    137a:	0bb00593          	li	a1,187
    137e:	ae050513          	addi	a0,a0,-1312 # bae0 <_sbrk+0x452>
    1382:	027040ef          	jal	ra,5ba8 <iprintf>
    1386:	a001                	j	1386 <xPortStartScheduler+0x6a>
    1388:	3f49                	jal	131a <vPortSetupTimerInterrupt>
    138a:	e000e7b7          	lui	a5,0xe000e
    138e:	6705                	lui	a4,0x1
    1390:	10e7a023          	sw	a4,256(a5) # e000e100 <__freertos_irq_stack_top+0xbfffe100>
    1394:	6711                	lui	a4,0x4
    1396:	10e7a023          	sw	a4,256(a5)
    139a:	8001a223          	sw	zero,-2044(gp) # 200001e4 <uxCriticalNesting>
    139e:	f63fe0ef          	jal	ra,300 <xPortStartFirstTask>
    13a2:	4501                	li	a0,0
    13a4:	0141                	addi	sp,sp,16
    13a6:	994ff06f          	j	53a <__riscv_restore_0>

000013aa <SysTick_Handler>:
    13aa:	34011173          	csrrw	sp,mscratch,sp
    13ae:	67a1                	lui	a5,0x8
    13b0:	80078793          	addi	a5,a5,-2048 # 7800 <_dtoa_r+0x9fa>
    13b4:	30079073          	csrw	mstatus,a5
    13b8:	e000f7b7          	lui	a5,0xe000f
    13bc:	0007a223          	sw	zero,4(a5) # e000f004 <__freertos_irq_stack_top+0xbffff004>
    13c0:	359000ef          	jal	ra,1f18 <xTaskIncrementTick>
    13c4:	c511                	beqz	a0,13d0 <SysTick_Handler+0x26>
    13c6:	e000e7b7          	lui	a5,0xe000e
    13ca:	6711                	lui	a4,0x4
    13cc:	20e7a023          	sw	a4,512(a5) # e000e200 <__freertos_irq_stack_top+0xbfffe200>
    13d0:	67a1                	lui	a5,0x8
    13d2:	88878793          	addi	a5,a5,-1912 # 7888 <_dtoa_r+0xa82>
    13d6:	30079073          	csrw	mstatus,a5
    13da:	34011173          	csrrw	sp,mscratch,sp
    13de:	30200073          	mret

000013e2 <vPortEnterCritical>:
    13e2:	67a1                	lui	a5,0x8
    13e4:	80078793          	addi	a5,a5,-2048 # 7800 <_dtoa_r+0x9fa>
    13e8:	30079073          	csrw	mstatus,a5
    13ec:	80418793          	addi	a5,gp,-2044 # 200001e4 <uxCriticalNesting>
    13f0:	4398                	lw	a4,0(a5)
    13f2:	0705                	addi	a4,a4,1
    13f4:	c398                	sw	a4,0(a5)
    13f6:	8082                	ret

000013f8 <vPortExitCritical>:
    13f8:	80418713          	addi	a4,gp,-2044 # 200001e4 <uxCriticalNesting>
    13fc:	431c                	lw	a5,0(a4)
    13fe:	e78d                	bnez	a5,1428 <vPortExitCritical+0x30>
    1400:	916ff2ef          	jal	t0,516 <__riscv_save_0>
    1404:	67a1                	lui	a5,0x8
    1406:	80078793          	addi	a5,a5,-2048 # 7800 <_dtoa_r+0x9fa>
    140a:	30079073          	csrw	mstatus,a5
    140e:	0000c637          	lui	a2,0xc
    1412:	0000c537          	lui	a0,0xc
    1416:	b0460613          	addi	a2,a2,-1276 # bb04 <_sbrk+0x476>
    141a:	10200593          	li	a1,258
    141e:	ae050513          	addi	a0,a0,-1312 # bae0 <_sbrk+0x452>
    1422:	786040ef          	jal	ra,5ba8 <iprintf>
    1426:	a001                	j	1426 <vPortExitCritical+0x2e>
    1428:	17fd                	addi	a5,a5,-1
    142a:	c31c                	sw	a5,0(a4)
    142c:	e791                	bnez	a5,1438 <vPortExitCritical+0x40>
    142e:	67a1                	lui	a5,0x8
    1430:	88878793          	addi	a5,a5,-1912 # 7888 <_dtoa_r+0xa82>
    1434:	30079073          	csrw	mstatus,a5
    1438:	8082                	ret

0000143a <xPortSetInterruptMask>:
    143a:	6521                	lui	a0,0x8
    143c:	80050513          	addi	a0,a0,-2048 # 7800 <_dtoa_r+0x9fa>
    1440:	30051573          	csrrw	a0,mstatus,a0
    1444:	8082                	ret

00001446 <vPortClearInterruptMask>:
    1446:	30051073          	csrw	mstatus,a0
    144a:	8082                	ret

0000144c <vListInitialise>:
    144c:	00850793          	addi	a5,a0,8
    1450:	577d                	li	a4,-1
    1452:	c15c                	sw	a5,4(a0)
    1454:	c518                	sw	a4,8(a0)
    1456:	c55c                	sw	a5,12(a0)
    1458:	c91c                	sw	a5,16(a0)
    145a:	00052023          	sw	zero,0(a0)
    145e:	8082                	ret

00001460 <vListInitialiseItem>:
    1460:	00052823          	sw	zero,16(a0)
    1464:	8082                	ret

00001466 <vListInsertEnd>:
    1466:	415c                	lw	a5,4(a0)
    1468:	4798                	lw	a4,8(a5)
    146a:	c1dc                	sw	a5,4(a1)
    146c:	c598                	sw	a4,8(a1)
    146e:	4798                	lw	a4,8(a5)
    1470:	c34c                	sw	a1,4(a4)
    1472:	c78c                	sw	a1,8(a5)
    1474:	411c                	lw	a5,0(a0)
    1476:	c988                	sw	a0,16(a1)
    1478:	0785                	addi	a5,a5,1
    147a:	c11c                	sw	a5,0(a0)
    147c:	8082                	ret

0000147e <vListInsert>:
    147e:	4198                	lw	a4,0(a1)
    1480:	56fd                	li	a3,-1
    1482:	00850793          	addi	a5,a0,8
    1486:	00d71e63          	bne	a4,a3,14a2 <vListInsert+0x24>
    148a:	491c                	lw	a5,16(a0)
    148c:	43d8                	lw	a4,4(a5)
    148e:	c1d8                	sw	a4,4(a1)
    1490:	c70c                	sw	a1,8(a4)
    1492:	c59c                	sw	a5,8(a1)
    1494:	c3cc                	sw	a1,4(a5)
    1496:	411c                	lw	a5,0(a0)
    1498:	c988                	sw	a0,16(a1)
    149a:	0785                	addi	a5,a5,1
    149c:	c11c                	sw	a5,0(a0)
    149e:	8082                	ret
    14a0:	87b6                	mv	a5,a3
    14a2:	43d4                	lw	a3,4(a5)
    14a4:	4290                	lw	a2,0(a3)
    14a6:	fec77de3          	bgeu	a4,a2,14a0 <vListInsert+0x22>
    14aa:	b7cd                	j	148c <vListInsert+0xe>

000014ac <uxListRemove>:
    14ac:	4154                	lw	a3,4(a0)
    14ae:	4518                	lw	a4,8(a0)
    14b0:	491c                	lw	a5,16(a0)
    14b2:	c698                	sw	a4,8(a3)
    14b4:	c354                	sw	a3,4(a4)
    14b6:	43d4                	lw	a3,4(a5)
    14b8:	00a69363          	bne	a3,a0,14be <uxListRemove+0x12>
    14bc:	c3d8                	sw	a4,4(a5)
    14be:	4398                	lw	a4,0(a5)
    14c0:	00052823          	sw	zero,16(a0)
    14c4:	177d                	addi	a4,a4,-1
    14c6:	c398                	sw	a4,0(a5)
    14c8:	4388                	lw	a0,0(a5)
    14ca:	8082                	ret

000014cc <prvIsQueueEmpty>:
    14cc:	84aff2ef          	jal	t0,516 <__riscv_save_0>
    14d0:	1141                	addi	sp,sp,-16
    14d2:	c62a                	sw	a0,12(sp)
    14d4:	3739                	jal	13e2 <vPortEnterCritical>
    14d6:	4532                	lw	a0,12(sp)
    14d8:	5d00                	lw	s0,56(a0)
    14da:	3f39                	jal	13f8 <vPortExitCritical>
    14dc:	00143513          	seqz	a0,s0
    14e0:	0141                	addi	sp,sp,16
    14e2:	858ff06f          	j	53a <__riscv_restore_0>

000014e6 <prvCopyDataToQueue>:
    14e6:	830ff2ef          	jal	t0,516 <__riscv_save_0>
    14ea:	8932                	mv	s2,a2
    14ec:	4130                	lw	a2,64(a0)
    14ee:	5d04                	lw	s1,56(a0)
    14f0:	842a                	mv	s0,a0
    14f2:	ee09                	bnez	a2,150c <prvCopyDataToQueue+0x26>
    14f4:	411c                	lw	a5,0(a0)
    14f6:	4501                	li	a0,0
    14f8:	e791                	bnez	a5,1504 <prvCopyDataToQueue+0x1e>
    14fa:	4408                	lw	a0,8(s0)
    14fc:	0de010ef          	jal	ra,25da <xTaskPriorityDisinherit>
    1500:	00042423          	sw	zero,8(s0)
    1504:	0485                	addi	s1,s1,1
    1506:	dc04                	sw	s1,56(s0)
    1508:	832ff06f          	j	53a <__riscv_restore_0>
    150c:	02091063          	bnez	s2,152c <prvCopyDataToQueue+0x46>
    1510:	4148                	lw	a0,4(a0)
    1512:	269030ef          	jal	ra,4f7a <memcpy>
    1516:	405c                	lw	a5,4(s0)
    1518:	4038                	lw	a4,64(s0)
    151a:	4501                	li	a0,0
    151c:	97ba                	add	a5,a5,a4
    151e:	4418                	lw	a4,8(s0)
    1520:	c05c                	sw	a5,4(s0)
    1522:	fee7e1e3          	bltu	a5,a4,1504 <prvCopyDataToQueue+0x1e>
    1526:	401c                	lw	a5,0(s0)
    1528:	c05c                	sw	a5,4(s0)
    152a:	bfe9                	j	1504 <prvCopyDataToQueue+0x1e>
    152c:	4548                	lw	a0,12(a0)
    152e:	24d030ef          	jal	ra,4f7a <memcpy>
    1532:	403c                	lw	a5,64(s0)
    1534:	4458                	lw	a4,12(s0)
    1536:	4014                	lw	a3,0(s0)
    1538:	40f007b3          	neg	a5,a5
    153c:	973e                	add	a4,a4,a5
    153e:	c458                	sw	a4,12(s0)
    1540:	00d77563          	bgeu	a4,a3,154a <prvCopyDataToQueue+0x64>
    1544:	4418                	lw	a4,8(s0)
    1546:	97ba                	add	a5,a5,a4
    1548:	c45c                	sw	a5,12(s0)
    154a:	4789                	li	a5,2
    154c:	4501                	li	a0,0
    154e:	faf91be3          	bne	s2,a5,1504 <prvCopyDataToQueue+0x1e>
    1552:	d8cd                	beqz	s1,1504 <prvCopyDataToQueue+0x1e>
    1554:	14fd                	addi	s1,s1,-1
    1556:	b77d                	j	1504 <prvCopyDataToQueue+0x1e>

00001558 <prvCopyDataFromQueue>:
    1558:	4130                	lw	a2,64(a0)
    155a:	c215                	beqz	a2,157e <prvCopyDataFromQueue+0x26>
    155c:	fbbfe2ef          	jal	t0,516 <__riscv_save_0>
    1560:	4558                	lw	a4,12(a0)
    1562:	4514                	lw	a3,8(a0)
    1564:	87aa                	mv	a5,a0
    1566:	9732                	add	a4,a4,a2
    1568:	c558                	sw	a4,12(a0)
    156a:	00d76463          	bltu	a4,a3,1572 <prvCopyDataFromQueue+0x1a>
    156e:	4118                	lw	a4,0(a0)
    1570:	c558                	sw	a4,12(a0)
    1572:	852e                	mv	a0,a1
    1574:	47cc                	lw	a1,12(a5)
    1576:	205030ef          	jal	ra,4f7a <memcpy>
    157a:	fc1fe06f          	j	53a <__riscv_restore_0>
    157e:	8082                	ret

00001580 <prvUnlockQueue>:
    1580:	f97fe2ef          	jal	t0,516 <__riscv_save_0>
    1584:	842a                	mv	s0,a0
    1586:	3db1                	jal	13e2 <vPortEnterCritical>
    1588:	04544483          	lbu	s1,69(s0)
    158c:	02440913          	addi	s2,s0,36
    1590:	04e2                	slli	s1,s1,0x18
    1592:	84e1                	srai	s1,s1,0x18
    1594:	02904563          	bgtz	s1,15be <prvUnlockQueue+0x3e>
    1598:	57fd                	li	a5,-1
    159a:	04f402a3          	sb	a5,69(s0)
    159e:	3da9                	jal	13f8 <vPortExitCritical>
    15a0:	3589                	jal	13e2 <vPortEnterCritical>
    15a2:	04444483          	lbu	s1,68(s0)
    15a6:	01040913          	addi	s2,s0,16
    15aa:	04e2                	slli	s1,s1,0x18
    15ac:	84e1                	srai	s1,s1,0x18
    15ae:	02904463          	bgtz	s1,15d6 <prvUnlockQueue+0x56>
    15b2:	57fd                	li	a5,-1
    15b4:	04f40223          	sb	a5,68(s0)
    15b8:	3581                	jal	13f8 <vPortExitCritical>
    15ba:	f81fe06f          	j	53a <__riscv_restore_0>
    15be:	505c                	lw	a5,36(s0)
    15c0:	dfe1                	beqz	a5,1598 <prvUnlockQueue+0x18>
    15c2:	854a                	mv	a0,s2
    15c4:	625000ef          	jal	ra,23e8 <xTaskRemoveFromEventList>
    15c8:	c119                	beqz	a0,15ce <prvUnlockQueue+0x4e>
    15ca:	7e9000ef          	jal	ra,25b2 <vTaskMissedYield>
    15ce:	14fd                	addi	s1,s1,-1
    15d0:	04e2                	slli	s1,s1,0x18
    15d2:	84e1                	srai	s1,s1,0x18
    15d4:	b7c1                	j	1594 <prvUnlockQueue+0x14>
    15d6:	481c                	lw	a5,16(s0)
    15d8:	dfe9                	beqz	a5,15b2 <prvUnlockQueue+0x32>
    15da:	854a                	mv	a0,s2
    15dc:	60d000ef          	jal	ra,23e8 <xTaskRemoveFromEventList>
    15e0:	c119                	beqz	a0,15e6 <prvUnlockQueue+0x66>
    15e2:	7d1000ef          	jal	ra,25b2 <vTaskMissedYield>
    15e6:	14fd                	addi	s1,s1,-1
    15e8:	04e2                	slli	s1,s1,0x18
    15ea:	84e1                	srai	s1,s1,0x18
    15ec:	b7c9                	j	15ae <prvUnlockQueue+0x2e>

000015ee <xQueueGenericReset>:
    15ee:	f29fe2ef          	jal	t0,516 <__riscv_save_0>
    15f2:	1141                	addi	sp,sp,-16
    15f4:	e11d                	bnez	a0,161a <xQueueGenericReset+0x2c>
    15f6:	67a1                	lui	a5,0x8
    15f8:	80078793          	addi	a5,a5,-2048 # 7800 <_dtoa_r+0x9fa>
    15fc:	30079073          	csrw	mstatus,a5
    1600:	0000c637          	lui	a2,0xc
    1604:	0000c537          	lui	a0,0xc
    1608:	b4860613          	addi	a2,a2,-1208 # bb48 <_sbrk+0x4ba>
    160c:	11000593          	li	a1,272
    1610:	ae050513          	addi	a0,a0,-1312 # bae0 <_sbrk+0x452>
    1614:	594040ef          	jal	ra,5ba8 <iprintf>
    1618:	a001                	j	1618 <xQueueGenericReset+0x2a>
    161a:	5d5c                	lw	a5,60(a0)
    161c:	c62e                	sw	a1,12(sp)
    161e:	842a                	mv	s0,a0
    1620:	c3bd                	beqz	a5,1686 <xQueueGenericReset+0x98>
    1622:	4138                	lw	a4,64(a0)
    1624:	02e7b7b3          	mulhu	a5,a5,a4
    1628:	efb9                	bnez	a5,1686 <xQueueGenericReset+0x98>
    162a:	3b65                	jal	13e2 <vPortEnterCritical>
    162c:	4030                	lw	a2,64(s0)
    162e:	5c58                	lw	a4,60(s0)
    1630:	4014                	lw	a3,0(s0)
    1632:	02042c23          	sw	zero,56(s0)
    1636:	02e607b3          	mul	a5,a2,a4
    163a:	45b2                	lw	a1,12(sp)
    163c:	c054                	sw	a3,4(s0)
    163e:	00f68733          	add	a4,a3,a5
    1642:	8f91                	sub	a5,a5,a2
    1644:	97b6                	add	a5,a5,a3
    1646:	c45c                	sw	a5,12(s0)
    1648:	57fd                	li	a5,-1
    164a:	04f40223          	sb	a5,68(s0)
    164e:	c418                	sw	a4,8(s0)
    1650:	04f402a3          	sb	a5,69(s0)
    1654:	e195                	bnez	a1,1678 <xQueueGenericReset+0x8a>
    1656:	481c                	lw	a5,16(s0)
    1658:	cb99                	beqz	a5,166e <xQueueGenericReset+0x80>
    165a:	01040513          	addi	a0,s0,16
    165e:	58b000ef          	jal	ra,23e8 <xTaskRemoveFromEventList>
    1662:	c511                	beqz	a0,166e <xQueueGenericReset+0x80>
    1664:	e000e7b7          	lui	a5,0xe000e
    1668:	6711                	lui	a4,0x4
    166a:	20e7a023          	sw	a4,512(a5) # e000e200 <__freertos_irq_stack_top+0xbfffe200>
    166e:	3369                	jal	13f8 <vPortExitCritical>
    1670:	4505                	li	a0,1
    1672:	0141                	addi	sp,sp,16
    1674:	ec7fe06f          	j	53a <__riscv_restore_0>
    1678:	01040513          	addi	a0,s0,16
    167c:	3bc1                	jal	144c <vListInitialise>
    167e:	02440513          	addi	a0,s0,36
    1682:	33e9                	jal	144c <vListInitialise>
    1684:	b7ed                	j	166e <xQueueGenericReset+0x80>
    1686:	67a1                	lui	a5,0x8
    1688:	80078793          	addi	a5,a5,-2048 # 7800 <_dtoa_r+0x9fa>
    168c:	30079073          	csrw	mstatus,a5
    1690:	0000c637          	lui	a2,0xc
    1694:	0000c537          	lui	a0,0xc
    1698:	b4860613          	addi	a2,a2,-1208 # bb48 <_sbrk+0x4ba>
    169c:	14500593          	li	a1,325
    16a0:	ae050513          	addi	a0,a0,-1312 # bae0 <_sbrk+0x452>
    16a4:	504040ef          	jal	ra,5ba8 <iprintf>
    16a8:	a001                	j	16a8 <xQueueGenericReset+0xba>

000016aa <xQueueGenericCreate>:
    16aa:	e6dfe2ef          	jal	t0,516 <__riscv_save_0>
    16ae:	1141                	addi	sp,sp,-16
    16b0:	c129                	beqz	a0,16f2 <xQueueGenericCreate+0x48>
    16b2:	02a5b7b3          	mulhu	a5,a1,a0
    16b6:	84aa                	mv	s1,a0
    16b8:	ef8d                	bnez	a5,16f2 <xQueueGenericCreate+0x48>
    16ba:	02b50533          	mul	a0,a0,a1
    16be:	fb700793          	li	a5,-73
    16c2:	02a7e863          	bltu	a5,a0,16f2 <xQueueGenericCreate+0x48>
    16c6:	04850513          	addi	a0,a0,72
    16ca:	c62e                	sw	a1,12(sp)
    16cc:	a1dff0ef          	jal	ra,10e8 <pvPortMalloc>
    16d0:	842a                	mv	s0,a0
    16d2:	cd01                	beqz	a0,16ea <xQueueGenericCreate+0x40>
    16d4:	45b2                	lw	a1,12(sp)
    16d6:	87aa                	mv	a5,a0
    16d8:	c199                	beqz	a1,16de <xQueueGenericCreate+0x34>
    16da:	04850793          	addi	a5,a0,72
    16de:	c02c                	sw	a1,64(s0)
    16e0:	c01c                	sw	a5,0(s0)
    16e2:	dc44                	sw	s1,60(s0)
    16e4:	4585                	li	a1,1
    16e6:	8522                	mv	a0,s0
    16e8:	3719                	jal	15ee <xQueueGenericReset>
    16ea:	8522                	mv	a0,s0
    16ec:	0141                	addi	sp,sp,16
    16ee:	e4dfe06f          	j	53a <__riscv_restore_0>
    16f2:	67a1                	lui	a5,0x8
    16f4:	80078793          	addi	a5,a5,-2048 # 7800 <_dtoa_r+0x9fa>
    16f8:	30079073          	csrw	mstatus,a5
    16fc:	0000c637          	lui	a2,0xc
    1700:	0000c537          	lui	a0,0xc
    1704:	b4860613          	addi	a2,a2,-1208 # bb48 <_sbrk+0x4ba>
    1708:	1c600593          	li	a1,454
    170c:	ae050513          	addi	a0,a0,-1312 # bae0 <_sbrk+0x452>
    1710:	498040ef          	jal	ra,5ba8 <iprintf>
    1714:	a001                	j	1714 <xQueueGenericCreate+0x6a>

00001716 <xQueueGenericSendFromISR>:
    1716:	de7fe2ef          	jal	t0,4fc <__riscv_save_4>
    171a:	1141                	addi	sp,sp,-16
    171c:	e11d                	bnez	a0,1742 <xQueueGenericSendFromISR+0x2c>
    171e:	67a1                	lui	a5,0x8
    1720:	80078793          	addi	a5,a5,-2048 # 7800 <_dtoa_r+0x9fa>
    1724:	30079073          	csrw	mstatus,a5
    1728:	0000c637          	lui	a2,0xc
    172c:	0000c537          	lui	a0,0xc
    1730:	b4860613          	addi	a2,a2,-1208 # bb48 <_sbrk+0x4ba>
    1734:	40200593          	li	a1,1026
    1738:	ae050513          	addi	a0,a0,-1312 # bae0 <_sbrk+0x452>
    173c:	46c040ef          	jal	ra,5ba8 <iprintf>
    1740:	a001                	j	1740 <xQueueGenericSendFromISR+0x2a>
    1742:	842a                	mv	s0,a0
    1744:	89b2                	mv	s3,a2
    1746:	e58d                	bnez	a1,1770 <xQueueGenericSendFromISR+0x5a>
    1748:	413c                	lw	a5,64(a0)
    174a:	c39d                	beqz	a5,1770 <xQueueGenericSendFromISR+0x5a>
    174c:	67a1                	lui	a5,0x8
    174e:	80078793          	addi	a5,a5,-2048 # 7800 <_dtoa_r+0x9fa>
    1752:	30079073          	csrw	mstatus,a5
    1756:	0000c637          	lui	a2,0xc
    175a:	0000c537          	lui	a0,0xc
    175e:	b4860613          	addi	a2,a2,-1208 # bb48 <_sbrk+0x4ba>
    1762:	40300593          	li	a1,1027
    1766:	ae050513          	addi	a0,a0,-1312 # bae0 <_sbrk+0x452>
    176a:	43e040ef          	jal	ra,5ba8 <iprintf>
    176e:	a001                	j	176e <xQueueGenericSendFromISR+0x58>
    1770:	4789                	li	a5,2
    1772:	02f69863          	bne	a3,a5,17a2 <xQueueGenericSendFromISR+0x8c>
    1776:	5c58                	lw	a4,60(s0)
    1778:	4785                	li	a5,1
    177a:	02f70463          	beq	a4,a5,17a2 <xQueueGenericSendFromISR+0x8c>
    177e:	67a1                	lui	a5,0x8
    1780:	80078793          	addi	a5,a5,-2048 # 7800 <_dtoa_r+0x9fa>
    1784:	30079073          	csrw	mstatus,a5
    1788:	0000c637          	lui	a2,0xc
    178c:	0000c537          	lui	a0,0xc
    1790:	b4860613          	addi	a2,a2,-1208 # bb48 <_sbrk+0x4ba>
    1794:	40400593          	li	a1,1028
    1798:	ae050513          	addi	a0,a0,-1312 # bae0 <_sbrk+0x452>
    179c:	40c040ef          	jal	ra,5ba8 <iprintf>
    17a0:	a001                	j	17a0 <xQueueGenericSendFromISR+0x8a>
    17a2:	c636                	sw	a3,12(sp)
    17a4:	c42e                	sw	a1,8(sp)
    17a6:	3951                	jal	143a <xPortSetInterruptMask>
    17a8:	5c18                	lw	a4,56(s0)
    17aa:	5c5c                	lw	a5,60(s0)
    17ac:	8a2a                	mv	s4,a0
    17ae:	45a2                	lw	a1,8(sp)
    17b0:	46b2                	lw	a3,12(sp)
    17b2:	00f76663          	bltu	a4,a5,17be <xQueueGenericSendFromISR+0xa8>
    17b6:	4789                	li	a5,2
    17b8:	4481                	li	s1,0
    17ba:	02f69263          	bne	a3,a5,17de <xQueueGenericSendFromISR+0xc8>
    17be:	04544483          	lbu	s1,69(s0)
    17c2:	5c1c                	lw	a5,56(s0)
    17c4:	8636                	mv	a2,a3
    17c6:	8522                	mv	a0,s0
    17c8:	01849913          	slli	s2,s1,0x18
    17cc:	3b29                	jal	14e6 <prvCopyDataToQueue>
    17ce:	41895913          	srai	s2,s2,0x18
    17d2:	57fd                	li	a5,-1
    17d4:	02f91663          	bne	s2,a5,1800 <xQueueGenericSendFromISR+0xea>
    17d8:	505c                	lw	a5,36(s0)
    17da:	eb81                	bnez	a5,17ea <xQueueGenericSendFromISR+0xd4>
    17dc:	4485                	li	s1,1
    17de:	8552                	mv	a0,s4
    17e0:	319d                	jal	1446 <vPortClearInterruptMask>
    17e2:	8526                	mv	a0,s1
    17e4:	0141                	addi	sp,sp,16
    17e6:	d4bfe06f          	j	530 <__riscv_restore_4>
    17ea:	02440513          	addi	a0,s0,36
    17ee:	3fb000ef          	jal	ra,23e8 <xTaskRemoveFromEventList>
    17f2:	d56d                	beqz	a0,17dc <xQueueGenericSendFromISR+0xc6>
    17f4:	fe0984e3          	beqz	s3,17dc <xQueueGenericSendFromISR+0xc6>
    17f8:	4785                	li	a5,1
    17fa:	00f9a023          	sw	a5,0(s3)
    17fe:	bff9                	j	17dc <xQueueGenericSendFromISR+0xc6>
    1800:	07f00793          	li	a5,127
    1804:	02f91463          	bne	s2,a5,182c <xQueueGenericSendFromISR+0x116>
    1808:	67a1                	lui	a5,0x8
    180a:	80078793          	addi	a5,a5,-2048 # 7800 <_dtoa_r+0x9fa>
    180e:	30079073          	csrw	mstatus,a5
    1812:	0000c637          	lui	a2,0xc
    1816:	0000c537          	lui	a0,0xc
    181a:	b4860613          	addi	a2,a2,-1208 # bb48 <_sbrk+0x4ba>
    181e:	48d00593          	li	a1,1165
    1822:	ae050513          	addi	a0,a0,-1312 # bae0 <_sbrk+0x452>
    1826:	382040ef          	jal	ra,5ba8 <iprintf>
    182a:	a001                	j	182a <xQueueGenericSendFromISR+0x114>
    182c:	0485                	addi	s1,s1,1
    182e:	04e2                	slli	s1,s1,0x18
    1830:	84e1                	srai	s1,s1,0x18
    1832:	049402a3          	sb	s1,69(s0)
    1836:	b75d                	j	17dc <xQueueGenericSendFromISR+0xc6>

00001838 <xQueueReceive>:
    1838:	cb7fe2ef          	jal	t0,4ee <__riscv_save_10>
    183c:	1101                	addi	sp,sp,-32
    183e:	c632                	sw	a2,12(sp)
    1840:	e11d                	bnez	a0,1866 <xQueueReceive+0x2e>
    1842:	67a1                	lui	a5,0x8
    1844:	80078793          	addi	a5,a5,-2048 # 7800 <_dtoa_r+0x9fa>
    1848:	30079073          	csrw	mstatus,a5
    184c:	0000c637          	lui	a2,0xc
    1850:	0000c537          	lui	a0,0xc
    1854:	b4860613          	addi	a2,a2,-1208 # bb48 <_sbrk+0x4ba>
    1858:	55100593          	li	a1,1361
    185c:	ae050513          	addi	a0,a0,-1312 # bae0 <_sbrk+0x452>
    1860:	348040ef          	jal	ra,5ba8 <iprintf>
    1864:	a001                	j	1864 <xQueueReceive+0x2c>
    1866:	842a                	mv	s0,a0
    1868:	89ae                	mv	s3,a1
    186a:	e58d                	bnez	a1,1894 <xQueueReceive+0x5c>
    186c:	413c                	lw	a5,64(a0)
    186e:	c39d                	beqz	a5,1894 <xQueueReceive+0x5c>
    1870:	67a1                	lui	a5,0x8
    1872:	80078793          	addi	a5,a5,-2048 # 7800 <_dtoa_r+0x9fa>
    1876:	30079073          	csrw	mstatus,a5
    187a:	0000c637          	lui	a2,0xc
    187e:	0000c537          	lui	a0,0xc
    1882:	b4860613          	addi	a2,a2,-1208 # bb48 <_sbrk+0x4ba>
    1886:	55500593          	li	a1,1365
    188a:	ae050513          	addi	a0,a0,-1312 # bae0 <_sbrk+0x452>
    188e:	31a040ef          	jal	ra,5ba8 <iprintf>
    1892:	a001                	j	1892 <xQueueReceive+0x5a>
    1894:	52b000ef          	jal	ra,25be <xTaskGetSchedulerState>
    1898:	e515                	bnez	a0,18c4 <xQueueReceive+0x8c>
    189a:	47b2                	lw	a5,12(sp)
    189c:	4901                	li	s2,0
    189e:	c785                	beqz	a5,18c6 <xQueueReceive+0x8e>
    18a0:	67a1                	lui	a5,0x8
    18a2:	80078793          	addi	a5,a5,-2048 # 7800 <_dtoa_r+0x9fa>
    18a6:	30079073          	csrw	mstatus,a5
    18aa:	0000c637          	lui	a2,0xc
    18ae:	0000c537          	lui	a0,0xc
    18b2:	b4860613          	addi	a2,a2,-1208 # bb48 <_sbrk+0x4ba>
    18b6:	55a00593          	li	a1,1370
    18ba:	ae050513          	addi	a0,a0,-1312 # bae0 <_sbrk+0x452>
    18be:	2ea040ef          	jal	ra,5ba8 <iprintf>
    18c2:	a001                	j	18c2 <xQueueReceive+0x8a>
    18c4:	4901                	li	s2,0
    18c6:	5a7d                	li	s4,-1
    18c8:	02440a93          	addi	s5,s0,36
    18cc:	e000eb37          	lui	s6,0xe000e
    18d0:	6b91                	lui	s7,0x4
    18d2:	a885                	j	1942 <xQueueReceive+0x10a>
    18d4:	47b2                	lw	a5,12(sp)
    18d6:	e789                	bnez	a5,18e0 <xQueueReceive+0xa8>
    18d8:	b21ff0ef          	jal	ra,13f8 <vPortExitCritical>
    18dc:	4501                	li	a0,0
    18de:	a851                	j	1972 <xQueueReceive+0x13a>
    18e0:	00091563          	bnez	s2,18ea <xQueueReceive+0xb2>
    18e4:	0828                	addi	a0,sp,24
    18e6:	3ef000ef          	jal	ra,24d4 <vTaskInternalSetTimeOutState>
    18ea:	b0fff0ef          	jal	ra,13f8 <vPortExitCritical>
    18ee:	2d01                	jal	1efe <vTaskSuspendAll>
    18f0:	af3ff0ef          	jal	ra,13e2 <vPortEnterCritical>
    18f4:	04444783          	lbu	a5,68(s0)
    18f8:	07e2                	slli	a5,a5,0x18
    18fa:	87e1                	srai	a5,a5,0x18
    18fc:	01479463          	bne	a5,s4,1904 <xQueueReceive+0xcc>
    1900:	04040223          	sb	zero,68(s0)
    1904:	04544783          	lbu	a5,69(s0)
    1908:	07e2                	slli	a5,a5,0x18
    190a:	87e1                	srai	a5,a5,0x18
    190c:	01479463          	bne	a5,s4,1914 <xQueueReceive+0xdc>
    1910:	040402a3          	sb	zero,69(s0)
    1914:	ae5ff0ef          	jal	ra,13f8 <vPortExitCritical>
    1918:	006c                	addi	a1,sp,12
    191a:	0828                	addi	a0,sp,24
    191c:	3cf000ef          	jal	ra,24ea <xTaskCheckForTimeOut>
    1920:	e12d                	bnez	a0,1982 <xQueueReceive+0x14a>
    1922:	8522                	mv	a0,s0
    1924:	ba9ff0ef          	jal	ra,14cc <prvIsQueueEmpty>
    1928:	c921                	beqz	a0,1978 <xQueueReceive+0x140>
    192a:	45b2                	lw	a1,12(sp)
    192c:	8556                	mv	a0,s5
    192e:	1fd000ef          	jal	ra,232a <vTaskPlaceOnEventList>
    1932:	8522                	mv	a0,s0
    1934:	31b1                	jal	1580 <prvUnlockQueue>
    1936:	78e000ef          	jal	ra,20c4 <xTaskResumeAll>
    193a:	e119                	bnez	a0,1940 <xQueueReceive+0x108>
    193c:	217b2023          	sw	s7,512(s6) # e000e200 <__freertos_irq_stack_top+0xbfffe200>
    1940:	4905                	li	s2,1
    1942:	aa1ff0ef          	jal	ra,13e2 <vPortEnterCritical>
    1946:	5c04                	lw	s1,56(s0)
    1948:	d4d1                	beqz	s1,18d4 <xQueueReceive+0x9c>
    194a:	85ce                	mv	a1,s3
    194c:	8522                	mv	a0,s0
    194e:	14fd                	addi	s1,s1,-1
    1950:	3121                	jal	1558 <prvCopyDataFromQueue>
    1952:	dc04                	sw	s1,56(s0)
    1954:	481c                	lw	a5,16(s0)
    1956:	cb99                	beqz	a5,196c <xQueueReceive+0x134>
    1958:	01040513          	addi	a0,s0,16
    195c:	28d000ef          	jal	ra,23e8 <xTaskRemoveFromEventList>
    1960:	c511                	beqz	a0,196c <xQueueReceive+0x134>
    1962:	e000e7b7          	lui	a5,0xe000e
    1966:	6711                	lui	a4,0x4
    1968:	20e7a023          	sw	a4,512(a5) # e000e200 <__freertos_irq_stack_top+0xbfffe200>
    196c:	a8dff0ef          	jal	ra,13f8 <vPortExitCritical>
    1970:	4505                	li	a0,1
    1972:	6105                	addi	sp,sp,32
    1974:	bb3fe06f          	j	526 <__riscv_restore_10>
    1978:	8522                	mv	a0,s0
    197a:	3119                	jal	1580 <prvUnlockQueue>
    197c:	748000ef          	jal	ra,20c4 <xTaskResumeAll>
    1980:	b7c1                	j	1940 <xQueueReceive+0x108>
    1982:	8522                	mv	a0,s0
    1984:	bfdff0ef          	jal	ra,1580 <prvUnlockQueue>
    1988:	73c000ef          	jal	ra,20c4 <xTaskResumeAll>
    198c:	8522                	mv	a0,s0
    198e:	b3fff0ef          	jal	ra,14cc <prvIsQueueEmpty>
    1992:	d55d                	beqz	a0,1940 <xQueueReceive+0x108>
    1994:	b7a1                	j	18dc <xQueueReceive+0xa4>

00001996 <vQueueAddToRegistry>:
    1996:	e515                	bnez	a0,19c2 <vQueueAddToRegistry+0x2c>
    1998:	b7ffe2ef          	jal	t0,516 <__riscv_save_0>
    199c:	67a1                	lui	a5,0x8
    199e:	80078793          	addi	a5,a5,-2048 # 7800 <_dtoa_r+0x9fa>
    19a2:	30079073          	csrw	mstatus,a5
    19a6:	0000c637          	lui	a2,0xc
    19aa:	6585                	lui	a1,0x1
    19ac:	0000c537          	lui	a0,0xc
    19b0:	b4860613          	addi	a2,a2,-1208 # bb48 <_sbrk+0x4ba>
    19b4:	ac858593          	addi	a1,a1,-1336 # ac8 <L610_Recive+0xe0>
    19b8:	ae050513          	addi	a0,a0,-1312 # bae0 <_sbrk+0x452>
    19bc:	1ec040ef          	jal	ra,5ba8 <iprintf>
    19c0:	a001                	j	19c0 <vQueueAddToRegistry+0x2a>
    19c2:	cd9d                	beqz	a1,1a00 <vQueueAddToRegistry+0x6a>
    19c4:	20003637          	lui	a2,0x20003
    19c8:	2a860693          	addi	a3,a2,680 # 200032a8 <xQueueRegistry>
    19cc:	4781                	li	a5,0
    19ce:	4701                	li	a4,0
    19d0:	2a860613          	addi	a2,a2,680
    19d4:	4821                	li	a6,8
    19d6:	0046a883          	lw	a7,4(a3)
    19da:	00a89863          	bne	a7,a0,19ea <vQueueAddToRegistry+0x54>
    19de:	00371793          	slli	a5,a4,0x3
    19e2:	97b2                	add	a5,a5,a2
    19e4:	c38c                	sw	a1,0(a5)
    19e6:	c3c8                	sw	a0,4(a5)
    19e8:	a821                	j	1a00 <vQueueAddToRegistry+0x6a>
    19ea:	e791                	bnez	a5,19f6 <vQueueAddToRegistry+0x60>
    19ec:	0006a883          	lw	a7,0(a3)
    19f0:	00089363          	bnez	a7,19f6 <vQueueAddToRegistry+0x60>
    19f4:	87b6                	mv	a5,a3
    19f6:	0705                	addi	a4,a4,1
    19f8:	06a1                	addi	a3,a3,8
    19fa:	fd071ee3          	bne	a4,a6,19d6 <vQueueAddToRegistry+0x40>
    19fe:	f3fd                	bnez	a5,19e4 <vQueueAddToRegistry+0x4e>
    1a00:	8082                	ret

00001a02 <vQueueWaitForMessageRestricted>:
    1a02:	b15fe2ef          	jal	t0,516 <__riscv_save_0>
    1a06:	1141                	addi	sp,sp,-16
    1a08:	842a                	mv	s0,a0
    1a0a:	c62e                	sw	a1,12(sp)
    1a0c:	c432                	sw	a2,8(sp)
    1a0e:	9d5ff0ef          	jal	ra,13e2 <vPortEnterCritical>
    1a12:	04444783          	lbu	a5,68(s0)
    1a16:	577d                	li	a4,-1
    1a18:	4622                	lw	a2,8(sp)
    1a1a:	07e2                	slli	a5,a5,0x18
    1a1c:	87e1                	srai	a5,a5,0x18
    1a1e:	45b2                	lw	a1,12(sp)
    1a20:	00e79463          	bne	a5,a4,1a28 <vQueueWaitForMessageRestricted+0x26>
    1a24:	04040223          	sb	zero,68(s0)
    1a28:	04544783          	lbu	a5,69(s0)
    1a2c:	577d                	li	a4,-1
    1a2e:	07e2                	slli	a5,a5,0x18
    1a30:	87e1                	srai	a5,a5,0x18
    1a32:	00e79463          	bne	a5,a4,1a3a <vQueueWaitForMessageRestricted+0x38>
    1a36:	040402a3          	sb	zero,69(s0)
    1a3a:	c632                	sw	a2,12(sp)
    1a3c:	c42e                	sw	a1,8(sp)
    1a3e:	9bbff0ef          	jal	ra,13f8 <vPortExitCritical>
    1a42:	5c1c                	lw	a5,56(s0)
    1a44:	45a2                	lw	a1,8(sp)
    1a46:	4632                	lw	a2,12(sp)
    1a48:	e789                	bnez	a5,1a52 <vQueueWaitForMessageRestricted+0x50>
    1a4a:	02440513          	addi	a0,s0,36
    1a4e:	125000ef          	jal	ra,2372 <vTaskPlaceOnEventListRestricted>
    1a52:	8522                	mv	a0,s0
    1a54:	b2dff0ef          	jal	ra,1580 <prvUnlockQueue>
    1a58:	0141                	addi	sp,sp,16
    1a5a:	ae1fe06f          	j	53a <__riscv_restore_0>

00001a5e <prvResetNextTaskUnblockTime>:
    1a5e:	20000737          	lui	a4,0x20000
    1a62:	23c70713          	addi	a4,a4,572 # 2000023c <pxDelayedTaskList>
    1a66:	431c                	lw	a5,0(a4)
    1a68:	4394                	lw	a3,0(a5)
    1a6a:	200007b7          	lui	a5,0x20000
    1a6e:	25c78793          	addi	a5,a5,604 # 2000025c <xNextTaskUnblockTime>
    1a72:	e681                	bnez	a3,1a7a <prvResetNextTaskUnblockTime+0x1c>
    1a74:	577d                	li	a4,-1
    1a76:	c398                	sw	a4,0(a5)
    1a78:	8082                	ret
    1a7a:	4318                	lw	a4,0(a4)
    1a7c:	4758                	lw	a4,12(a4)
    1a7e:	4318                	lw	a4,0(a4)
    1a80:	bfdd                	j	1a76 <prvResetNextTaskUnblockTime+0x18>

00001a82 <prvAddCurrentTaskToDelayedList>:
    1a82:	a7bfe2ef          	jal	t0,4fc <__riscv_save_4>
    1a86:	20000937          	lui	s2,0x20000
    1a8a:	200007b7          	lui	a5,0x20000
    1a8e:	23890493          	addi	s1,s2,568 # 20000238 <pxCurrentTCB>
    1a92:	26c7a983          	lw	s3,620(a5) # 2000026c <xTickCount>
    1a96:	842a                	mv	s0,a0
    1a98:	409c                	lw	a5,0(s1)
    1a9a:	4088                	lw	a0,0(s1)
    1a9c:	1141                	addi	sp,sp,-16
    1a9e:	040788a3          	sb	zero,81(a5)
    1aa2:	0511                	addi	a0,a0,4
    1aa4:	c62e                	sw	a1,12(sp)
    1aa6:	a07ff0ef          	jal	ra,14ac <uxListRemove>
    1aaa:	577d                	li	a4,-1
    1aac:	23890793          	addi	a5,s2,568
    1ab0:	45b2                	lw	a1,12(sp)
    1ab2:	02e41c63          	bne	s0,a4,1aea <prvAddCurrentTaskToDelayedList+0x68>
    1ab6:	c995                	beqz	a1,1aea <prvAddCurrentTaskToDelayedList+0x68>
    1ab8:	200037b7          	lui	a5,0x20003
    1abc:	45078793          	addi	a5,a5,1104 # 20003450 <xSuspendedTaskList>
    1ac0:	4094                	lw	a3,0(s1)
    1ac2:	43d8                	lw	a4,4(a5)
    1ac4:	c698                	sw	a4,8(a3)
    1ac6:	4710                	lw	a2,8(a4)
    1ac8:	4094                	lw	a3,0(s1)
    1aca:	c6d0                	sw	a2,12(a3)
    1acc:	4094                	lw	a3,0(s1)
    1ace:	4710                	lw	a2,8(a4)
    1ad0:	0691                	addi	a3,a3,4
    1ad2:	c254                	sw	a3,4(a2)
    1ad4:	4094                	lw	a3,0(s1)
    1ad6:	0691                	addi	a3,a3,4
    1ad8:	c714                	sw	a3,8(a4)
    1ada:	4098                	lw	a4,0(s1)
    1adc:	cb5c                	sw	a5,20(a4)
    1ade:	4398                	lw	a4,0(a5)
    1ae0:	0705                	addi	a4,a4,1
    1ae2:	c398                	sw	a4,0(a5)
    1ae4:	0141                	addi	sp,sp,16
    1ae6:	a4bfe06f          	j	530 <__riscv_restore_4>
    1aea:	4398                	lw	a4,0(a5)
    1aec:	944e                	add	s0,s0,s3
    1aee:	c340                	sw	s0,4(a4)
    1af0:	01347b63          	bgeu	s0,s3,1b06 <prvAddCurrentTaskToDelayedList+0x84>
    1af4:	20000737          	lui	a4,0x20000
    1af8:	24072503          	lw	a0,576(a4) # 20000240 <pxOverflowDelayedTaskList>
    1afc:	438c                	lw	a1,0(a5)
    1afe:	0591                	addi	a1,a1,4
    1b00:	97fff0ef          	jal	ra,147e <vListInsert>
    1b04:	b7c5                	j	1ae4 <prvAddCurrentTaskToDelayedList+0x62>
    1b06:	20000737          	lui	a4,0x20000
    1b0a:	23c72503          	lw	a0,572(a4) # 2000023c <pxDelayedTaskList>
    1b0e:	438c                	lw	a1,0(a5)
    1b10:	0591                	addi	a1,a1,4
    1b12:	96dff0ef          	jal	ra,147e <vListInsert>
    1b16:	200007b7          	lui	a5,0x20000
    1b1a:	25c78793          	addi	a5,a5,604 # 2000025c <xNextTaskUnblockTime>
    1b1e:	4398                	lw	a4,0(a5)
    1b20:	fce472e3          	bgeu	s0,a4,1ae4 <prvAddCurrentTaskToDelayedList+0x62>
    1b24:	c380                	sw	s0,0(a5)
    1b26:	bf7d                	j	1ae4 <prvAddCurrentTaskToDelayedList+0x62>

00001b28 <prvIdleTask>:
    1b28:	9d5fe2ef          	jal	t0,4fc <__riscv_save_4>
    1b2c:	20003437          	lui	s0,0x20003
    1b30:	200009b7          	lui	s3,0x20000
    1b34:	46440413          	addi	s0,s0,1124 # 20003464 <xTasksWaitingTermination>
    1b38:	20000a37          	lui	s4,0x20000
    1b3c:	20003ab7          	lui	s5,0x20003
    1b40:	24898493          	addi	s1,s3,584 # 20000248 <uxDeletedTasksWaitingCleanUp>
    1b44:	409c                	lw	a5,0(s1)
    1b46:	ef89                	bnez	a5,1b60 <prvIdleTask+0x38>
    1b48:	2e8a8793          	addi	a5,s5,744 # 200032e8 <pxReadyTasksLists>
    1b4c:	4398                	lw	a4,0(a5)
    1b4e:	4785                	li	a5,1
    1b50:	fee7f8e3          	bgeu	a5,a4,1b40 <prvIdleTask+0x18>
    1b54:	e000e7b7          	lui	a5,0xe000e
    1b58:	6711                	lui	a4,0x4
    1b5a:	20e7a023          	sw	a4,512(a5) # e000e200 <__freertos_irq_stack_top+0xbfffe200>
    1b5e:	b7cd                	j	1b40 <prvIdleTask+0x18>
    1b60:	883ff0ef          	jal	ra,13e2 <vPortEnterCritical>
    1b64:	445c                	lw	a5,12(s0)
    1b66:	00c7a903          	lw	s2,12(a5)
    1b6a:	00490513          	addi	a0,s2,4
    1b6e:	93fff0ef          	jal	ra,14ac <uxListRemove>
    1b72:	244a0713          	addi	a4,s4,580 # 20000244 <uxCurrentNumberOfTasks>
    1b76:	431c                	lw	a5,0(a4)
    1b78:	17fd                	addi	a5,a5,-1
    1b7a:	c31c                	sw	a5,0(a4)
    1b7c:	409c                	lw	a5,0(s1)
    1b7e:	17fd                	addi	a5,a5,-1
    1b80:	c09c                	sw	a5,0(s1)
    1b82:	877ff0ef          	jal	ra,13f8 <vPortExitCritical>
    1b86:	03092503          	lw	a0,48(s2)
    1b8a:	eeaff0ef          	jal	ra,1274 <vPortFree>
    1b8e:	854a                	mv	a0,s2
    1b90:	ee4ff0ef          	jal	ra,1274 <vPortFree>
    1b94:	b775                	j	1b40 <prvIdleTask+0x18>

00001b96 <xTaskCreate>:
    1b96:	959fe2ef          	jal	t0,4ee <__riscv_save_10>
    1b9a:	00261913          	slli	s2,a2,0x2
    1b9e:	8aaa                	mv	s5,a0
    1ba0:	854a                	mv	a0,s2
    1ba2:	8a2e                	mv	s4,a1
    1ba4:	8b36                	mv	s6,a3
    1ba6:	8bba                	mv	s7,a4
    1ba8:	89be                	mv	s3,a5
    1baa:	d3eff0ef          	jal	ra,10e8 <pvPortMalloc>
    1bae:	c11d                	beqz	a0,1bd4 <xTaskCreate+0x3e>
    1bb0:	84aa                	mv	s1,a0
    1bb2:	05400513          	li	a0,84
    1bb6:	d32ff0ef          	jal	ra,10e8 <pvPortMalloc>
    1bba:	842a                	mv	s0,a0
    1bbc:	c909                	beqz	a0,1bce <xTaskCreate+0x38>
    1bbe:	d904                	sw	s1,48(a0)
    1bc0:	4781                	li	a5,0
    1bc2:	46c1                	li	a3,16
    1bc4:	000a1a63          	bnez	s4,1bd8 <xTaskCreate+0x42>
    1bc8:	02050a23          	sb	zero,52(a0)
    1bcc:	a025                	j	1bf4 <xTaskCreate+0x5e>
    1bce:	8526                	mv	a0,s1
    1bd0:	ea4ff0ef          	jal	ra,1274 <vPortFree>
    1bd4:	557d                	li	a0,-1
    1bd6:	a265                	j	1d7e <xTaskCreate+0x1e8>
    1bd8:	00fa0733          	add	a4,s4,a5
    1bdc:	00070703          	lb	a4,0(a4) # 4000 <LCD_Init+0xa82>
    1be0:	00f40633          	add	a2,s0,a5
    1be4:	02e60a23          	sb	a4,52(a2)
    1be8:	c701                	beqz	a4,1bf0 <xTaskCreate+0x5a>
    1bea:	0785                	addi	a5,a5,1
    1bec:	fed796e3          	bne	a5,a3,1bd8 <xTaskCreate+0x42>
    1bf0:	040401a3          	sb	zero,67(s0)
    1bf4:	47b9                	li	a5,14
    1bf6:	0377f463          	bgeu	a5,s7,1c1e <xTaskCreate+0x88>
    1bfa:	67a1                	lui	a5,0x8
    1bfc:	80078793          	addi	a5,a5,-2048 # 7800 <_dtoa_r+0x9fa>
    1c00:	30079073          	csrw	mstatus,a5
    1c04:	0000c637          	lui	a2,0xc
    1c08:	0000c537          	lui	a0,0xc
    1c0c:	b7860613          	addi	a2,a2,-1160 # bb78 <_sbrk+0x4ea>
    1c10:	39700593          	li	a1,919
    1c14:	ae050513          	addi	a0,a0,-1312 # bae0 <_sbrk+0x452>
    1c18:	791030ef          	jal	ra,5ba8 <iprintf>
    1c1c:	a001                	j	1c1c <xTaskCreate+0x86>
    1c1e:	00440a13          	addi	s4,s0,4
    1c22:	8552                	mv	a0,s4
    1c24:	03742623          	sw	s7,44(s0)
    1c28:	05742223          	sw	s7,68(s0)
    1c2c:	04042423          	sw	zero,72(s0)
    1c30:	831ff0ef          	jal	ra,1460 <vListInitialiseItem>
    1c34:	01840513          	addi	a0,s0,24
    1c38:	829ff0ef          	jal	ra,1460 <vListInitialiseItem>
    1c3c:	473d                	li	a4,15
    1c3e:	ffc90513          	addi	a0,s2,-4
    1c42:	41770733          	sub	a4,a4,s7
    1c46:	9526                	add	a0,a0,s1
    1c48:	c800                	sw	s0,16(s0)
    1c4a:	cc18                	sw	a4,24(s0)
    1c4c:	d040                	sw	s0,36(s0)
    1c4e:	04040623          	sb	zero,76(s0)
    1c52:	040406a3          	sb	zero,77(s0)
    1c56:	04040723          	sb	zero,78(s0)
    1c5a:	040407a3          	sb	zero,79(s0)
    1c5e:	04040823          	sb	zero,80(s0)
    1c62:	040408a3          	sb	zero,81(s0)
    1c66:	865a                	mv	a2,s6
    1c68:	85d6                	mv	a1,s5
    1c6a:	9941                	andi	a0,a0,-16
    1c6c:	f94fe0ef          	jal	ra,400 <pxPortInitialiseStack>
    1c70:	c008                	sw	a0,0(s0)
    1c72:	00098463          	beqz	s3,1c7a <xTaskCreate+0xe4>
    1c76:	0089a023          	sw	s0,0(s3)
    1c7a:	f68ff0ef          	jal	ra,13e2 <vPortEnterCritical>
    1c7e:	200007b7          	lui	a5,0x20000
    1c82:	24478793          	addi	a5,a5,580 # 20000244 <uxCurrentNumberOfTasks>
    1c86:	4398                	lw	a4,0(a5)
    1c88:	200004b7          	lui	s1,0x20000
    1c8c:	200039b7          	lui	s3,0x20003
    1c90:	0705                	addi	a4,a4,1
    1c92:	c398                	sw	a4,0(a5)
    1c94:	23848713          	addi	a4,s1,568 # 20000238 <pxCurrentTCB>
    1c98:	4318                	lw	a4,0(a4)
    1c9a:	23848493          	addi	s1,s1,568
    1c9e:	2e898913          	addi	s2,s3,744 # 200032e8 <pxReadyTasksLists>
    1ca2:	0e071063          	bnez	a4,1d82 <xTaskCreate+0x1ec>
    1ca6:	c080                	sw	s0,0(s1)
    1ca8:	4398                	lw	a4,0(a5)
    1caa:	4785                	li	a5,1
    1cac:	06f71663          	bne	a4,a5,1d18 <xTaskCreate+0x182>
    1cb0:	2e898993          	addi	s3,s3,744
    1cb4:	12c90a93          	addi	s5,s2,300
    1cb8:	854e                	mv	a0,s3
    1cba:	09d1                	addi	s3,s3,20
    1cbc:	f90ff0ef          	jal	ra,144c <vListInitialise>
    1cc0:	ff3a9ce3          	bne	s5,s3,1cb8 <xTaskCreate+0x122>
    1cc4:	20003537          	lui	a0,0x20003
    1cc8:	41450a93          	addi	s5,a0,1044 # 20003414 <xDelayedTaskList1>
    1ccc:	41450513          	addi	a0,a0,1044
    1cd0:	f7cff0ef          	jal	ra,144c <vListInitialise>
    1cd4:	20003537          	lui	a0,0x20003
    1cd8:	42850993          	addi	s3,a0,1064 # 20003428 <xDelayedTaskList2>
    1cdc:	42850513          	addi	a0,a0,1064
    1ce0:	f6cff0ef          	jal	ra,144c <vListInitialise>
    1ce4:	20003537          	lui	a0,0x20003
    1ce8:	43c50513          	addi	a0,a0,1084 # 2000343c <xPendingReadyList>
    1cec:	f60ff0ef          	jal	ra,144c <vListInitialise>
    1cf0:	20003537          	lui	a0,0x20003
    1cf4:	46450513          	addi	a0,a0,1124 # 20003464 <xTasksWaitingTermination>
    1cf8:	f54ff0ef          	jal	ra,144c <vListInitialise>
    1cfc:	20003537          	lui	a0,0x20003
    1d00:	45050513          	addi	a0,a0,1104 # 20003450 <xSuspendedTaskList>
    1d04:	f48ff0ef          	jal	ra,144c <vListInitialise>
    1d08:	200007b7          	lui	a5,0x20000
    1d0c:	2357ae23          	sw	s5,572(a5) # 2000023c <pxDelayedTaskList>
    1d10:	200007b7          	lui	a5,0x20000
    1d14:	2537a023          	sw	s3,576(a5) # 20000240 <pxOverflowDelayedTaskList>
    1d18:	200007b7          	lui	a5,0x20000
    1d1c:	25078793          	addi	a5,a5,592 # 20000250 <uxTaskNumber>
    1d20:	4398                	lw	a4,0(a5)
    1d22:	0705                	addi	a4,a4,1
    1d24:	c398                	sw	a4,0(a5)
    1d26:	20000737          	lui	a4,0x20000
    1d2a:	25470713          	addi	a4,a4,596 # 20000254 <uxTopReadyPriority>
    1d2e:	545c                	lw	a5,44(s0)
    1d30:	4314                	lw	a3,0(a4)
    1d32:	00f6f363          	bgeu	a3,a5,1d38 <xTaskCreate+0x1a2>
    1d36:	c31c                	sw	a5,0(a4)
    1d38:	4751                	li	a4,20
    1d3a:	02e787b3          	mul	a5,a5,a4
    1d3e:	97ca                	add	a5,a5,s2
    1d40:	43d8                	lw	a4,4(a5)
    1d42:	4714                	lw	a3,8(a4)
    1d44:	c418                	sw	a4,8(s0)
    1d46:	c454                	sw	a3,12(s0)
    1d48:	4714                	lw	a3,8(a4)
    1d4a:	0146a223          	sw	s4,4(a3)
    1d4e:	01472423          	sw	s4,8(a4)
    1d52:	4398                	lw	a4,0(a5)
    1d54:	c85c                	sw	a5,20(s0)
    1d56:	0705                	addi	a4,a4,1
    1d58:	c398                	sw	a4,0(a5)
    1d5a:	e9eff0ef          	jal	ra,13f8 <vPortExitCritical>
    1d5e:	200007b7          	lui	a5,0x20000
    1d62:	2687a783          	lw	a5,616(a5) # 20000268 <xSchedulerRunning>
    1d66:	4505                	li	a0,1
    1d68:	cb99                	beqz	a5,1d7e <xTaskCreate+0x1e8>
    1d6a:	409c                	lw	a5,0(s1)
    1d6c:	57d8                	lw	a4,44(a5)
    1d6e:	545c                	lw	a5,44(s0)
    1d70:	00f77763          	bgeu	a4,a5,1d7e <xTaskCreate+0x1e8>
    1d74:	e000e7b7          	lui	a5,0xe000e
    1d78:	6711                	lui	a4,0x4
    1d7a:	20e7a023          	sw	a4,512(a5) # e000e200 <__freertos_irq_stack_top+0xbfffe200>
    1d7e:	fa8fe06f          	j	526 <__riscv_restore_10>
    1d82:	200007b7          	lui	a5,0x20000
    1d86:	2687a783          	lw	a5,616(a5) # 20000268 <xSchedulerRunning>
    1d8a:	f7d9                	bnez	a5,1d18 <xTaskCreate+0x182>
    1d8c:	409c                	lw	a5,0(s1)
    1d8e:	57d8                	lw	a4,44(a5)
    1d90:	545c                	lw	a5,44(s0)
    1d92:	f8e7e3e3          	bltu	a5,a4,1d18 <xTaskCreate+0x182>
    1d96:	c080                	sw	s0,0(s1)
    1d98:	b741                	j	1d18 <xTaskCreate+0x182>

00001d9a <vTaskDelete>:
    1d9a:	f7cfe2ef          	jal	t0,516 <__riscv_save_0>
    1d9e:	842a                	mv	s0,a0
    1da0:	200004b7          	lui	s1,0x20000
    1da4:	e3eff0ef          	jal	ra,13e2 <vPortEnterCritical>
    1da8:	23848493          	addi	s1,s1,568 # 20000238 <pxCurrentTCB>
    1dac:	e011                	bnez	s0,1db0 <vTaskDelete+0x16>
    1dae:	4080                	lw	s0,0(s1)
    1db0:	00440913          	addi	s2,s0,4
    1db4:	854a                	mv	a0,s2
    1db6:	ef6ff0ef          	jal	ra,14ac <uxListRemove>
    1dba:	541c                	lw	a5,40(s0)
    1dbc:	c789                	beqz	a5,1dc6 <vTaskDelete+0x2c>
    1dbe:	01840513          	addi	a0,s0,24
    1dc2:	eeaff0ef          	jal	ra,14ac <uxListRemove>
    1dc6:	200007b7          	lui	a5,0x20000
    1dca:	25078793          	addi	a5,a5,592 # 20000250 <uxTaskNumber>
    1dce:	4398                	lw	a4,0(a5)
    1dd0:	0705                	addi	a4,a4,1
    1dd2:	c398                	sw	a4,0(a5)
    1dd4:	409c                	lw	a5,0(s1)
    1dd6:	06879a63          	bne	a5,s0,1e4a <vTaskDelete+0xb0>
    1dda:	20003537          	lui	a0,0x20003
    1dde:	85ca                	mv	a1,s2
    1de0:	46450513          	addi	a0,a0,1124 # 20003464 <xTasksWaitingTermination>
    1de4:	e82ff0ef          	jal	ra,1466 <vListInsertEnd>
    1de8:	200007b7          	lui	a5,0x20000
    1dec:	24878793          	addi	a5,a5,584 # 20000248 <uxDeletedTasksWaitingCleanUp>
    1df0:	4398                	lw	a4,0(a5)
    1df2:	0705                	addi	a4,a4,1
    1df4:	c398                	sw	a4,0(a5)
    1df6:	e02ff0ef          	jal	ra,13f8 <vPortExitCritical>
    1dfa:	409c                	lw	a5,0(s1)
    1dfc:	00878863          	beq	a5,s0,1e0c <vTaskDelete+0x72>
    1e00:	5808                	lw	a0,48(s0)
    1e02:	c72ff0ef          	jal	ra,1274 <vPortFree>
    1e06:	8522                	mv	a0,s0
    1e08:	c6cff0ef          	jal	ra,1274 <vPortFree>
    1e0c:	200007b7          	lui	a5,0x20000
    1e10:	2687a783          	lw	a5,616(a5) # 20000268 <xSchedulerRunning>
    1e14:	cbb1                	beqz	a5,1e68 <vTaskDelete+0xce>
    1e16:	409c                	lw	a5,0(s1)
    1e18:	04879863          	bne	a5,s0,1e68 <vTaskDelete+0xce>
    1e1c:	200007b7          	lui	a5,0x20000
    1e20:	24c7a783          	lw	a5,588(a5) # 2000024c <uxSchedulerSuspended>
    1e24:	cf8d                	beqz	a5,1e5e <vTaskDelete+0xc4>
    1e26:	67a1                	lui	a5,0x8
    1e28:	80078793          	addi	a5,a5,-2048 # 7800 <_dtoa_r+0x9fa>
    1e2c:	30079073          	csrw	mstatus,a5
    1e30:	0000c637          	lui	a2,0xc
    1e34:	0000c537          	lui	a0,0xc
    1e38:	b7860613          	addi	a2,a2,-1160 # bb78 <_sbrk+0x4ea>
    1e3c:	4dc00593          	li	a1,1244
    1e40:	ae050513          	addi	a0,a0,-1312 # bae0 <_sbrk+0x452>
    1e44:	565030ef          	jal	ra,5ba8 <iprintf>
    1e48:	a001                	j	1e48 <vTaskDelete+0xae>
    1e4a:	200007b7          	lui	a5,0x20000
    1e4e:	24478793          	addi	a5,a5,580 # 20000244 <uxCurrentNumberOfTasks>
    1e52:	4398                	lw	a4,0(a5)
    1e54:	177d                	addi	a4,a4,-1
    1e56:	c398                	sw	a4,0(a5)
    1e58:	c07ff0ef          	jal	ra,1a5e <prvResetNextTaskUnblockTime>
    1e5c:	bf69                	j	1df6 <vTaskDelete+0x5c>
    1e5e:	e000e7b7          	lui	a5,0xe000e
    1e62:	6711                	lui	a4,0x4
    1e64:	20e7a023          	sw	a4,512(a5) # e000e200 <__freertos_irq_stack_top+0xbfffe200>
    1e68:	ed2fe06f          	j	53a <__riscv_restore_0>

00001e6c <vTaskStartScheduler>:
    1e6c:	eaafe2ef          	jal	t0,516 <__riscv_save_0>
    1e70:	200007b7          	lui	a5,0x20000
    1e74:	0000c5b7          	lui	a1,0xc
    1e78:	00002537          	lui	a0,0x2
    1e7c:	25878793          	addi	a5,a5,600 # 20000258 <xIdleTaskHandle>
    1e80:	4701                	li	a4,0
    1e82:	4681                	li	a3,0
    1e84:	08000613          	li	a2,128
    1e88:	ba858593          	addi	a1,a1,-1112 # bba8 <_sbrk+0x51a>
    1e8c:	b2850513          	addi	a0,a0,-1240 # 1b28 <prvIdleTask>
    1e90:	d07ff0ef          	jal	ra,1b96 <xTaskCreate>
    1e94:	4405                	li	s0,1
    1e96:	02851e63          	bne	a0,s0,1ed2 <vTaskStartScheduler+0x66>
    1e9a:	2e3000ef          	jal	ra,297c <xTimerCreateTimerTask>
    1e9e:	02851a63          	bne	a0,s0,1ed2 <vTaskStartScheduler+0x66>
    1ea2:	67a1                	lui	a5,0x8
    1ea4:	80078793          	addi	a5,a5,-2048 # 7800 <_dtoa_r+0x9fa>
    1ea8:	30079073          	csrw	mstatus,a5
    1eac:	200007b7          	lui	a5,0x20000
    1eb0:	577d                	li	a4,-1
    1eb2:	24e7ae23          	sw	a4,604(a5) # 2000025c <xNextTaskUnblockTime>
    1eb6:	200007b7          	lui	a5,0x20000
    1eba:	26a7a423          	sw	a0,616(a5) # 20000268 <xSchedulerRunning>
    1ebe:	200007b7          	lui	a5,0x20000
    1ec2:	2607a623          	sw	zero,620(a5) # 2000026c <xTickCount>
    1ec6:	c56ff0ef          	jal	ra,131c <xPortStartScheduler>
    1eca:	8081a783          	lw	a5,-2040(gp) # 200001e8 <uxTopUsedPriority>
    1ece:	e6cfe06f          	j	53a <__riscv_restore_0>
    1ed2:	57fd                	li	a5,-1
    1ed4:	fef51be3          	bne	a0,a5,1eca <vTaskStartScheduler+0x5e>
    1ed8:	67a1                	lui	a5,0x8
    1eda:	80078793          	addi	a5,a5,-2048 # 7800 <_dtoa_r+0x9fa>
    1ede:	30079073          	csrw	mstatus,a5
    1ee2:	0000c637          	lui	a2,0xc
    1ee6:	6585                	lui	a1,0x1
    1ee8:	0000c537          	lui	a0,0xc
    1eec:	b7860613          	addi	a2,a2,-1160 # bb78 <_sbrk+0x4ea>
    1ef0:	84058593          	addi	a1,a1,-1984 # 840 <__stack_size+0x40>
    1ef4:	ae050513          	addi	a0,a0,-1312 # bae0 <_sbrk+0x452>
    1ef8:	4b1030ef          	jal	ra,5ba8 <iprintf>
    1efc:	a001                	j	1efc <vTaskStartScheduler+0x90>

00001efe <vTaskSuspendAll>:
    1efe:	200007b7          	lui	a5,0x20000
    1f02:	24c78793          	addi	a5,a5,588 # 2000024c <uxSchedulerSuspended>
    1f06:	4398                	lw	a4,0(a5)
    1f08:	0705                	addi	a4,a4,1
    1f0a:	c398                	sw	a4,0(a5)
    1f0c:	8082                	ret

00001f0e <xTaskGetTickCount>:
    1f0e:	200007b7          	lui	a5,0x20000
    1f12:	26c7a503          	lw	a0,620(a5) # 2000026c <xTickCount>
    1f16:	8082                	ret

00001f18 <xTaskIncrementTick>:
    1f18:	200007b7          	lui	a5,0x20000
    1f1c:	24c7a783          	lw	a5,588(a5) # 2000024c <uxSchedulerSuspended>
    1f20:	18079963          	bnez	a5,20b2 <xTaskIncrementTick+0x19a>
    1f24:	df2fe2ef          	jal	t0,516 <__riscv_save_0>
    1f28:	200007b7          	lui	a5,0x20000
    1f2c:	26c78793          	addi	a5,a5,620 # 2000026c <xTickCount>
    1f30:	4380                	lw	s0,0(a5)
    1f32:	0405                	addi	s0,s0,1
    1f34:	c380                	sw	s0,0(a5)
    1f36:	ec21                	bnez	s0,1f8e <xTaskIncrementTick+0x76>
    1f38:	200007b7          	lui	a5,0x20000
    1f3c:	23c78793          	addi	a5,a5,572 # 2000023c <pxDelayedTaskList>
    1f40:	4398                	lw	a4,0(a5)
    1f42:	4318                	lw	a4,0(a4)
    1f44:	c705                	beqz	a4,1f6c <xTaskIncrementTick+0x54>
    1f46:	67a1                	lui	a5,0x8
    1f48:	80078793          	addi	a5,a5,-2048 # 7800 <_dtoa_r+0x9fa>
    1f4c:	30079073          	csrw	mstatus,a5
    1f50:	0000c637          	lui	a2,0xc
    1f54:	6585                	lui	a1,0x1
    1f56:	0000c537          	lui	a0,0xc
    1f5a:	b7860613          	addi	a2,a2,-1160 # bb78 <_sbrk+0x4ea>
    1f5e:	ac758593          	addi	a1,a1,-1337 # ac7 <L610_Recive+0xdf>
    1f62:	ae050513          	addi	a0,a0,-1312 # bae0 <_sbrk+0x452>
    1f66:	443030ef          	jal	ra,5ba8 <iprintf>
    1f6a:	a001                	j	1f6a <xTaskIncrementTick+0x52>
    1f6c:	20000737          	lui	a4,0x20000
    1f70:	24070713          	addi	a4,a4,576 # 20000240 <pxOverflowDelayedTaskList>
    1f74:	4394                	lw	a3,0(a5)
    1f76:	4310                	lw	a2,0(a4)
    1f78:	c390                	sw	a2,0(a5)
    1f7a:	200007b7          	lui	a5,0x20000
    1f7e:	c314                	sw	a3,0(a4)
    1f80:	26078793          	addi	a5,a5,608 # 20000260 <xNumOfOverflows>
    1f84:	4398                	lw	a4,0(a5)
    1f86:	0705                	addi	a4,a4,1
    1f88:	c398                	sw	a4,0(a5)
    1f8a:	ad5ff0ef          	jal	ra,1a5e <prvResetNextTaskUnblockTime>
    1f8e:	20000637          	lui	a2,0x20000
    1f92:	25c60793          	addi	a5,a2,604 # 2000025c <xNextTaskUnblockTime>
    1f96:	439c                	lw	a5,0(a5)
    1f98:	20003737          	lui	a4,0x20003
    1f9c:	200005b7          	lui	a1,0x20000
    1fa0:	25c60613          	addi	a2,a2,604
    1fa4:	2e870713          	addi	a4,a4,744 # 200032e8 <pxReadyTasksLists>
    1fa8:	23858593          	addi	a1,a1,568 # 20000238 <pxCurrentTCB>
    1fac:	4501                	li	a0,0
    1fae:	02f47563          	bgeu	s0,a5,1fd8 <xTaskIncrementTick+0xc0>
    1fb2:	419c                	lw	a5,0(a1)
    1fb4:	46d1                	li	a3,20
    1fb6:	57dc                	lw	a5,44(a5)
    1fb8:	02d787b3          	mul	a5,a5,a3
    1fbc:	973e                	add	a4,a4,a5
    1fbe:	4318                	lw	a4,0(a4)
    1fc0:	4785                	li	a5,1
    1fc2:	00e7f363          	bgeu	a5,a4,1fc8 <xTaskIncrementTick+0xb0>
    1fc6:	4505                	li	a0,1
    1fc8:	200007b7          	lui	a5,0x20000
    1fcc:	2707a783          	lw	a5,624(a5) # 20000270 <xYieldPending>
    1fd0:	c391                	beqz	a5,1fd4 <xTaskIncrementTick+0xbc>
    1fd2:	4505                	li	a0,1
    1fd4:	d66fe06f          	j	53a <__riscv_restore_0>
    1fd8:	20000e37          	lui	t3,0x20000
    1fdc:	20000eb7          	lui	t4,0x20000
    1fe0:	4f51                	li	t5,20
    1fe2:	23ce0793          	addi	a5,t3,572 # 2000023c <pxDelayedTaskList>
    1fe6:	4394                	lw	a3,0(a5)
    1fe8:	4294                	lw	a3,0(a3)
    1fea:	e681                	bnez	a3,1ff2 <xTaskIncrementTick+0xda>
    1fec:	57fd                	li	a5,-1
    1fee:	c21c                	sw	a5,0(a2)
    1ff0:	b7c9                	j	1fb2 <xTaskIncrementTick+0x9a>
    1ff2:	439c                	lw	a5,0(a5)
    1ff4:	47dc                	lw	a5,12(a5)
    1ff6:	47dc                	lw	a5,12(a5)
    1ff8:	43d4                	lw	a3,4(a5)
    1ffa:	00d47463          	bgeu	s0,a3,2002 <xTaskIncrementTick+0xea>
    1ffe:	c214                	sw	a3,0(a2)
    2000:	bf4d                	j	1fb2 <xTaskIncrementTick+0x9a>
    2002:	0087a883          	lw	a7,8(a5)
    2006:	00c7a803          	lw	a6,12(a5)
    200a:	4bd4                	lw	a3,20(a5)
    200c:	00478313          	addi	t1,a5,4
    2010:	0108a423          	sw	a6,8(a7)
    2014:	01182223          	sw	a7,4(a6)
    2018:	0046a883          	lw	a7,4(a3)
    201c:	00689463          	bne	a7,t1,2024 <xTaskIncrementTick+0x10c>
    2020:	0106a223          	sw	a6,4(a3)
    2024:	0006a803          	lw	a6,0(a3)
    2028:	0007aa23          	sw	zero,20(a5)
    202c:	187d                	addi	a6,a6,-1
    202e:	0106a023          	sw	a6,0(a3)
    2032:	5794                	lw	a3,40(a5)
    2034:	ca95                	beqz	a3,2068 <xTaskIncrementTick+0x150>
    2036:	01c7a803          	lw	a6,28(a5)
    203a:	0207a883          	lw	a7,32(a5)
    203e:	0046af83          	lw	t6,4(a3)
    2042:	01182423          	sw	a7,8(a6)
    2046:	0207a883          	lw	a7,32(a5)
    204a:	0108a223          	sw	a6,4(a7)
    204e:	01878813          	addi	a6,a5,24
    2052:	010f9463          	bne	t6,a6,205a <xTaskIncrementTick+0x142>
    2056:	0116a223          	sw	a7,4(a3)
    205a:	0006a803          	lw	a6,0(a3)
    205e:	0207a423          	sw	zero,40(a5)
    2062:	187d                	addi	a6,a6,-1
    2064:	0106a023          	sw	a6,0(a3)
    2068:	254e8693          	addi	a3,t4,596 # 20000254 <uxTopReadyPriority>
    206c:	02c7a803          	lw	a6,44(a5)
    2070:	0006a883          	lw	a7,0(a3)
    2074:	0108f463          	bgeu	a7,a6,207c <xTaskIncrementTick+0x164>
    2078:	0106a023          	sw	a6,0(a3)
    207c:	03e806b3          	mul	a3,a6,t5
    2080:	96ba                	add	a3,a3,a4
    2082:	0046a883          	lw	a7,4(a3)
    2086:	0088af83          	lw	t6,8(a7)
    208a:	0117a423          	sw	a7,8(a5)
    208e:	01f7a623          	sw	t6,12(a5)
    2092:	0088af83          	lw	t6,8(a7)
    2096:	006fa223          	sw	t1,4(t6)
    209a:	0068a423          	sw	t1,8(a7)
    209e:	cbd4                	sw	a3,20(a5)
    20a0:	429c                	lw	a5,0(a3)
    20a2:	0785                	addi	a5,a5,1
    20a4:	c29c                	sw	a5,0(a3)
    20a6:	419c                	lw	a5,0(a1)
    20a8:	57dc                	lw	a5,44(a5)
    20aa:	f2f86ce3          	bltu	a6,a5,1fe2 <xTaskIncrementTick+0xca>
    20ae:	4505                	li	a0,1
    20b0:	bf0d                	j	1fe2 <xTaskIncrementTick+0xca>
    20b2:	200007b7          	lui	a5,0x20000
    20b6:	26478793          	addi	a5,a5,612 # 20000264 <xPendedTicks>
    20ba:	4398                	lw	a4,0(a5)
    20bc:	4501                	li	a0,0
    20be:	0705                	addi	a4,a4,1
    20c0:	c398                	sw	a4,0(a5)
    20c2:	8082                	ret

000020c4 <xTaskResumeAll>:
    20c4:	c38fe2ef          	jal	t0,4fc <__riscv_save_4>
    20c8:	20000437          	lui	s0,0x20000
    20cc:	24c40413          	addi	s0,s0,588 # 2000024c <uxSchedulerSuspended>
    20d0:	401c                	lw	a5,0(s0)
    20d2:	1141                	addi	sp,sp,-16
    20d4:	e785                	bnez	a5,20fc <xTaskResumeAll+0x38>
    20d6:	67a1                	lui	a5,0x8
    20d8:	80078793          	addi	a5,a5,-2048 # 7800 <_dtoa_r+0x9fa>
    20dc:	30079073          	csrw	mstatus,a5
    20e0:	0000c637          	lui	a2,0xc
    20e4:	6585                	lui	a1,0x1
    20e6:	0000c537          	lui	a0,0xc
    20ea:	b7860613          	addi	a2,a2,-1160 # bb78 <_sbrk+0x4ea>
    20ee:	8b358593          	addi	a1,a1,-1869 # 8b3 <__stack_size+0xb3>
    20f2:	ae050513          	addi	a0,a0,-1312 # bae0 <_sbrk+0x452>
    20f6:	2b3030ef          	jal	ra,5ba8 <iprintf>
    20fa:	a001                	j	20fa <xTaskResumeAll+0x36>
    20fc:	ae6ff0ef          	jal	ra,13e2 <vPortEnterCritical>
    2100:	401c                	lw	a5,0(s0)
    2102:	17fd                	addi	a5,a5,-1
    2104:	c01c                	sw	a5,0(s0)
    2106:	401c                	lw	a5,0(s0)
    2108:	cb89                	beqz	a5,211a <xTaskResumeAll+0x56>
    210a:	4501                	li	a0,0
    210c:	c62a                	sw	a0,12(sp)
    210e:	aeaff0ef          	jal	ra,13f8 <vPortExitCritical>
    2112:	4532                	lw	a0,12(sp)
    2114:	0141                	addi	sp,sp,16
    2116:	c1afe06f          	j	530 <__riscv_restore_4>
    211a:	200007b7          	lui	a5,0x20000
    211e:	2447a783          	lw	a5,580(a5) # 20000244 <uxCurrentNumberOfTasks>
    2122:	d7e5                	beqz	a5,210a <xTaskResumeAll+0x46>
    2124:	200036b7          	lui	a3,0x20003
    2128:	20003537          	lui	a0,0x20003
    212c:	4781                	li	a5,0
    212e:	43c68693          	addi	a3,a3,1084 # 2000343c <xPendingReadyList>
    2132:	20000f37          	lui	t5,0x20000
    2136:	2e850513          	addi	a0,a0,744 # 200032e8 <pxReadyTasksLists>
    213a:	48d1                	li	a7,20
    213c:	20000337          	lui	t1,0x20000
    2140:	20000e37          	lui	t3,0x20000
    2144:	4e85                	li	t4,1
    2146:	a859                	j	21dc <xTaskResumeAll+0x118>
    2148:	46dc                	lw	a5,12(a3)
    214a:	47dc                	lw	a5,12(a5)
    214c:	4fcc                	lw	a1,28(a5)
    214e:	5390                	lw	a2,32(a5)
    2150:	5798                	lw	a4,40(a5)
    2152:	c590                	sw	a2,8(a1)
    2154:	0207a803          	lw	a6,32(a5)
    2158:	00b82223          	sw	a1,4(a6)
    215c:	00472803          	lw	a6,4(a4)
    2160:	01878593          	addi	a1,a5,24
    2164:	00b81363          	bne	a6,a1,216a <xTaskResumeAll+0xa6>
    2168:	c350                	sw	a2,4(a4)
    216a:	4310                	lw	a2,0(a4)
    216c:	0207a423          	sw	zero,40(a5)
    2170:	167d                	addi	a2,a2,-1
    2172:	c310                	sw	a2,0(a4)
    2174:	478c                	lw	a1,8(a5)
    2176:	47d0                	lw	a2,12(a5)
    2178:	4bd8                	lw	a4,20(a5)
    217a:	00478813          	addi	a6,a5,4
    217e:	c590                	sw	a2,8(a1)
    2180:	c24c                	sw	a1,4(a2)
    2182:	434c                	lw	a1,4(a4)
    2184:	01059363          	bne	a1,a6,218a <xTaskResumeAll+0xc6>
    2188:	c350                	sw	a2,4(a4)
    218a:	4310                	lw	a2,0(a4)
    218c:	0007aa23          	sw	zero,20(a5)
    2190:	167d                	addi	a2,a2,-1
    2192:	c310                	sw	a2,0(a4)
    2194:	254f0713          	addi	a4,t5,596 # 20000254 <uxTopReadyPriority>
    2198:	57d0                	lw	a2,44(a5)
    219a:	430c                	lw	a1,0(a4)
    219c:	00c5f363          	bgeu	a1,a2,21a2 <xTaskResumeAll+0xde>
    21a0:	c310                	sw	a2,0(a4)
    21a2:	03160733          	mul	a4,a2,a7
    21a6:	972a                	add	a4,a4,a0
    21a8:	434c                	lw	a1,4(a4)
    21aa:	0085af83          	lw	t6,8(a1)
    21ae:	c78c                	sw	a1,8(a5)
    21b0:	01f7a623          	sw	t6,12(a5)
    21b4:	0085af83          	lw	t6,8(a1)
    21b8:	010fa223          	sw	a6,4(t6)
    21bc:	0105a423          	sw	a6,8(a1)
    21c0:	430c                	lw	a1,0(a4)
    21c2:	cbd8                	sw	a4,20(a5)
    21c4:	0585                	addi	a1,a1,1
    21c6:	c30c                	sw	a1,0(a4)
    21c8:	23830713          	addi	a4,t1,568 # 20000238 <pxCurrentTCB>
    21cc:	4318                	lw	a4,0(a4)
    21ce:	5758                	lw	a4,44(a4)
    21d0:	00e66663          	bltu	a2,a4,21dc <xTaskResumeAll+0x118>
    21d4:	270e0713          	addi	a4,t3,624 # 20000270 <xYieldPending>
    21d8:	01d72023          	sw	t4,0(a4)
    21dc:	4298                	lw	a4,0(a3)
    21de:	f72d                	bnez	a4,2148 <xTaskResumeAll+0x84>
    21e0:	c399                	beqz	a5,21e6 <xTaskResumeAll+0x122>
    21e2:	87dff0ef          	jal	ra,1a5e <prvResetNextTaskUnblockTime>
    21e6:	200007b7          	lui	a5,0x20000
    21ea:	26478713          	addi	a4,a5,612 # 20000264 <xPendedTicks>
    21ee:	4304                	lw	s1,0(a4)
    21f0:	26478413          	addi	s0,a5,612
    21f4:	cc99                	beqz	s1,2212 <xTaskResumeAll+0x14e>
    21f6:	20000937          	lui	s2,0x20000
    21fa:	4985                	li	s3,1
    21fc:	d1dff0ef          	jal	ra,1f18 <xTaskIncrementTick>
    2200:	c509                	beqz	a0,220a <xTaskResumeAll+0x146>
    2202:	27090793          	addi	a5,s2,624 # 20000270 <xYieldPending>
    2206:	0137a023          	sw	s3,0(a5)
    220a:	14fd                	addi	s1,s1,-1
    220c:	f8e5                	bnez	s1,21fc <xTaskResumeAll+0x138>
    220e:	00042023          	sw	zero,0(s0)
    2212:	200007b7          	lui	a5,0x20000
    2216:	2707a783          	lw	a5,624(a5) # 20000270 <xYieldPending>
    221a:	ee0788e3          	beqz	a5,210a <xTaskResumeAll+0x46>
    221e:	e000e7b7          	lui	a5,0xe000e
    2222:	6711                	lui	a4,0x4
    2224:	20e7a023          	sw	a4,512(a5) # e000e200 <__freertos_irq_stack_top+0xbfffe200>
    2228:	4505                	li	a0,1
    222a:	b5cd                	j	210c <xTaskResumeAll+0x48>

0000222c <vTaskDelay>:
    222c:	e519                	bnez	a0,223a <vTaskDelay+0xe>
    222e:	e000e7b7          	lui	a5,0xe000e
    2232:	6711                	lui	a4,0x4
    2234:	20e7a023          	sw	a4,512(a5) # e000e200 <__freertos_irq_stack_top+0xbfffe200>
    2238:	8082                	ret
    223a:	adcfe2ef          	jal	t0,516 <__riscv_save_0>
    223e:	200007b7          	lui	a5,0x20000
    2242:	24c7a783          	lw	a5,588(a5) # 2000024c <uxSchedulerSuspended>
    2246:	1141                	addi	sp,sp,-16
    2248:	c39d                	beqz	a5,226e <vTaskDelay+0x42>
    224a:	67a1                	lui	a5,0x8
    224c:	80078793          	addi	a5,a5,-2048 # 7800 <_dtoa_r+0x9fa>
    2250:	30079073          	csrw	mstatus,a5
    2254:	0000c637          	lui	a2,0xc
    2258:	0000c537          	lui	a0,0xc
    225c:	b7860613          	addi	a2,a2,-1160 # bb78 <_sbrk+0x4ea>
    2260:	54900593          	li	a1,1353
    2264:	ae050513          	addi	a0,a0,-1312 # bae0 <_sbrk+0x452>
    2268:	141030ef          	jal	ra,5ba8 <iprintf>
    226c:	a001                	j	226c <vTaskDelay+0x40>
    226e:	c62a                	sw	a0,12(sp)
    2270:	c8fff0ef          	jal	ra,1efe <vTaskSuspendAll>
    2274:	4532                	lw	a0,12(sp)
    2276:	4581                	li	a1,0
    2278:	80bff0ef          	jal	ra,1a82 <prvAddCurrentTaskToDelayedList>
    227c:	35a1                	jal	20c4 <xTaskResumeAll>
    227e:	e511                	bnez	a0,228a <vTaskDelay+0x5e>
    2280:	e000e7b7          	lui	a5,0xe000e
    2284:	6711                	lui	a4,0x4
    2286:	20e7a023          	sw	a4,512(a5) # e000e200 <__freertos_irq_stack_top+0xbfffe200>
    228a:	0141                	addi	sp,sp,16
    228c:	aaefe06f          	j	53a <__riscv_restore_0>

00002290 <vTaskSwitchContext>:
    2290:	200007b7          	lui	a5,0x20000
    2294:	24c7a703          	lw	a4,588(a5) # 2000024c <uxSchedulerSuspended>
    2298:	200007b7          	lui	a5,0x20000
    229c:	27078793          	addi	a5,a5,624 # 20000270 <xYieldPending>
    22a0:	c701                	beqz	a4,22a8 <vTaskSwitchContext+0x18>
    22a2:	4705                	li	a4,1
    22a4:	c398                	sw	a4,0(a5)
    22a6:	8082                	ret
    22a8:	0007a023          	sw	zero,0(a5)
    22ac:	200007b7          	lui	a5,0x20000
    22b0:	25478713          	addi	a4,a5,596 # 20000254 <uxTopReadyPriority>
    22b4:	4318                	lw	a4,0(a4)
    22b6:	25478613          	addi	a2,a5,596
    22ba:	200037b7          	lui	a5,0x20003
    22be:	2e878793          	addi	a5,a5,744 # 200032e8 <pxReadyTasksLists>
    22c2:	4851                	li	a6,20
    22c4:	030706b3          	mul	a3,a4,a6
    22c8:	00d785b3          	add	a1,a5,a3
    22cc:	4188                	lw	a0,0(a1)
    22ce:	c515                	beqz	a0,22fa <vTaskSwitchContext+0x6a>
    22d0:	41c8                	lw	a0,4(a1)
    22d2:	06a1                	addi	a3,a3,8
    22d4:	96be                	add	a3,a3,a5
    22d6:	4148                	lw	a0,4(a0)
    22d8:	c1c8                	sw	a0,4(a1)
    22da:	00d51463          	bne	a0,a3,22e2 <vTaskSwitchContext+0x52>
    22de:	4154                	lw	a3,4(a0)
    22e0:	c1d4                	sw	a3,4(a1)
    22e2:	46d1                	li	a3,20
    22e4:	02d706b3          	mul	a3,a4,a3
    22e8:	97b6                	add	a5,a5,a3
    22ea:	43dc                	lw	a5,4(a5)
    22ec:	47d4                	lw	a3,12(a5)
    22ee:	200007b7          	lui	a5,0x20000
    22f2:	22d7ac23          	sw	a3,568(a5) # 20000238 <pxCurrentTCB>
    22f6:	c218                	sw	a4,0(a2)
    22f8:	8082                	ret
    22fa:	e715                	bnez	a4,2326 <vTaskSwitchContext+0x96>
    22fc:	a1afe2ef          	jal	t0,516 <__riscv_save_0>
    2300:	67a1                	lui	a5,0x8
    2302:	80078793          	addi	a5,a5,-2048 # 7800 <_dtoa_r+0x9fa>
    2306:	30079073          	csrw	mstatus,a5
    230a:	0000c637          	lui	a2,0xc
    230e:	6585                	lui	a1,0x1
    2310:	0000c537          	lui	a0,0xc
    2314:	b7860613          	addi	a2,a2,-1160 # bb78 <_sbrk+0x4ea>
    2318:	c0258593          	addi	a1,a1,-1022 # c02 <start_task+0x5a>
    231c:	ae050513          	addi	a0,a0,-1312 # bae0 <_sbrk+0x452>
    2320:	089030ef          	jal	ra,5ba8 <iprintf>
    2324:	a001                	j	2324 <vTaskSwitchContext+0x94>
    2326:	177d                	addi	a4,a4,-1
    2328:	bf71                	j	22c4 <vTaskSwitchContext+0x34>

0000232a <vTaskPlaceOnEventList>:
    232a:	9ecfe2ef          	jal	t0,516 <__riscv_save_0>
    232e:	e505                	bnez	a0,2356 <vTaskPlaceOnEventList+0x2c>
    2330:	67a1                	lui	a5,0x8
    2332:	80078793          	addi	a5,a5,-2048 # 7800 <_dtoa_r+0x9fa>
    2336:	30079073          	csrw	mstatus,a5
    233a:	0000c637          	lui	a2,0xc
    233e:	6585                	lui	a1,0x1
    2340:	0000c537          	lui	a0,0xc
    2344:	b7860613          	addi	a2,a2,-1160 # bb78 <_sbrk+0x4ea>
    2348:	c1c58593          	addi	a1,a1,-996 # c1c <start_task+0x74>
    234c:	ae050513          	addi	a0,a0,-1312 # bae0 <_sbrk+0x452>
    2350:	059030ef          	jal	ra,5ba8 <iprintf>
    2354:	a001                	j	2354 <vTaskPlaceOnEventList+0x2a>
    2356:	200007b7          	lui	a5,0x20000
    235a:	842e                	mv	s0,a1
    235c:	2387a583          	lw	a1,568(a5) # 20000238 <pxCurrentTCB>
    2360:	05e1                	addi	a1,a1,24
    2362:	91cff0ef          	jal	ra,147e <vListInsert>
    2366:	4585                	li	a1,1
    2368:	8522                	mv	a0,s0
    236a:	f18ff0ef          	jal	ra,1a82 <prvAddCurrentTaskToDelayedList>
    236e:	9ccfe06f          	j	53a <__riscv_restore_0>

00002372 <vTaskPlaceOnEventListRestricted>:
    2372:	9a4fe2ef          	jal	t0,516 <__riscv_save_0>
    2376:	872a                	mv	a4,a0
    2378:	e505                	bnez	a0,23a0 <vTaskPlaceOnEventListRestricted+0x2e>
    237a:	67a1                	lui	a5,0x8
    237c:	80078793          	addi	a5,a5,-2048 # 7800 <_dtoa_r+0x9fa>
    2380:	30079073          	csrw	mstatus,a5
    2384:	0000c637          	lui	a2,0xc
    2388:	6585                	lui	a1,0x1
    238a:	0000c537          	lui	a0,0xc
    238e:	b7860613          	addi	a2,a2,-1160 # bb78 <_sbrk+0x4ea>
    2392:	c5258593          	addi	a1,a1,-942 # c52 <vSerialTask+0x20>
    2396:	ae050513          	addi	a0,a0,-1312 # bae0 <_sbrk+0x452>
    239a:	00f030ef          	jal	ra,5ba8 <iprintf>
    239e:	a001                	j	239e <vTaskPlaceOnEventListRestricted+0x2c>
    23a0:	200007b7          	lui	a5,0x20000
    23a4:	23878793          	addi	a5,a5,568 # 20000238 <pxCurrentTCB>
    23a8:	4354                	lw	a3,4(a4)
    23aa:	852e                	mv	a0,a1
    23ac:	438c                	lw	a1,0(a5)
    23ae:	0086a803          	lw	a6,8(a3)
    23b2:	cdd4                	sw	a3,28(a1)
    23b4:	438c                	lw	a1,0(a5)
    23b6:	0305a023          	sw	a6,32(a1)
    23ba:	0007a803          	lw	a6,0(a5)
    23be:	468c                	lw	a1,8(a3)
    23c0:	0861                	addi	a6,a6,24
    23c2:	0105a223          	sw	a6,4(a1)
    23c6:	0007a803          	lw	a6,0(a5)
    23ca:	439c                	lw	a5,0(a5)
    23cc:	0861                	addi	a6,a6,24
    23ce:	0106a423          	sw	a6,8(a3)
    23d2:	d798                	sw	a4,40(a5)
    23d4:	431c                	lw	a5,0(a4)
    23d6:	0785                	addi	a5,a5,1
    23d8:	c31c                	sw	a5,0(a4)
    23da:	c211                	beqz	a2,23de <vTaskPlaceOnEventListRestricted+0x6c>
    23dc:	557d                	li	a0,-1
    23de:	85b2                	mv	a1,a2
    23e0:	ea2ff0ef          	jal	ra,1a82 <prvAddCurrentTaskToDelayedList>
    23e4:	956fe06f          	j	53a <__riscv_restore_0>

000023e8 <xTaskRemoveFromEventList>:
    23e8:	455c                	lw	a5,12(a0)
    23ea:	47dc                	lw	a5,12(a5)
    23ec:	e795                	bnez	a5,2418 <xTaskRemoveFromEventList+0x30>
    23ee:	928fe2ef          	jal	t0,516 <__riscv_save_0>
    23f2:	67a1                	lui	a5,0x8
    23f4:	80078793          	addi	a5,a5,-2048 # 7800 <_dtoa_r+0x9fa>
    23f8:	30079073          	csrw	mstatus,a5
    23fc:	0000c637          	lui	a2,0xc
    2400:	6585                	lui	a1,0x1
    2402:	0000c537          	lui	a0,0xc
    2406:	b7860613          	addi	a2,a2,-1160 # bb78 <_sbrk+0x4ea>
    240a:	c8258593          	addi	a1,a1,-894 # c82 <vLookupTask+0xa>
    240e:	ae050513          	addi	a0,a0,-1312 # bae0 <_sbrk+0x452>
    2412:	796030ef          	jal	ra,5ba8 <iprintf>
    2416:	a001                	j	2416 <xTaskRemoveFromEventList+0x2e>
    2418:	4fd0                	lw	a2,28(a5)
    241a:	5394                	lw	a3,32(a5)
    241c:	5798                	lw	a4,40(a5)
    241e:	01878593          	addi	a1,a5,24
    2422:	c614                	sw	a3,8(a2)
    2424:	c2d0                	sw	a2,4(a3)
    2426:	4350                	lw	a2,4(a4)
    2428:	00b61363          	bne	a2,a1,242e <xTaskRemoveFromEventList+0x46>
    242c:	c354                	sw	a3,4(a4)
    242e:	4314                	lw	a3,0(a4)
    2430:	0207a423          	sw	zero,40(a5)
    2434:	16fd                	addi	a3,a3,-1
    2436:	c314                	sw	a3,0(a4)
    2438:	20000737          	lui	a4,0x20000
    243c:	24c72703          	lw	a4,588(a4) # 2000024c <uxSchedulerSuspended>
    2440:	57d4                	lw	a3,44(a5)
    2442:	ef25                	bnez	a4,24ba <xTaskRemoveFromEventList+0xd2>
    2444:	478c                	lw	a1,8(a5)
    2446:	47d0                	lw	a2,12(a5)
    2448:	4bd8                	lw	a4,20(a5)
    244a:	c590                	sw	a2,8(a1)
    244c:	47d0                	lw	a2,12(a5)
    244e:	4348                	lw	a0,4(a4)
    2450:	c24c                	sw	a1,4(a2)
    2452:	00478593          	addi	a1,a5,4
    2456:	00b51363          	bne	a0,a1,245c <xTaskRemoveFromEventList+0x74>
    245a:	c350                	sw	a2,4(a4)
    245c:	4310                	lw	a2,0(a4)
    245e:	0007aa23          	sw	zero,20(a5)
    2462:	167d                	addi	a2,a2,-1
    2464:	c310                	sw	a2,0(a4)
    2466:	20000737          	lui	a4,0x20000
    246a:	25470713          	addi	a4,a4,596 # 20000254 <uxTopReadyPriority>
    246e:	4310                	lw	a2,0(a4)
    2470:	00d67363          	bgeu	a2,a3,2476 <xTaskRemoveFromEventList+0x8e>
    2474:	c314                	sw	a3,0(a4)
    2476:	4751                	li	a4,20
    2478:	02e68633          	mul	a2,a3,a4
    247c:	20003737          	lui	a4,0x20003
    2480:	2e870713          	addi	a4,a4,744 # 200032e8 <pxReadyTasksLists>
    2484:	9732                	add	a4,a4,a2
    2486:	4350                	lw	a2,4(a4)
    2488:	4608                	lw	a0,8(a2)
    248a:	c790                	sw	a2,8(a5)
    248c:	c7c8                	sw	a0,12(a5)
    248e:	4608                	lw	a0,8(a2)
    2490:	c14c                	sw	a1,4(a0)
    2492:	c60c                	sw	a1,8(a2)
    2494:	cbd8                	sw	a4,20(a5)
    2496:	431c                	lw	a5,0(a4)
    2498:	4501                	li	a0,0
    249a:	0785                	addi	a5,a5,1
    249c:	c31c                	sw	a5,0(a4)
    249e:	200007b7          	lui	a5,0x20000
    24a2:	2387a783          	lw	a5,568(a5) # 20000238 <pxCurrentTCB>
    24a6:	57dc                	lw	a5,44(a5)
    24a8:	00d7f863          	bgeu	a5,a3,24b8 <xTaskRemoveFromEventList+0xd0>
    24ac:	200007b7          	lui	a5,0x20000
    24b0:	4705                	li	a4,1
    24b2:	26e7a823          	sw	a4,624(a5) # 20000270 <xYieldPending>
    24b6:	4505                	li	a0,1
    24b8:	8082                	ret
    24ba:	20003737          	lui	a4,0x20003
    24be:	43c70713          	addi	a4,a4,1084 # 2000343c <xPendingReadyList>
    24c2:	4350                	lw	a2,4(a4)
    24c4:	4608                	lw	a0,8(a2)
    24c6:	cfd0                	sw	a2,28(a5)
    24c8:	d388                	sw	a0,32(a5)
    24ca:	4608                	lw	a0,8(a2)
    24cc:	c14c                	sw	a1,4(a0)
    24ce:	c60c                	sw	a1,8(a2)
    24d0:	d798                	sw	a4,40(a5)
    24d2:	b7d1                	j	2496 <xTaskRemoveFromEventList+0xae>

000024d4 <vTaskInternalSetTimeOutState>:
    24d4:	200007b7          	lui	a5,0x20000
    24d8:	2607a783          	lw	a5,608(a5) # 20000260 <xNumOfOverflows>
    24dc:	c11c                	sw	a5,0(a0)
    24de:	200007b7          	lui	a5,0x20000
    24e2:	26c7a783          	lw	a5,620(a5) # 2000026c <xTickCount>
    24e6:	c15c                	sw	a5,4(a0)
    24e8:	8082                	ret

000024ea <xTaskCheckForTimeOut>:
    24ea:	82cfe2ef          	jal	t0,516 <__riscv_save_0>
    24ee:	1141                	addi	sp,sp,-16
    24f0:	e505                	bnez	a0,2518 <xTaskCheckForTimeOut+0x2e>
    24f2:	67a1                	lui	a5,0x8
    24f4:	80078793          	addi	a5,a5,-2048 # 7800 <_dtoa_r+0x9fa>
    24f8:	30079073          	csrw	mstatus,a5
    24fc:	0000c637          	lui	a2,0xc
    2500:	6585                	lui	a1,0x1
    2502:	0000c537          	lui	a0,0xc
    2506:	b7860613          	addi	a2,a2,-1160 # bb78 <_sbrk+0x4ea>
    250a:	cfd58593          	addi	a1,a1,-771 # cfd <main+0x7>
    250e:	ae050513          	addi	a0,a0,-1312 # bae0 <_sbrk+0x452>
    2512:	696030ef          	jal	ra,5ba8 <iprintf>
    2516:	a001                	j	2516 <xTaskCheckForTimeOut+0x2c>
    2518:	e585                	bnez	a1,2540 <xTaskCheckForTimeOut+0x56>
    251a:	67a1                	lui	a5,0x8
    251c:	80078793          	addi	a5,a5,-2048 # 7800 <_dtoa_r+0x9fa>
    2520:	30079073          	csrw	mstatus,a5
    2524:	0000c637          	lui	a2,0xc
    2528:	6585                	lui	a1,0x1
    252a:	0000c537          	lui	a0,0xc
    252e:	b7860613          	addi	a2,a2,-1160 # bb78 <_sbrk+0x4ea>
    2532:	cfe58593          	addi	a1,a1,-770 # cfe <main+0x8>
    2536:	ae050513          	addi	a0,a0,-1312 # bae0 <_sbrk+0x452>
    253a:	66e030ef          	jal	ra,5ba8 <iprintf>
    253e:	a001                	j	253e <xTaskCheckForTimeOut+0x54>
    2540:	c62e                	sw	a1,12(sp)
    2542:	c42a                	sw	a0,8(sp)
    2544:	e9ffe0ef          	jal	ra,13e2 <vPortEnterCritical>
    2548:	20000737          	lui	a4,0x20000
    254c:	200007b7          	lui	a5,0x20000
    2550:	23870713          	addi	a4,a4,568 # 20000238 <pxCurrentTCB>
    2554:	26c7a683          	lw	a3,620(a5) # 2000026c <xTickCount>
    2558:	431c                	lw	a5,0(a4)
    255a:	4522                	lw	a0,8(sp)
    255c:	45b2                	lw	a1,12(sp)
    255e:	0517c783          	lbu	a5,81(a5)
    2562:	cb99                	beqz	a5,2578 <xTaskCheckForTimeOut+0x8e>
    2564:	431c                	lw	a5,0(a4)
    2566:	040788a3          	sb	zero,81(a5)
    256a:	4405                	li	s0,1
    256c:	e8dfe0ef          	jal	ra,13f8 <vPortExitCritical>
    2570:	8522                	mv	a0,s0
    2572:	0141                	addi	sp,sp,16
    2574:	fc7fd06f          	j	53a <__riscv_restore_0>
    2578:	419c                	lw	a5,0(a1)
    257a:	577d                	li	a4,-1
    257c:	4401                	li	s0,0
    257e:	fee787e3          	beq	a5,a4,256c <xTaskCheckForTimeOut+0x82>
    2582:	20000637          	lui	a2,0x20000
    2586:	26062603          	lw	a2,608(a2) # 20000260 <xNumOfOverflows>
    258a:	00052803          	lw	a6,0(a0)
    258e:	4158                	lw	a4,4(a0)
    2590:	00c80763          	beq	a6,a2,259e <xTaskCheckForTimeOut+0xb4>
    2594:	00e6e563          	bltu	a3,a4,259e <xTaskCheckForTimeOut+0xb4>
    2598:	0005a023          	sw	zero,0(a1)
    259c:	b7f9                	j	256a <xTaskCheckForTimeOut+0x80>
    259e:	40e68633          	sub	a2,a3,a4
    25a2:	fef67be3          	bgeu	a2,a5,2598 <xTaskCheckForTimeOut+0xae>
    25a6:	8f95                	sub	a5,a5,a3
    25a8:	97ba                	add	a5,a5,a4
    25aa:	c19c                	sw	a5,0(a1)
    25ac:	3725                	jal	24d4 <vTaskInternalSetTimeOutState>
    25ae:	4401                	li	s0,0
    25b0:	bf75                	j	256c <xTaskCheckForTimeOut+0x82>

000025b2 <vTaskMissedYield>:
    25b2:	200007b7          	lui	a5,0x20000
    25b6:	4705                	li	a4,1
    25b8:	26e7a823          	sw	a4,624(a5) # 20000270 <xYieldPending>
    25bc:	8082                	ret

000025be <xTaskGetSchedulerState>:
    25be:	200007b7          	lui	a5,0x20000
    25c2:	2687a783          	lw	a5,616(a5) # 20000268 <xSchedulerRunning>
    25c6:	4505                	li	a0,1
    25c8:	cb81                	beqz	a5,25d8 <xTaskGetSchedulerState+0x1a>
    25ca:	200007b7          	lui	a5,0x20000
    25ce:	24c7a503          	lw	a0,588(a5) # 2000024c <uxSchedulerSuspended>
    25d2:	00153513          	seqz	a0,a0
    25d6:	0506                	slli	a0,a0,0x1
    25d8:	8082                	ret

000025da <xTaskPriorityDisinherit>:
    25da:	e511                	bnez	a0,25e6 <xTaskPriorityDisinherit+0xc>
    25dc:	4501                	li	a0,0
    25de:	8082                	ret
    25e0:	4501                	li	a0,0
    25e2:	f59fd06f          	j	53a <__riscv_restore_0>
    25e6:	f31fd2ef          	jal	t0,516 <__riscv_save_0>
    25ea:	200007b7          	lui	a5,0x20000
    25ee:	2387a783          	lw	a5,568(a5) # 20000238 <pxCurrentTCB>
    25f2:	842a                	mv	s0,a0
    25f4:	02a78563          	beq	a5,a0,261e <xTaskPriorityDisinherit+0x44>
    25f8:	67a1                	lui	a5,0x8
    25fa:	80078793          	addi	a5,a5,-2048 # 7800 <_dtoa_r+0x9fa>
    25fe:	30079073          	csrw	mstatus,a5
    2602:	0000c637          	lui	a2,0xc
    2606:	6585                	lui	a1,0x1
    2608:	0000c537          	lui	a0,0xc
    260c:	b7860613          	addi	a2,a2,-1160 # bb78 <_sbrk+0x4ea>
    2610:	04f58593          	addi	a1,a1,79 # 104f <SystemInit+0xab>
    2614:	ae050513          	addi	a0,a0,-1312 # bae0 <_sbrk+0x452>
    2618:	590030ef          	jal	ra,5ba8 <iprintf>
    261c:	a001                	j	261c <xTaskPriorityDisinherit+0x42>
    261e:	47bc                	lw	a5,72(a5)
    2620:	e785                	bnez	a5,2648 <xTaskPriorityDisinherit+0x6e>
    2622:	67a1                	lui	a5,0x8
    2624:	80078793          	addi	a5,a5,-2048 # 7800 <_dtoa_r+0x9fa>
    2628:	30079073          	csrw	mstatus,a5
    262c:	0000c637          	lui	a2,0xc
    2630:	6585                	lui	a1,0x1
    2632:	0000c537          	lui	a0,0xc
    2636:	b7860613          	addi	a2,a2,-1160 # bb78 <_sbrk+0x4ea>
    263a:	05058593          	addi	a1,a1,80 # 1050 <SystemInit+0xac>
    263e:	ae050513          	addi	a0,a0,-1312 # bae0 <_sbrk+0x452>
    2642:	566030ef          	jal	ra,5ba8 <iprintf>
    2646:	a001                	j	2646 <xTaskPriorityDisinherit+0x6c>
    2648:	5554                	lw	a3,44(a0)
    264a:	4178                	lw	a4,68(a0)
    264c:	17fd                	addi	a5,a5,-1
    264e:	c53c                	sw	a5,72(a0)
    2650:	f8e688e3          	beq	a3,a4,25e0 <xTaskPriorityDisinherit+0x6>
    2654:	f7d1                	bnez	a5,25e0 <xTaskPriorityDisinherit+0x6>
    2656:	00450493          	addi	s1,a0,4
    265a:	8526                	mv	a0,s1
    265c:	e51fe0ef          	jal	ra,14ac <uxListRemove>
    2660:	407c                	lw	a5,68(s0)
    2662:	473d                	li	a4,15
    2664:	8f1d                	sub	a4,a4,a5
    2666:	cc18                	sw	a4,24(s0)
    2668:	20000737          	lui	a4,0x20000
    266c:	25470713          	addi	a4,a4,596 # 20000254 <uxTopReadyPriority>
    2670:	4314                	lw	a3,0(a4)
    2672:	d45c                	sw	a5,44(s0)
    2674:	00f6f363          	bgeu	a3,a5,267a <xTaskPriorityDisinherit+0xa0>
    2678:	c31c                	sw	a5,0(a4)
    267a:	4751                	li	a4,20
    267c:	02e78733          	mul	a4,a5,a4
    2680:	200037b7          	lui	a5,0x20003
    2684:	2e878793          	addi	a5,a5,744 # 200032e8 <pxReadyTasksLists>
    2688:	4505                	li	a0,1
    268a:	97ba                	add	a5,a5,a4
    268c:	43d8                	lw	a4,4(a5)
    268e:	4714                	lw	a3,8(a4)
    2690:	c418                	sw	a4,8(s0)
    2692:	c454                	sw	a3,12(s0)
    2694:	4714                	lw	a3,8(a4)
    2696:	c2c4                	sw	s1,4(a3)
    2698:	c704                	sw	s1,8(a4)
    269a:	4398                	lw	a4,0(a5)
    269c:	c85c                	sw	a5,20(s0)
    269e:	0705                	addi	a4,a4,1
    26a0:	c398                	sw	a4,0(a5)
    26a2:	b781                	j	25e2 <xTaskPriorityDisinherit+0x8>

000026a4 <prvCheckForValidListAndQueue>:
    26a4:	e73fd2ef          	jal	t0,516 <__riscv_save_0>
    26a8:	20000437          	lui	s0,0x20000
    26ac:	d37fe0ef          	jal	ra,13e2 <vPortEnterCritical>
    26b0:	28040413          	addi	s0,s0,640 # 20000280 <xTimerQueue>
    26b4:	401c                	lw	a5,0(s0)
    26b6:	e7b1                	bnez	a5,2702 <prvCheckForValidListAndQueue+0x5e>
    26b8:	20003537          	lui	a0,0x20003
    26bc:	47850913          	addi	s2,a0,1144 # 20003478 <xActiveTimerList1>
    26c0:	47850513          	addi	a0,a0,1144
    26c4:	d89fe0ef          	jal	ra,144c <vListInitialise>
    26c8:	20003537          	lui	a0,0x20003
    26cc:	48c50493          	addi	s1,a0,1164 # 2000348c <xActiveTimerList2>
    26d0:	48c50513          	addi	a0,a0,1164
    26d4:	d79fe0ef          	jal	ra,144c <vListInitialise>
    26d8:	200007b7          	lui	a5,0x20000
    26dc:	2727aa23          	sw	s2,628(a5) # 20000274 <pxCurrentTimerList>
    26e0:	4601                	li	a2,0
    26e2:	200007b7          	lui	a5,0x20000
    26e6:	45c1                	li	a1,16
    26e8:	4515                	li	a0,5
    26ea:	2697ac23          	sw	s1,632(a5) # 20000278 <pxOverflowTimerList>
    26ee:	fbdfe0ef          	jal	ra,16aa <xQueueGenericCreate>
    26f2:	c008                	sw	a0,0(s0)
    26f4:	c519                	beqz	a0,2702 <prvCheckForValidListAndQueue+0x5e>
    26f6:	0000c5b7          	lui	a1,0xc
    26fa:	bd458593          	addi	a1,a1,-1068 # bbd4 <_sbrk+0x546>
    26fe:	a98ff0ef          	jal	ra,1996 <vQueueAddToRegistry>
    2702:	cf7fe0ef          	jal	ra,13f8 <vPortExitCritical>
    2706:	e35fd06f          	j	53a <__riscv_restore_0>

0000270a <prvInsertTimerInActiveList>:
    270a:	e0dfd2ef          	jal	t0,516 <__riscv_save_0>
    270e:	c14c                	sw	a1,4(a0)
    2710:	c908                	sw	a0,16(a0)
    2712:	87aa                	mv	a5,a0
    2714:	02b66263          	bltu	a2,a1,2738 <prvInsertTimerInActiveList+0x2e>
    2718:	4d18                	lw	a4,24(a0)
    271a:	8e15                	sub	a2,a2,a3
    271c:	4505                	li	a0,1
    271e:	00e67b63          	bgeu	a2,a4,2734 <prvInsertTimerInActiveList+0x2a>
    2722:	00478593          	addi	a1,a5,4
    2726:	200007b7          	lui	a5,0x20000
    272a:	2787a503          	lw	a0,632(a5) # 20000278 <pxOverflowTimerList>
    272e:	d51fe0ef          	jal	ra,147e <vListInsert>
    2732:	4501                	li	a0,0
    2734:	e07fd06f          	j	53a <__riscv_restore_0>
    2738:	00d67563          	bgeu	a2,a3,2742 <prvInsertTimerInActiveList+0x38>
    273c:	4505                	li	a0,1
    273e:	fed5fbe3          	bgeu	a1,a3,2734 <prvInsertTimerInActiveList+0x2a>
    2742:	00478593          	addi	a1,a5,4
    2746:	200007b7          	lui	a5,0x20000
    274a:	2747a503          	lw	a0,628(a5) # 20000274 <pxCurrentTimerList>
    274e:	b7c5                	j	272e <prvInsertTimerInActiveList+0x24>

00002750 <prvReloadTimer>:
    2750:	dc7fd2ef          	jal	t0,516 <__riscv_save_0>
    2754:	842a                	mv	s0,a0
    2756:	84ae                	mv	s1,a1
    2758:	8932                	mv	s2,a2
    275a:	4c0c                	lw	a1,24(s0)
    275c:	86a6                	mv	a3,s1
    275e:	864a                	mv	a2,s2
    2760:	95a6                	add	a1,a1,s1
    2762:	8522                	mv	a0,s0
    2764:	375d                	jal	270a <prvInsertTimerInActiveList>
    2766:	e119                	bnez	a0,276c <prvReloadTimer+0x1c>
    2768:	dd3fd06f          	j	53a <__riscv_restore_0>
    276c:	4c1c                	lw	a5,24(s0)
    276e:	8522                	mv	a0,s0
    2770:	94be                	add	s1,s1,a5
    2772:	501c                	lw	a5,32(s0)
    2774:	9782                	jalr	a5
    2776:	b7d5                	j	275a <prvReloadTimer+0xa>

00002778 <prvProcessExpiredTimer>:
    2778:	d9ffd2ef          	jal	t0,516 <__riscv_save_0>
    277c:	200007b7          	lui	a5,0x20000
    2780:	2747a783          	lw	a5,628(a5) # 20000274 <pxCurrentTimerList>
    2784:	1141                	addi	sp,sp,-16
    2786:	84aa                	mv	s1,a0
    2788:	47dc                	lw	a5,12(a5)
    278a:	c62e                	sw	a1,12(sp)
    278c:	47c0                	lw	s0,12(a5)
    278e:	00440513          	addi	a0,s0,4
    2792:	d1bfe0ef          	jal	ra,14ac <uxListRemove>
    2796:	02444783          	lbu	a5,36(s0)
    279a:	4632                	lw	a2,12(sp)
    279c:	0047f713          	andi	a4,a5,4
    27a0:	cb11                	beqz	a4,27b4 <prvProcessExpiredTimer+0x3c>
    27a2:	85a6                	mv	a1,s1
    27a4:	8522                	mv	a0,s0
    27a6:	376d                	jal	2750 <prvReloadTimer>
    27a8:	501c                	lw	a5,32(s0)
    27aa:	8522                	mv	a0,s0
    27ac:	9782                	jalr	a5
    27ae:	0141                	addi	sp,sp,16
    27b0:	d8bfd06f          	j	53a <__riscv_restore_0>
    27b4:	9bf9                	andi	a5,a5,-2
    27b6:	02f40223          	sb	a5,36(s0)
    27ba:	b7fd                	j	27a8 <prvProcessExpiredTimer+0x30>

000027bc <prvSwitchTimerLists>:
    27bc:	d5bfd2ef          	jal	t0,516 <__riscv_save_0>
    27c0:	20000437          	lui	s0,0x20000
    27c4:	27440693          	addi	a3,s0,628 # 20000274 <pxCurrentTimerList>
    27c8:	4298                	lw	a4,0(a3)
    27ca:	431c                	lw	a5,0(a4)
    27cc:	eb91                	bnez	a5,27e0 <prvSwitchTimerLists+0x24>
    27ce:	200007b7          	lui	a5,0x20000
    27d2:	27878793          	addi	a5,a5,632 # 20000278 <pxOverflowTimerList>
    27d6:	4390                	lw	a2,0(a5)
    27d8:	c398                	sw	a4,0(a5)
    27da:	c290                	sw	a2,0(a3)
    27dc:	d5ffd06f          	j	53a <__riscv_restore_0>
    27e0:	475c                	lw	a5,12(a4)
    27e2:	55fd                	li	a1,-1
    27e4:	4388                	lw	a0,0(a5)
    27e6:	3f49                	jal	2778 <prvProcessExpiredTimer>
    27e8:	bff1                	j	27c4 <prvSwitchTimerLists+0x8>

000027ea <prvTimerTask>:
    27ea:	d05fd2ef          	jal	t0,4ee <__riscv_save_10>
    27ee:	6931                	lui	s2,0xc
    27f0:	1141                	addi	sp,sp,-16
    27f2:	20000ab7          	lui	s5,0x20000
    27f6:	200009b7          	lui	s3,0x20000
    27fa:	20000b37          	lui	s6,0x20000
    27fe:	20000bb7          	lui	s7,0x20000
    2802:	bb090913          	addi	s2,s2,-1104 # bbb0 <_sbrk+0x522>
    2806:	274aa783          	lw	a5,628(s5) # 20000274 <pxCurrentTimerList>
    280a:	4398                	lw	a4,0(a5)
    280c:	cb29                	beqz	a4,285e <prvTimerTask+0x74>
    280e:	47dc                	lw	a5,12(a5)
    2810:	4c81                	li	s9,0
    2812:	0007ac03          	lw	s8,0(a5)
    2816:	ee8ff0ef          	jal	ra,1efe <vTaskSuspendAll>
    281a:	ef4ff0ef          	jal	ra,1f0e <xTaskGetTickCount>
    281e:	27c9a783          	lw	a5,636(s3) # 2000027c <xLastTime.6277>
    2822:	842a                	mv	s0,a0
    2824:	27c98493          	addi	s1,s3,636
    2828:	280b0a13          	addi	s4,s6,640 # 20000280 <xTimerQueue>
    282c:	02f56c63          	bltu	a0,a5,2864 <prvTimerTask+0x7a>
    2830:	c088                	sw	a0,0(s1)
    2832:	020c8f63          	beqz	s9,2870 <prvTimerTask+0x86>
    2836:	278ba783          	lw	a5,632(s7) # 20000278 <pxOverflowTimerList>
    283a:	4390                	lw	a2,0(a5)
    283c:	00163613          	seqz	a2,a2
    2840:	000a2503          	lw	a0,0(s4)
    2844:	408c05b3          	sub	a1,s8,s0
    2848:	9baff0ef          	jal	ra,1a02 <vQueueWaitForMessageRestricted>
    284c:	879ff0ef          	jal	ra,20c4 <xTaskResumeAll>
    2850:	ed11                	bnez	a0,286c <prvTimerTask+0x82>
    2852:	e000e7b7          	lui	a5,0xe000e
    2856:	6711                	lui	a4,0x4
    2858:	20e7a023          	sw	a4,512(a5) # e000e200 <__freertos_irq_stack_top+0xbfffe200>
    285c:	a801                	j	286c <prvTimerTask+0x82>
    285e:	4c85                	li	s9,1
    2860:	4c01                	li	s8,0
    2862:	bf55                	j	2816 <prvTimerTask+0x2c>
    2864:	3fa1                	jal	27bc <prvSwitchTimerLists>
    2866:	c080                	sw	s0,0(s1)
    2868:	85dff0ef          	jal	ra,20c4 <xTaskResumeAll>
    286c:	4c21                	li	s8,8
    286e:	a005                	j	288e <prvTimerTask+0xa4>
    2870:	4601                	li	a2,0
    2872:	fd8567e3          	bltu	a0,s8,2840 <prvTimerTask+0x56>
    2876:	84fff0ef          	jal	ra,20c4 <xTaskResumeAll>
    287a:	85a2                	mv	a1,s0
    287c:	8562                	mv	a0,s8
    287e:	3ded                	jal	2778 <prvProcessExpiredTimer>
    2880:	b7f5                	j	286c <prvTimerTask+0x82>
    2882:	4792                	lw	a5,4(sp)
    2884:	45b2                	lw	a1,12(sp)
    2886:	9782                	jalr	a5
    2888:	4782                	lw	a5,0(sp)
    288a:	0007dd63          	bgez	a5,28a4 <prvTimerTask+0xba>
    288e:	000a2503          	lw	a0,0(s4)
    2892:	4601                	li	a2,0
    2894:	858a                	mv	a1,sp
    2896:	fa3fe0ef          	jal	ra,1838 <xQueueReceive>
    289a:	d535                	beqz	a0,2806 <prvTimerTask+0x1c>
    289c:	4782                	lw	a5,0(sp)
    289e:	4522                	lw	a0,8(sp)
    28a0:	fe07c1e3          	bltz	a5,2882 <prvTimerTask+0x98>
    28a4:	4422                	lw	s0,8(sp)
    28a6:	485c                	lw	a5,20(s0)
    28a8:	e395                	bnez	a5,28cc <prvTimerTask+0xe2>
    28aa:	e64ff0ef          	jal	ra,1f0e <xTaskGetTickCount>
    28ae:	409c                	lw	a5,0(s1)
    28b0:	8caa                	mv	s9,a0
    28b2:	00f57363          	bgeu	a0,a5,28b8 <prvTimerTask+0xce>
    28b6:	3719                	jal	27bc <prvSwitchTimerLists>
    28b8:	4782                	lw	a5,0(sp)
    28ba:	0194a023          	sw	s9,0(s1)
    28be:	17fd                	addi	a5,a5,-1
    28c0:	fcfc67e3          	bltu	s8,a5,288e <prvTimerTask+0xa4>
    28c4:	078a                	slli	a5,a5,0x2
    28c6:	97ca                	add	a5,a5,s2
    28c8:	439c                	lw	a5,0(a5)
    28ca:	8782                	jr	a5
    28cc:	00440513          	addi	a0,s0,4
    28d0:	bddfe0ef          	jal	ra,14ac <uxListRemove>
    28d4:	bfd9                	j	28aa <prvTimerTask+0xc0>
    28d6:	02444783          	lbu	a5,36(s0)
    28da:	4c0c                	lw	a1,24(s0)
    28dc:	4692                	lw	a3,4(sp)
    28de:	0017e793          	ori	a5,a5,1
    28e2:	02f40223          	sb	a5,36(s0)
    28e6:	8666                	mv	a2,s9
    28e8:	95b6                	add	a1,a1,a3
    28ea:	8522                	mv	a0,s0
    28ec:	e1fff0ef          	jal	ra,270a <prvInsertTimerInActiveList>
    28f0:	dd59                	beqz	a0,288e <prvTimerTask+0xa4>
    28f2:	02444783          	lbu	a5,36(s0)
    28f6:	0047f713          	andi	a4,a5,4
    28fa:	cf01                	beqz	a4,2912 <prvTimerTask+0x128>
    28fc:	4c1c                	lw	a5,24(s0)
    28fe:	4592                	lw	a1,4(sp)
    2900:	8666                	mv	a2,s9
    2902:	8522                	mv	a0,s0
    2904:	95be                	add	a1,a1,a5
    2906:	e4bff0ef          	jal	ra,2750 <prvReloadTimer>
    290a:	501c                	lw	a5,32(s0)
    290c:	8522                	mv	a0,s0
    290e:	9782                	jalr	a5
    2910:	bfbd                	j	288e <prvTimerTask+0xa4>
    2912:	9bf9                	andi	a5,a5,-2
    2914:	02f40223          	sb	a5,36(s0)
    2918:	bfcd                	j	290a <prvTimerTask+0x120>
    291a:	02444783          	lbu	a5,36(s0)
    291e:	9bf9                	andi	a5,a5,-2
    2920:	02f40223          	sb	a5,36(s0)
    2924:	b7ad                	j	288e <prvTimerTask+0xa4>
    2926:	02444783          	lbu	a5,36(s0)
    292a:	4592                	lw	a1,4(sp)
    292c:	0017e793          	ori	a5,a5,1
    2930:	02f40223          	sb	a5,36(s0)
    2934:	cc0c                	sw	a1,24(s0)
    2936:	e19d                	bnez	a1,295c <prvTimerTask+0x172>
    2938:	67a1                	lui	a5,0x8
    293a:	80078793          	addi	a5,a5,-2048 # 7800 <_dtoa_r+0x9fa>
    293e:	30079073          	csrw	mstatus,a5
    2942:	0000c637          	lui	a2,0xc
    2946:	0000c537          	lui	a0,0xc
    294a:	bdc60613          	addi	a2,a2,-1060 # bbdc <_sbrk+0x54e>
    294e:	35900593          	li	a1,857
    2952:	ae050513          	addi	a0,a0,-1312 # bae0 <_sbrk+0x452>
    2956:	252030ef          	jal	ra,5ba8 <iprintf>
    295a:	a001                	j	295a <prvTimerTask+0x170>
    295c:	86e6                	mv	a3,s9
    295e:	8666                	mv	a2,s9
    2960:	95e6                	add	a1,a1,s9
    2962:	8522                	mv	a0,s0
    2964:	da7ff0ef          	jal	ra,270a <prvInsertTimerInActiveList>
    2968:	b71d                	j	288e <prvTimerTask+0xa4>
    296a:	02444783          	lbu	a5,36(s0)
    296e:	0027f713          	andi	a4,a5,2
    2972:	f755                	bnez	a4,291e <prvTimerTask+0x134>
    2974:	8522                	mv	a0,s0
    2976:	8fffe0ef          	jal	ra,1274 <vPortFree>
    297a:	bf11                	j	288e <prvTimerTask+0xa4>

0000297c <xTimerCreateTimerTask>:
    297c:	b9bfd2ef          	jal	t0,516 <__riscv_save_0>
    2980:	d25ff0ef          	jal	ra,26a4 <prvCheckForValidListAndQueue>
    2984:	200007b7          	lui	a5,0x20000
    2988:	2807a783          	lw	a5,640(a5) # 20000280 <xTimerQueue>
    298c:	e39d                	bnez	a5,29b2 <xTimerCreateTimerTask+0x36>
    298e:	67a1                	lui	a5,0x8
    2990:	80078793          	addi	a5,a5,-2048 # 7800 <_dtoa_r+0x9fa>
    2994:	30079073          	csrw	mstatus,a5
    2998:	0000c637          	lui	a2,0xc
    299c:	0000c537          	lui	a0,0xc
    29a0:	bdc60613          	addi	a2,a2,-1060 # bbdc <_sbrk+0x54e>
    29a4:	11900593          	li	a1,281
    29a8:	ae050513          	addi	a0,a0,-1312 # bae0 <_sbrk+0x452>
    29ac:	1fc030ef          	jal	ra,5ba8 <iprintf>
    29b0:	a001                	j	29b0 <xTimerCreateTimerTask+0x34>
    29b2:	200007b7          	lui	a5,0x20000
    29b6:	0000c5b7          	lui	a1,0xc
    29ba:	00002537          	lui	a0,0x2
    29be:	28478793          	addi	a5,a5,644 # 20000284 <xTimerTaskHandle>
    29c2:	4739                	li	a4,14
    29c4:	4681                	li	a3,0
    29c6:	10000613          	li	a2,256
    29ca:	c0c58593          	addi	a1,a1,-1012 # bc0c <_sbrk+0x57e>
    29ce:	7ea50513          	addi	a0,a0,2026 # 27ea <prvTimerTask>
    29d2:	9c4ff0ef          	jal	ra,1b96 <xTaskCreate>
    29d6:	dd45                	beqz	a0,298e <xTimerCreateTimerTask+0x12>
    29d8:	b63fd06f          	j	53a <__riscv_restore_0>

000029dc <USARTx_Init>:
    29dc:	b21fd2ef          	jal	t0,4fc <__riscv_save_4>
    29e0:	715d                	addi	sp,sp,-80
    29e2:	4585                	li	a1,1
    29e4:	4511                	li	a0,4
    29e6:	7fe000ef          	jal	ra,31e4 <RCC_APB2PeriphClockCmd>
    29ea:	4585                	li	a1,1
    29ec:	00020537          	lui	a0,0x20
    29f0:	013000ef          	jal	ra,3202 <RCC_APB1PeriphClockCmd>
    29f4:	4585                	li	a1,1
    29f6:	6511                	lui	a0,0x4
    29f8:	7ec000ef          	jal	ra,31e4 <RCC_APB2PeriphClockCmd>
    29fc:	40011437          	lui	s0,0x40011
    2a00:	20000793          	li	a5,512
    2a04:	498d                	li	s3,3
    2a06:	4961                	li	s2,24
    2a08:	082c                	addi	a1,sp,24
    2a0a:	80040513          	addi	a0,s0,-2048 # 40010800 <__freertos_irq_stack_top+0x20000800>
    2a0e:	84fc                	sh	a5,24(sp)
    2a10:	ce4e                	sw	s3,28(sp)
    2a12:	d04a                	sw	s2,32(sp)
    2a14:	21c1                	jal	2ed4 <GPIO_Init>
    2a16:	40000793          	li	a5,1024
    2a1a:	4491                	li	s1,4
    2a1c:	082c                	addi	a1,sp,24
    2a1e:	80040513          	addi	a0,s0,-2048
    2a22:	84fc                	sh	a5,24(sp)
    2a24:	d026                	sw	s1,32(sp)
    2a26:	217d                	jal	2ed4 <GPIO_Init>
    2a28:	104c                	addi	a1,sp,36
    2a2a:	80040513          	addi	a0,s0,-2048
    2a2e:	02911223          	sh	s1,36(sp)
    2a32:	d44e                	sw	s3,40(sp)
    2a34:	d64a                	sw	s2,44(sp)
    2a36:	2979                	jal	2ed4 <GPIO_Init>
    2a38:	47a1                	li	a5,8
    2a3a:	104c                	addi	a1,sp,36
    2a3c:	80040513          	addi	a0,s0,-2048
    2a40:	02f11223          	sh	a5,36(sp)
    2a44:	d626                	sw	s1,44(sp)
    2a46:	6471                	lui	s0,0x1c
    2a48:	2171                	jal	2ed4 <GPIO_Init>
    2a4a:	400044b7          	lui	s1,0x40004
    2a4e:	20040413          	addi	s0,s0,512 # 1c200 <_data_lma+0xd11c>
    2a52:	000c0937          	lui	s2,0xc0
    2a56:	008c                	addi	a1,sp,64
    2a58:	40048513          	addi	a0,s1,1024 # 40004400 <__freertos_irq_stack_top+0x1fff4400>
    2a5c:	c0a2                	sw	s0,64(sp)
    2a5e:	c4ca                	sw	s2,72(sp)
    2a60:	c282                	sw	zero,68(sp)
    2a62:	04011623          	sh	zero,76(sp)
    2a66:	7ba000ef          	jal	ra,3220 <USART_Init>
    2a6a:	d822                	sw	s0,48(sp)
    2a6c:	40014437          	lui	s0,0x40014
    2a70:	180c                	addi	a1,sp,48
    2a72:	80040513          	addi	a0,s0,-2048 # 40013800 <__freertos_irq_stack_top+0x20003800>
    2a76:	dc4a                	sw	s2,56(sp)
    2a78:	da02                	sw	zero,52(sp)
    2a7a:	02011e23          	sh	zero,60(sp)
    2a7e:	7a2000ef          	jal	ra,3220 <USART_Init>
    2a82:	13500793          	li	a5,309
    2a86:	4905                	li	s2,1
    2a88:	847c                	sh	a5,8(sp)
    2a8a:	0028                	addi	a0,sp,8
    2a8c:	4785                	li	a5,1
    2a8e:	855c                	sb	a5,10(sp)
    2a90:	c64a                	sw	s2,12(sp)
    2a92:	2b11                	jal	2fa6 <NVIC_Init>
    2a94:	13600793          	li	a5,310
    2a98:	0808                	addi	a0,sp,16
    2a9a:	80fc                	sh	a5,16(sp)
    2a9c:	01210923          	sb	s2,18(sp)
    2aa0:	ca4a                	sw	s2,20(sp)
    2aa2:	2311                	jal	2fa6 <NVIC_Init>
    2aa4:	80040513          	addi	a0,s0,-2048
    2aa8:	4605                	li	a2,1
    2aaa:	52500593          	li	a1,1317
    2aae:	045000ef          	jal	ra,32f2 <USART_ITConfig>
    2ab2:	4605                	li	a2,1
    2ab4:	40048513          	addi	a0,s1,1024
    2ab8:	52500593          	li	a1,1317
    2abc:	037000ef          	jal	ra,32f2 <USART_ITConfig>
    2ac0:	80040513          	addi	a0,s0,-2048
    2ac4:	4585                	li	a1,1
    2ac6:	017000ef          	jal	ra,32dc <USART_Cmd>
    2aca:	4585                	li	a1,1
    2acc:	40048513          	addi	a0,s1,1024
    2ad0:	00d000ef          	jal	ra,32dc <USART_Cmd>
    2ad4:	6161                	addi	sp,sp,80
    2ad6:	a5bfd06f          	j	530 <__riscv_restore_4>

00002ada <_write>:
    2ada:	a23fd2ef          	jal	t0,4fc <__riscv_save_4>
    2ade:	400044b7          	lui	s1,0x40004
    2ae2:	89ae                	mv	s3,a1
    2ae4:	8932                	mv	s2,a2
    2ae6:	4401                	li	s0,0
    2ae8:	40048493          	addi	s1,s1,1024 # 40004400 <__freertos_irq_stack_top+0x1fff4400>
    2aec:	01244563          	blt	s0,s2,2af6 <_write+0x1c>
    2af0:	854a                	mv	a0,s2
    2af2:	a3ffd06f          	j	530 <__riscv_restore_4>
    2af6:	04000593          	li	a1,64
    2afa:	8526                	mv	a0,s1
    2afc:	03d000ef          	jal	ra,3338 <USART_GetFlagStatus>
    2b00:	d97d                	beqz	a0,2af6 <_write+0x1c>
    2b02:	008987b3          	add	a5,s3,s0
    2b06:	00078583          	lb	a1,0(a5)
    2b0a:	8526                	mv	a0,s1
    2b0c:	0405                	addi	s0,s0,1
    2b0e:	05c2                	slli	a1,a1,0x10
    2b10:	81c1                	srli	a1,a1,0x10
    2b12:	017000ef          	jal	ra,3328 <USART_SendData>
    2b16:	bfd9                	j	2aec <_write+0x12>

00002b18 <USART1_IRQHandler>:
    2b18:	1141                	addi	sp,sp,-16
    2b1a:	c622                	sw	s0,12(sp)
    2b1c:	40014437          	lui	s0,0x40014
    2b20:	52500593          	li	a1,1317
    2b24:	80040513          	addi	a0,s0,-2048 # 40013800 <__freertos_irq_stack_top+0x20003800>
    2b28:	01b000ef          	jal	ra,3342 <USART_GetITStatus>
    2b2c:	c159                	beqz	a0,2bb2 <USART1_IRQHandler+0x9a>
    2b2e:	52500593          	li	a1,1317
    2b32:	80040513          	addi	a0,s0,-2048
    2b36:	049000ef          	jal	ra,337e <USART_ClearITPendingBit>
    2b3a:	80040513          	addi	a0,s0,-2048
    2b3e:	20000437          	lui	s0,0x20000
    2b42:	7ee000ef          	jal	ra,3330 <USART_ReceiveData>
    2b46:	28840413          	addi	s0,s0,648 # 20000288 <received_data>
    2b4a:	a00a                	sh	a0,0(s0)
    2b4c:	3da020ef          	jal	ra,4f26 <__locale_ctype_ptr>
    2b50:	2012                	lhu	a2,0(s0)
    2b52:	9532                	add	a0,a0,a2
    2b54:	311c                	lbu	a5,1(a0)
    2b56:	8b8d                	andi	a5,a5,3
    2b58:	c79d                	beqz	a5,2b86 <USART1_IRQHandler+0x6e>
    2b5a:	20000737          	lui	a4,0x20000
    2b5e:	28b70713          	addi	a4,a4,651 # 2000028b <uart_cnt>
    2b62:	231c                	lbu	a5,0(a4)
    2b64:	46fd                	li	a3,31
    2b66:	02f6e063          	bltu	a3,a5,2b86 <USART1_IRQHandler+0x6e>
    2b6a:	231c                	lbu	a5,0(a4)
    2b6c:	0ff7f693          	andi	a3,a5,255
    2b70:	00168793          	addi	a5,a3,1
    2b74:	0ff7f793          	andi	a5,a5,255
    2b78:	a31c                	sb	a5,0(a4)
    2b7a:	200037b7          	lui	a5,0x20003
    2b7e:	4a078793          	addi	a5,a5,1184 # 200034a0 <uart_buf>
    2b82:	97b6                	add	a5,a5,a3
    2b84:	a390                	sb	a2,0(a5)
    2b86:	47a9                	li	a5,10
    2b88:	02f61563          	bne	a2,a5,2bb2 <USART1_IRQHandler+0x9a>
    2b8c:	200007b7          	lui	a5,0x20000
    2b90:	280785a3          	sb	zero,651(a5) # 2000028b <uart_cnt>
    2b94:	20000737          	lui	a4,0x20000
    2b98:	4785                	li	a5,1
    2b9a:	40014537          	lui	a0,0x40014
    2b9e:	28f70523          	sb	a5,650(a4) # 2000028a <recv_ok>
    2ba2:	4581                	li	a1,0
    2ba4:	20000737          	lui	a4,0x20000
    2ba8:	80050513          	addi	a0,a0,-2048 # 40013800 <__freertos_irq_stack_top+0x20003800>
    2bac:	20f70023          	sb	a5,512(a4) # 20000200 <_edata>
    2bb0:	2735                	jal	32dc <USART_Cmd>
    2bb2:	4432                	lw	s0,12(sp)
    2bb4:	0141                	addi	sp,sp,16
    2bb6:	30200073          	mret

00002bba <USART2_IRQHandler>:
    2bba:	1101                	addi	sp,sp,-32
    2bbc:	ce22                	sw	s0,28(sp)
    2bbe:	40004437          	lui	s0,0x40004
    2bc2:	52500593          	li	a1,1317
    2bc6:	40040513          	addi	a0,s0,1024 # 40004400 <__freertos_irq_stack_top+0x1fff4400>
    2bca:	c602                	sw	zero,12(sp)
    2bcc:	2f9d                	jal	3342 <USART_GetITStatus>
    2bce:	c91d                	beqz	a0,2c04 <USART2_IRQHandler+0x4a>
    2bd0:	52500593          	li	a1,1317
    2bd4:	40040513          	addi	a0,s0,1024
    2bd8:	275d                	jal	337e <USART_ClearITPendingBit>
    2bda:	40040513          	addi	a0,s0,1024
    2bde:	2f89                	jal	3330 <USART_ReceiveData>
    2be0:	200007b7          	lui	a5,0x20000
    2be4:	85c8                	sb	a0,11(sp)
    2be6:	28c7a503          	lw	a0,652(a5) # 2000028c <xQueue>
    2bea:	4681                	li	a3,0
    2bec:	0070                	addi	a2,sp,12
    2bee:	00b10593          	addi	a1,sp,11
    2bf2:	b25fe0ef          	jal	ra,1716 <xQueueGenericSendFromISR>
    2bf6:	47b2                	lw	a5,12(sp)
    2bf8:	c791                	beqz	a5,2c04 <USART2_IRQHandler+0x4a>
    2bfa:	e000e7b7          	lui	a5,0xe000e
    2bfe:	6711                	lui	a4,0x4
    2c00:	20e7a023          	sw	a4,512(a5) # e000e200 <__freertos_irq_stack_top+0xbfffe200>
    2c04:	4472                	lw	s0,28(sp)
    2c06:	6105                	addi	sp,sp,32
    2c08:	30200073          	mret

00002c0c <delay_init>:
    2c0c:	200007b7          	lui	a5,0x20000
    2c10:	28a79823          	sh	a0,656(a5) # 20000290 <g_fac_us>
    2c14:	5741                	li	a4,-16
    2c16:	e000e7b7          	lui	a5,0xe000e
    2c1a:	40e78723          	sb	a4,1038(a5) # e000e40e <__freertos_irq_stack_top+0xbfffe40e>
    2c1e:	40e78623          	sb	a4,1036(a5)
    2c22:	e000f7b7          	lui	a5,0xe000f
    2c26:	0007a023          	sw	zero,0(a5) # e000f000 <__freertos_irq_stack_top+0xbffff000>
    2c2a:	0007a223          	sw	zero,4(a5)
    2c2e:	4681                	li	a3,0
    2c30:	c794                	sw	a3,8(a5)
    2c32:	4701                	li	a4,0
    2c34:	c7d8                	sw	a4,12(a5)
    2c36:	20000737          	lui	a4,0x20000
    2c3a:	1e072583          	lw	a1,480(a4) # 200001e0 <SystemCoreClock>
    2c3e:	3e800713          	li	a4,1000
    2c42:	4681                	li	a3,0
    2c44:	02e5d633          	divu	a2,a1,a4
    2c48:	477d                	li	a4,31
    2c4a:	cb90                	sw	a2,16(a5)
    2c4c:	cbd4                	sw	a3,20(a5)
    2c4e:	c398                	sw	a4,0(a5)
    2c50:	8082                	ret

00002c52 <delay_us>:
    2c52:	e000f6b7          	lui	a3,0xe000f
    2c56:	4a98                	lw	a4,16(a3)
    2c58:	4adc                	lw	a5,20(a3)
    2c5a:	e000f837          	lui	a6,0xe000f
    2c5e:	200007b7          	lui	a5,0x20000
    2c62:	2907d783          	lhu	a5,656(a5) # 20000290 <g_fac_us>
    2c66:	85ba                	mv	a1,a4
    2c68:	4698                	lw	a4,8(a3)
    2c6a:	02a78533          	mul	a0,a5,a0
    2c6e:	46dc                	lw	a5,12(a3)
    2c70:	4781                	li	a5,0
    2c72:	00882603          	lw	a2,8(a6) # e000f008 <__freertos_irq_stack_top+0xbffff008>
    2c76:	00c82683          	lw	a3,12(a6)
    2c7a:	fec70ce3          	beq	a4,a2,2c72 <delay_us+0x20>
    2c7e:	97ba                	add	a5,a5,a4
    2c80:	00e67763          	bgeu	a2,a4,2c8e <delay_us+0x3c>
    2c84:	8f91                	sub	a5,a5,a2
    2c86:	8732                	mv	a4,a2
    2c88:	fea7e5e3          	bltu	a5,a0,2c72 <delay_us+0x20>
    2c8c:	8082                	ret
    2c8e:	97ae                	add	a5,a5,a1
    2c90:	bfd5                	j	2c84 <delay_us+0x32>

00002c92 <delay_ms>:
    2c92:	885fd2ef          	jal	t0,516 <__riscv_save_0>
    2c96:	84aa                	mv	s1,a0
    2c98:	4401                	li	s0,0
    2c9a:	00946463          	bltu	s0,s1,2ca2 <delay_ms+0x10>
    2c9e:	89dfd06f          	j	53a <__riscv_restore_0>
    2ca2:	3e800513          	li	a0,1000
    2ca6:	3775                	jal	2c52 <delay_us>
    2ca8:	0405                	addi	s0,s0,1
    2caa:	bfc5                	j	2c9a <delay_ms+0x8>
    2cac:	a001                	j	2cac <delay_ms+0x1a>
    2cae:	a001                	j	2cae <delay_ms+0x1c>

00002cb0 <Ecall_M_Mode_Handler>:
    2cb0:	a001                	j	2cb0 <Ecall_M_Mode_Handler>

00002cb2 <Ecall_U_Mode_Handler>:
    2cb2:	a001                	j	2cb2 <Ecall_U_Mode_Handler>

00002cb4 <Break_Point_Handler>:
    2cb4:	a001                	j	2cb4 <Break_Point_Handler>
    2cb6:	a001                	j	2cb6 <Break_Point_Handler+0x2>
    2cb8:	a001                	j	2cb8 <Break_Point_Handler+0x4>

00002cba <WWDG_IRQHandler>:
    2cba:	a001                	j	2cba <WWDG_IRQHandler>

00002cbc <PVD_IRQHandler>:
    2cbc:	a001                	j	2cbc <PVD_IRQHandler>

00002cbe <TAMPER_IRQHandler>:
    2cbe:	a001                	j	2cbe <TAMPER_IRQHandler>

00002cc0 <RTC_IRQHandler>:
    2cc0:	a001                	j	2cc0 <RTC_IRQHandler>

00002cc2 <FLASH_IRQHandler>:
    2cc2:	a001                	j	2cc2 <FLASH_IRQHandler>

00002cc4 <RCC_IRQHandler>:
    2cc4:	a001                	j	2cc4 <RCC_IRQHandler>

00002cc6 <EXTI0_IRQHandler>:
    2cc6:	a001                	j	2cc6 <EXTI0_IRQHandler>

00002cc8 <EXTI1_IRQHandler>:
    2cc8:	a001                	j	2cc8 <EXTI1_IRQHandler>

00002cca <EXTI2_IRQHandler>:
    2cca:	a001                	j	2cca <EXTI2_IRQHandler>

00002ccc <EXTI3_IRQHandler>:
    2ccc:	a001                	j	2ccc <EXTI3_IRQHandler>

00002cce <EXTI4_IRQHandler>:
    2cce:	a001                	j	2cce <EXTI4_IRQHandler>

00002cd0 <DMA1_Channel1_IRQHandler>:
    2cd0:	a001                	j	2cd0 <DMA1_Channel1_IRQHandler>

00002cd2 <DMA1_Channel2_IRQHandler>:
    2cd2:	a001                	j	2cd2 <DMA1_Channel2_IRQHandler>

00002cd4 <DMA1_Channel3_IRQHandler>:
    2cd4:	a001                	j	2cd4 <DMA1_Channel3_IRQHandler>

00002cd6 <DMA1_Channel4_IRQHandler>:
    2cd6:	a001                	j	2cd6 <DMA1_Channel4_IRQHandler>

00002cd8 <DMA1_Channel5_IRQHandler>:
    2cd8:	a001                	j	2cd8 <DMA1_Channel5_IRQHandler>

00002cda <DMA1_Channel6_IRQHandler>:
    2cda:	a001                	j	2cda <DMA1_Channel6_IRQHandler>

00002cdc <DMA1_Channel7_IRQHandler>:
    2cdc:	a001                	j	2cdc <DMA1_Channel7_IRQHandler>

00002cde <ADC1_2_IRQHandler>:
    2cde:	a001                	j	2cde <ADC1_2_IRQHandler>

00002ce0 <USB_HP_CAN1_TX_IRQHandler>:
    2ce0:	a001                	j	2ce0 <USB_HP_CAN1_TX_IRQHandler>

00002ce2 <USB_LP_CAN1_RX0_IRQHandler>:
    2ce2:	a001                	j	2ce2 <USB_LP_CAN1_RX0_IRQHandler>

00002ce4 <CAN1_RX1_IRQHandler>:
    2ce4:	a001                	j	2ce4 <CAN1_RX1_IRQHandler>

00002ce6 <CAN1_SCE_IRQHandler>:
    2ce6:	a001                	j	2ce6 <CAN1_SCE_IRQHandler>

00002ce8 <EXTI9_5_IRQHandler>:
    2ce8:	a001                	j	2ce8 <EXTI9_5_IRQHandler>

00002cea <TIM1_BRK_IRQHandler>:
    2cea:	a001                	j	2cea <TIM1_BRK_IRQHandler>

00002cec <TIM1_UP_IRQHandler>:
    2cec:	a001                	j	2cec <TIM1_UP_IRQHandler>

00002cee <TIM1_TRG_COM_IRQHandler>:
    2cee:	a001                	j	2cee <TIM1_TRG_COM_IRQHandler>

00002cf0 <TIM1_CC_IRQHandler>:
    2cf0:	a001                	j	2cf0 <TIM1_CC_IRQHandler>

00002cf2 <TIM2_IRQHandler>:
    2cf2:	a001                	j	2cf2 <TIM2_IRQHandler>

00002cf4 <TIM3_IRQHandler>:
    2cf4:	a001                	j	2cf4 <TIM3_IRQHandler>

00002cf6 <TIM4_IRQHandler>:
    2cf6:	a001                	j	2cf6 <TIM4_IRQHandler>

00002cf8 <I2C1_EV_IRQHandler>:
    2cf8:	a001                	j	2cf8 <I2C1_EV_IRQHandler>

00002cfa <I2C1_ER_IRQHandler>:
    2cfa:	a001                	j	2cfa <I2C1_ER_IRQHandler>

00002cfc <I2C2_EV_IRQHandler>:
    2cfc:	a001                	j	2cfc <I2C2_EV_IRQHandler>

00002cfe <I2C2_ER_IRQHandler>:
    2cfe:	a001                	j	2cfe <I2C2_ER_IRQHandler>

00002d00 <SPI1_IRQHandler>:
    2d00:	a001                	j	2d00 <SPI1_IRQHandler>

00002d02 <SPI2_IRQHandler>:
    2d02:	a001                	j	2d02 <SPI2_IRQHandler>
    2d04:	a001                	j	2d04 <SPI2_IRQHandler+0x2>
    2d06:	a001                	j	2d06 <SPI2_IRQHandler+0x4>

00002d08 <USART3_IRQHandler>:
    2d08:	a001                	j	2d08 <USART3_IRQHandler>

00002d0a <EXTI15_10_IRQHandler>:
    2d0a:	a001                	j	2d0a <EXTI15_10_IRQHandler>

00002d0c <RTCAlarm_IRQHandler>:
    2d0c:	a001                	j	2d0c <RTCAlarm_IRQHandler>

00002d0e <USBWakeUp_IRQHandler>:
    2d0e:	a001                	j	2d0e <USBWakeUp_IRQHandler>

00002d10 <TIM8_BRK_IRQHandler>:
    2d10:	a001                	j	2d10 <TIM8_BRK_IRQHandler>

00002d12 <TIM8_UP_IRQHandler>:
    2d12:	a001                	j	2d12 <TIM8_UP_IRQHandler>

00002d14 <TIM8_TRG_COM_IRQHandler>:
    2d14:	a001                	j	2d14 <TIM8_TRG_COM_IRQHandler>

00002d16 <TIM8_CC_IRQHandler>:
    2d16:	a001                	j	2d16 <TIM8_CC_IRQHandler>

00002d18 <RNG_IRQHandler>:
    2d18:	a001                	j	2d18 <RNG_IRQHandler>

00002d1a <FSMC_IRQHandler>:
    2d1a:	a001                	j	2d1a <FSMC_IRQHandler>

00002d1c <SDIO_IRQHandler>:
    2d1c:	a001                	j	2d1c <SDIO_IRQHandler>

00002d1e <TIM5_IRQHandler>:
    2d1e:	a001                	j	2d1e <TIM5_IRQHandler>

00002d20 <SPI3_IRQHandler>:
    2d20:	a001                	j	2d20 <SPI3_IRQHandler>

00002d22 <UART4_IRQHandler>:
    2d22:	a001                	j	2d22 <UART4_IRQHandler>

00002d24 <UART5_IRQHandler>:
    2d24:	a001                	j	2d24 <UART5_IRQHandler>

00002d26 <TIM6_IRQHandler>:
    2d26:	a001                	j	2d26 <TIM6_IRQHandler>

00002d28 <TIM7_IRQHandler>:
    2d28:	a001                	j	2d28 <TIM7_IRQHandler>

00002d2a <DMA2_Channel1_IRQHandler>:
    2d2a:	a001                	j	2d2a <DMA2_Channel1_IRQHandler>

00002d2c <DMA2_Channel2_IRQHandler>:
    2d2c:	a001                	j	2d2c <DMA2_Channel2_IRQHandler>

00002d2e <DMA2_Channel3_IRQHandler>:
    2d2e:	a001                	j	2d2e <DMA2_Channel3_IRQHandler>

00002d30 <DMA2_Channel4_IRQHandler>:
    2d30:	a001                	j	2d30 <DMA2_Channel4_IRQHandler>

00002d32 <DMA2_Channel5_IRQHandler>:
    2d32:	a001                	j	2d32 <DMA2_Channel5_IRQHandler>

00002d34 <ETH_IRQHandler>:
    2d34:	a001                	j	2d34 <ETH_IRQHandler>

00002d36 <ETH_WKUP_IRQHandler>:
    2d36:	a001                	j	2d36 <ETH_WKUP_IRQHandler>

00002d38 <CAN2_TX_IRQHandler>:
    2d38:	a001                	j	2d38 <CAN2_TX_IRQHandler>

00002d3a <CAN2_RX0_IRQHandler>:
    2d3a:	a001                	j	2d3a <CAN2_RX0_IRQHandler>

00002d3c <CAN2_RX1_IRQHandler>:
    2d3c:	a001                	j	2d3c <CAN2_RX1_IRQHandler>

00002d3e <CAN2_SCE_IRQHandler>:
    2d3e:	a001                	j	2d3e <CAN2_SCE_IRQHandler>

00002d40 <OTG_FS_IRQHandler>:
    2d40:	a001                	j	2d40 <OTG_FS_IRQHandler>

00002d42 <USBHSWakeup_IRQHandler>:
    2d42:	a001                	j	2d42 <USBHSWakeup_IRQHandler>

00002d44 <USBHS_IRQHandler>:
    2d44:	a001                	j	2d44 <USBHS_IRQHandler>

00002d46 <DVP_IRQHandler>:
    2d46:	a001                	j	2d46 <DVP_IRQHandler>

00002d48 <UART6_IRQHandler>:
    2d48:	a001                	j	2d48 <UART6_IRQHandler>

00002d4a <UART7_IRQHandler>:
    2d4a:	a001                	j	2d4a <UART7_IRQHandler>

00002d4c <UART8_IRQHandler>:
    2d4c:	a001                	j	2d4c <UART8_IRQHandler>

00002d4e <TIM9_BRK_IRQHandler>:
    2d4e:	a001                	j	2d4e <TIM9_BRK_IRQHandler>

00002d50 <TIM9_UP_IRQHandler>:
    2d50:	a001                	j	2d50 <TIM9_UP_IRQHandler>

00002d52 <TIM9_TRG_COM_IRQHandler>:
    2d52:	a001                	j	2d52 <TIM9_TRG_COM_IRQHandler>

00002d54 <TIM9_CC_IRQHandler>:
    2d54:	a001                	j	2d54 <TIM9_CC_IRQHandler>

00002d56 <TIM10_BRK_IRQHandler>:
    2d56:	a001                	j	2d56 <TIM10_BRK_IRQHandler>

00002d58 <TIM10_UP_IRQHandler>:
    2d58:	a001                	j	2d58 <TIM10_UP_IRQHandler>

00002d5a <TIM10_TRG_COM_IRQHandler>:
    2d5a:	a001                	j	2d5a <TIM10_TRG_COM_IRQHandler>

00002d5c <TIM10_CC_IRQHandler>:
    2d5c:	a001                	j	2d5c <TIM10_CC_IRQHandler>

00002d5e <DMA2_Channel6_IRQHandler>:
    2d5e:	a001                	j	2d5e <DMA2_Channel6_IRQHandler>

00002d60 <DMA2_Channel7_IRQHandler>:
    2d60:	a001                	j	2d60 <DMA2_Channel7_IRQHandler>

00002d62 <DMA2_Channel8_IRQHandler>:
    2d62:	a001                	j	2d62 <DMA2_Channel8_IRQHandler>

00002d64 <DMA2_Channel9_IRQHandler>:
    2d64:	a001                	j	2d64 <DMA2_Channel9_IRQHandler>

00002d66 <DMA2_Channel10_IRQHandler>:
    2d66:	a001                	j	2d66 <DMA2_Channel10_IRQHandler>

00002d68 <DMA2_Channel11_IRQHandler>:
    2d68:	a001                	j	2d68 <DMA2_Channel11_IRQHandler>

00002d6a <handle_reset>:
    2d6a:	1fffe197          	auipc	gp,0x1fffe
    2d6e:	c7618193          	addi	gp,gp,-906 # 200009e0 <__global_pointer$>
    2d72:	2000d117          	auipc	sp,0x2000d
    2d76:	28e10113          	addi	sp,sp,654 # 20010000 <__freertos_irq_stack_top>
    2d7a:	0000c517          	auipc	a0,0xc
    2d7e:	36a50513          	addi	a0,a0,874 # f0e4 <_data_lma>
    2d82:	1fffd597          	auipc	a1,0x1fffd
    2d86:	27e58593          	addi	a1,a1,638 # 20000000 <_data_vma>
    2d8a:	82018613          	addi	a2,gp,-2016 # 20000200 <_edata>
    2d8e:	00c5fa63          	bgeu	a1,a2,2da2 <handle_reset+0x38>
    2d92:	00052283          	lw	t0,0(a0)
    2d96:	0055a023          	sw	t0,0(a1)
    2d9a:	0511                	addi	a0,a0,4
    2d9c:	0591                	addi	a1,a1,4
    2d9e:	fec5eae3          	bltu	a1,a2,2d92 <handle_reset+0x28>
    2da2:	1fffd517          	auipc	a0,0x1fffd
    2da6:	45e50513          	addi	a0,a0,1118 # 20000200 <_edata>
    2daa:	20000597          	auipc	a1,0x20000
    2dae:	72a58593          	addi	a1,a1,1834 # 200034d4 <_ebss>
    2db2:	00b57763          	bgeu	a0,a1,2dc0 <handle_reset+0x56>
    2db6:	00052023          	sw	zero,0(a0)
    2dba:	0511                	addi	a0,a0,4
    2dbc:	feb56de3          	bltu	a0,a1,2db6 <handle_reset+0x4c>
    2dc0:	42fd                	li	t0,31
    2dc2:	bc029073          	csrw	0xbc0,t0
    2dc6:	42fd                	li	t0,31
    2dc8:	80429073          	csrw	0x804,t0
    2dcc:	000082b7          	lui	t0,0x8
    2dd0:	80028293          	addi	t0,t0,-2048 # 7800 <_dtoa_r+0x9fa>
    2dd4:	3002a073          	csrs	mstatus,t0
    2dd8:	ffffd297          	auipc	t0,0xffffd
    2ddc:	26028293          	addi	t0,t0,608 # 38 <_einit>
    2de0:	0032e293          	ori	t0,t0,3
    2de4:	30529073          	csrw	mtvec,t0
    2de8:	9bcfe0ef          	jal	ra,fa4 <SystemInit>
    2dec:	ffffe297          	auipc	t0,0xffffe
    2df0:	f0a28293          	addi	t0,t0,-246 # cf6 <main>
    2df4:	34129073          	csrw	mepc,t0
    2df8:	30200073          	mret

00002dfc <FSMC_NORSRAMInit>:
    2dfc:	4514                	lw	a3,8(a0)
    2dfe:	415c                	lw	a5,4(a0)
    2e00:	4558                	lw	a4,12(a0)
    2e02:	02c52803          	lw	a6,44(a0)
    2e06:	8fd5                	or	a5,a5,a3
    2e08:	8fd9                	or	a5,a5,a4
    2e0a:	4918                	lw	a4,16(a0)
    2e0c:	a0000637          	lui	a2,0xa0000
    2e10:	8fd9                	or	a5,a5,a4
    2e12:	4958                	lw	a4,20(a0)
    2e14:	8fd9                	or	a5,a5,a4
    2e16:	4d18                	lw	a4,24(a0)
    2e18:	8fd9                	or	a5,a5,a4
    2e1a:	4d58                	lw	a4,28(a0)
    2e1c:	8fd9                	or	a5,a5,a4
    2e1e:	5118                	lw	a4,32(a0)
    2e20:	8fd9                	or	a5,a5,a4
    2e22:	5158                	lw	a4,36(a0)
    2e24:	8fd9                	or	a5,a5,a4
    2e26:	5518                	lw	a4,40(a0)
    2e28:	8fd9                	or	a5,a5,a4
    2e2a:	5918                	lw	a4,48(a0)
    2e2c:	0107e7b3          	or	a5,a5,a6
    2e30:	8fd9                	or	a5,a5,a4
    2e32:	4118                	lw	a4,0(a0)
    2e34:	070a                	slli	a4,a4,0x2
    2e36:	963a                	add	a2,a2,a4
    2e38:	c21c                	sw	a5,0(a2)
    2e3a:	47a1                	li	a5,8
    2e3c:	00f69663          	bne	a3,a5,2e48 <FSMC_NORSRAMInit+0x4c>
    2e40:	421c                	lw	a5,0(a2)
    2e42:	0407e793          	ori	a5,a5,64
    2e46:	c21c                	sw	a5,0(a2)
    2e48:	5954                	lw	a3,52(a0)
    2e4a:	4e8c                	lw	a1,24(a3)
    2e4c:	429c                	lw	a5,0(a3)
    2e4e:	8fcd                	or	a5,a5,a1
    2e50:	42cc                	lw	a1,4(a3)
    2e52:	0592                	slli	a1,a1,0x4
    2e54:	8fcd                	or	a5,a5,a1
    2e56:	468c                	lw	a1,8(a3)
    2e58:	05a2                	slli	a1,a1,0x8
    2e5a:	8fcd                	or	a5,a5,a1
    2e5c:	46cc                	lw	a1,12(a3)
    2e5e:	05c2                	slli	a1,a1,0x10
    2e60:	8fcd                	or	a5,a5,a1
    2e62:	4a8c                	lw	a1,16(a3)
    2e64:	4ad4                	lw	a3,20(a3)
    2e66:	05d2                	slli	a1,a1,0x14
    2e68:	8fcd                	or	a5,a5,a1
    2e6a:	06e2                	slli	a3,a3,0x18
    2e6c:	8fd5                	or	a5,a5,a3
    2e6e:	c25c                	sw	a5,4(a2)
    2e70:	6791                	lui	a5,0x4
    2e72:	02f81963          	bne	a6,a5,2ea4 <FSMC_NORSRAMInit+0xa8>
    2e76:	5d14                	lw	a3,56(a0)
    2e78:	4e90                	lw	a2,24(a3)
    2e7a:	429c                	lw	a5,0(a3)
    2e7c:	8fd1                	or	a5,a5,a2
    2e7e:	42d0                	lw	a2,4(a3)
    2e80:	0612                	slli	a2,a2,0x4
    2e82:	8fd1                	or	a5,a5,a2
    2e84:	4690                	lw	a2,8(a3)
    2e86:	0622                	slli	a2,a2,0x8
    2e88:	8fd1                	or	a5,a5,a2
    2e8a:	4a90                	lw	a2,16(a3)
    2e8c:	4ad4                	lw	a3,20(a3)
    2e8e:	0652                	slli	a2,a2,0x14
    2e90:	06e2                	slli	a3,a3,0x18
    2e92:	8fd1                	or	a5,a5,a2
    2e94:	8fd5                	or	a5,a5,a3
    2e96:	a00006b7          	lui	a3,0xa0000
    2e9a:	10468693          	addi	a3,a3,260 # a0000104 <__freertos_irq_stack_top+0x7fff0104>
    2e9e:	9736                	add	a4,a4,a3
    2ea0:	c31c                	sw	a5,0(a4)
    2ea2:	8082                	ret
    2ea4:	a00007b7          	lui	a5,0xa0000
    2ea8:	10478793          	addi	a5,a5,260 # a0000104 <__freertos_irq_stack_top+0x7fff0104>
    2eac:	973e                	add	a4,a4,a5
    2eae:	100007b7          	lui	a5,0x10000
    2eb2:	17fd                	addi	a5,a5,-1
    2eb4:	b7f5                	j	2ea0 <FSMC_NORSRAMInit+0xa4>

00002eb6 <FSMC_NORSRAMCmd>:
    2eb6:	a00007b7          	lui	a5,0xa0000
    2eba:	050a                	slli	a0,a0,0x2
    2ebc:	953e                	add	a0,a0,a5
    2ebe:	411c                	lw	a5,0(a0)
    2ec0:	c589                	beqz	a1,2eca <FSMC_NORSRAMCmd+0x14>
    2ec2:	0017e793          	ori	a5,a5,1
    2ec6:	c11c                	sw	a5,0(a0)
    2ec8:	8082                	ret
    2eca:	00100737          	lui	a4,0x100
    2ece:	1779                	addi	a4,a4,-2
    2ed0:	8ff9                	and	a5,a5,a4
    2ed2:	bfd5                	j	2ec6 <FSMC_NORSRAMCmd+0x10>

00002ed4 <GPIO_Init>:
    2ed4:	459c                	lw	a5,8(a1)
    2ed6:	0107f713          	andi	a4,a5,16
    2eda:	00f7f813          	andi	a6,a5,15
    2ede:	c701                	beqz	a4,2ee6 <GPIO_Init+0x12>
    2ee0:	41d8                	lw	a4,4(a1)
    2ee2:	00e86833          	or	a6,a6,a4
    2ee6:	218e                	lhu	a1,0(a1)
    2ee8:	0ff5f713          	andi	a4,a1,255
    2eec:	c339                	beqz	a4,2f32 <GPIO_Init+0x5e>
    2eee:	4118                	lw	a4,0(a0)
    2ef0:	4681                	li	a3,0
    2ef2:	4e85                	li	t4,1
    2ef4:	4f3d                	li	t5,15
    2ef6:	02800f93          	li	t6,40
    2efa:	04800293          	li	t0,72
    2efe:	4e21                	li	t3,8
    2f00:	00de9633          	sll	a2,t4,a3
    2f04:	00c5f8b3          	and	a7,a1,a2
    2f08:	03161163          	bne	a2,a7,2f2a <GPIO_Init+0x56>
    2f0c:	00269893          	slli	a7,a3,0x2
    2f10:	011f1333          	sll	t1,t5,a7
    2f14:	fff34313          	not	t1,t1
    2f18:	00e37733          	and	a4,t1,a4
    2f1c:	011818b3          	sll	a7,a6,a7
    2f20:	00e8e733          	or	a4,a7,a4
    2f24:	05f79f63          	bne	a5,t6,2f82 <GPIO_Init+0xae>
    2f28:	c950                	sw	a2,20(a0)
    2f2a:	0685                	addi	a3,a3,1
    2f2c:	fdc69ae3          	bne	a3,t3,2f00 <GPIO_Init+0x2c>
    2f30:	c118                	sw	a4,0(a0)
    2f32:	0ff00713          	li	a4,255
    2f36:	04b77563          	bgeu	a4,a1,2f80 <GPIO_Init+0xac>
    2f3a:	4154                	lw	a3,4(a0)
    2f3c:	4621                	li	a2,8
    2f3e:	4e85                	li	t4,1
    2f40:	4f3d                	li	t5,15
    2f42:	02800f93          	li	t6,40
    2f46:	04800293          	li	t0,72
    2f4a:	4e41                	li	t3,16
    2f4c:	00ce98b3          	sll	a7,t4,a2
    2f50:	0115f733          	and	a4,a1,a7
    2f54:	02e89263          	bne	a7,a4,2f78 <GPIO_Init+0xa4>
    2f58:	00261713          	slli	a4,a2,0x2
    2f5c:	1701                	addi	a4,a4,-32
    2f5e:	00ef1333          	sll	t1,t5,a4
    2f62:	fff34313          	not	t1,t1
    2f66:	00d376b3          	and	a3,t1,a3
    2f6a:	00e81733          	sll	a4,a6,a4
    2f6e:	8ed9                	or	a3,a3,a4
    2f70:	01f79d63          	bne	a5,t6,2f8a <GPIO_Init+0xb6>
    2f74:	01152a23          	sw	a7,20(a0)
    2f78:	0605                	addi	a2,a2,1
    2f7a:	fdc619e3          	bne	a2,t3,2f4c <GPIO_Init+0x78>
    2f7e:	c154                	sw	a3,4(a0)
    2f80:	8082                	ret
    2f82:	fa5794e3          	bne	a5,t0,2f2a <GPIO_Init+0x56>
    2f86:	c910                	sw	a2,16(a0)
    2f88:	b74d                	j	2f2a <GPIO_Init+0x56>
    2f8a:	fe5797e3          	bne	a5,t0,2f78 <GPIO_Init+0xa4>
    2f8e:	01152823          	sw	a7,16(a0)
    2f92:	b7dd                	j	2f78 <GPIO_Init+0xa4>

00002f94 <GPIO_SetBits>:
    2f94:	c90c                	sw	a1,16(a0)
    2f96:	8082                	ret

00002f98 <GPIO_ResetBits>:
    2f98:	c94c                	sw	a1,20(a0)
    2f9a:	8082                	ret

00002f9c <NVIC_PriorityGroupConfig>:
    2f9c:	200007b7          	lui	a5,0x20000
    2fa0:	28a7aa23          	sw	a0,660(a5) # 20000294 <NVIC_Priority_Group>
    2fa4:	8082                	ret

00002fa6 <NVIC_Init>:
    2fa6:	200007b7          	lui	a5,0x20000
    2faa:	29478793          	addi	a5,a5,660 # 20000294 <NVIC_Priority_Group>
    2fae:	4394                	lw	a3,0(a5)
    2fb0:	2118                	lbu	a4,0(a0)
    2fb2:	e681                	bnez	a3,2fba <NVIC_Init+0x14>
    2fb4:	213c                	lbu	a5,2(a0)
    2fb6:	0792                	slli	a5,a5,0x4
    2fb8:	a821                	j	2fd0 <NVIC_Init+0x2a>
    2fba:	4394                	lw	a3,0(a5)
    2fbc:	4605                	li	a2,1
    2fbe:	02c69f63          	bne	a3,a2,2ffc <NVIC_Init+0x56>
    2fc2:	213c                	lbu	a5,2(a0)
    2fc4:	3110                	lbu	a2,1(a0)
    2fc6:	0792                	slli	a5,a5,0x4
    2fc8:	00d61463          	bne	a2,a3,2fd0 <NVIC_Init+0x2a>
    2fcc:	f807e793          	ori	a5,a5,-128
    2fd0:	e000e6b7          	lui	a3,0xe000e
    2fd4:	0ff7f793          	andi	a5,a5,255
    2fd8:	96ba                	add	a3,a3,a4
    2fda:	40f68023          	sb	a5,1024(a3) # e000e400 <__freertos_irq_stack_top+0xbfffe400>
    2fde:	4685                	li	a3,1
    2fe0:	00575793          	srli	a5,a4,0x5
    2fe4:	00e69733          	sll	a4,a3,a4
    2fe8:	4154                	lw	a3,4(a0)
    2fea:	c2a5                	beqz	a3,304a <NVIC_Init+0xa4>
    2fec:	04078793          	addi	a5,a5,64
    2ff0:	078a                	slli	a5,a5,0x2
    2ff2:	e000e6b7          	lui	a3,0xe000e
    2ff6:	97b6                	add	a5,a5,a3
    2ff8:	c398                	sw	a4,0(a5)
    2ffa:	8082                	ret
    2ffc:	438c                	lw	a1,0(a5)
    2ffe:	4689                	li	a3,2
    3000:	02d59163          	bne	a1,a3,3022 <NVIC_Init+0x7c>
    3004:	3114                	lbu	a3,1(a0)
    3006:	213c                	lbu	a5,2(a0)
    3008:	00d66563          	bltu	a2,a3,3012 <NVIC_Init+0x6c>
    300c:	068a                	slli	a3,a3,0x2
    300e:	97b6                	add	a5,a5,a3
    3010:	b75d                	j	2fb6 <NVIC_Init+0x10>
    3012:	03e68693          	addi	a3,a3,62 # e000e03e <__freertos_irq_stack_top+0xbfffe03e>
    3016:	068a                	slli	a3,a3,0x2
    3018:	97b6                	add	a5,a5,a3
    301a:	0ff7f793          	andi	a5,a5,255
    301e:	0792                	slli	a5,a5,0x4
    3020:	b775                	j	2fcc <NVIC_Init+0x26>
    3022:	4390                	lw	a2,0(a5)
    3024:	468d                	li	a3,3
    3026:	00d61c63          	bne	a2,a3,303e <NVIC_Init+0x98>
    302a:	3114                	lbu	a3,1(a0)
    302c:	213c                	lbu	a5,2(a0)
    302e:	00d66463          	bltu	a2,a3,3036 <NVIC_Init+0x90>
    3032:	0686                	slli	a3,a3,0x1
    3034:	bfe9                	j	300e <NVIC_Init+0x68>
    3036:	07c68693          	addi	a3,a3,124
    303a:	0686                	slli	a3,a3,0x1
    303c:	bff1                	j	3018 <NVIC_Init+0x72>
    303e:	4394                	lw	a3,0(a5)
    3040:	4791                	li	a5,4
    3042:	f8f69ee3          	bne	a3,a5,2fde <NVIC_Init+0x38>
    3046:	311c                	lbu	a5,1(a0)
    3048:	b7bd                	j	2fb6 <NVIC_Init+0x10>
    304a:	06078793          	addi	a5,a5,96
    304e:	b74d                	j	2ff0 <NVIC_Init+0x4a>

00003050 <RCC_GetClocksFreq>:
    3050:	40021737          	lui	a4,0x40021
    3054:	435c                	lw	a5,4(a4)
    3056:	4691                	li	a3,4
    3058:	8bb1                	andi	a5,a5,12
    305a:	00d78563          	beq	a5,a3,3064 <RCC_GetClocksFreq+0x14>
    305e:	46a1                	li	a3,8
    3060:	06d78263          	beq	a5,a3,30c4 <RCC_GetClocksFreq+0x74>
    3064:	007a17b7          	lui	a5,0x7a1
    3068:	20078793          	addi	a5,a5,512 # 7a1200 <_data_lma+0x79211c>
    306c:	c11c                	sw	a5,0(a0)
    306e:	40021637          	lui	a2,0x40021
    3072:	425c                	lw	a5,4(a2)
    3074:	20000737          	lui	a4,0x20000
    3078:	00070713          	mv	a4,a4
    307c:	8391                	srli	a5,a5,0x4
    307e:	8bbd                	andi	a5,a5,15
    3080:	97ba                	add	a5,a5,a4
    3082:	2394                	lbu	a3,0(a5)
    3084:	411c                	lw	a5,0(a0)
    3086:	00d7d7b3          	srl	a5,a5,a3
    308a:	c15c                	sw	a5,4(a0)
    308c:	4254                	lw	a3,4(a2)
    308e:	82a1                	srli	a3,a3,0x8
    3090:	8a9d                	andi	a3,a3,7
    3092:	96ba                	add	a3,a3,a4
    3094:	2294                	lbu	a3,0(a3)
    3096:	00d7d6b3          	srl	a3,a5,a3
    309a:	c514                	sw	a3,8(a0)
    309c:	4254                	lw	a3,4(a2)
    309e:	82ad                	srli	a3,a3,0xb
    30a0:	8a9d                	andi	a3,a3,7
    30a2:	9736                	add	a4,a4,a3
    30a4:	2318                	lbu	a4,0(a4)
    30a6:	00e7d7b3          	srl	a5,a5,a4
    30aa:	c55c                	sw	a5,12(a0)
    30ac:	4258                	lw	a4,4(a2)
    30ae:	8339                	srli	a4,a4,0xe
    30b0:	00377693          	andi	a3,a4,3
    30b4:	80c18713          	addi	a4,gp,-2036 # 200001ec <ADCPrescTable>
    30b8:	9736                	add	a4,a4,a3
    30ba:	2318                	lbu	a4,0(a4)
    30bc:	02e7d7b3          	divu	a5,a5,a4
    30c0:	c91c                	sw	a5,16(a0)
    30c2:	8082                	ret
    30c4:	435c                	lw	a5,4(a4)
    30c6:	4358                	lw	a4,4(a4)
    30c8:	66c1                	lui	a3,0x10
    30ca:	83c9                	srli	a5,a5,0x12
    30cc:	8f75                	and	a4,a4,a3
    30ce:	1ffff6b7          	lui	a3,0x1ffff
    30d2:	70c6a683          	lw	a3,1804(a3) # 1ffff70c <_data_lma+0x1fff0628>
    30d6:	8bbd                	andi	a5,a5,15
    30d8:	0789                	addi	a5,a5,2
    30da:	01169613          	slli	a2,a3,0x11
    30de:	00064863          	bltz	a2,30ee <RCC_GetClocksFreq+0x9e>
    30e2:	46c5                	li	a3,17
    30e4:	4601                	li	a2,0
    30e6:	02d79263          	bne	a5,a3,310a <RCC_GetClocksFreq+0xba>
    30ea:	47c9                	li	a5,18
    30ec:	a839                	j	310a <RCC_GetClocksFreq+0xba>
    30ee:	4689                	li	a3,2
    30f0:	02d78f63          	beq	a5,a3,312e <RCC_GetClocksFreq+0xde>
    30f4:	46bd                	li	a3,15
    30f6:	02d78e63          	beq	a5,a3,3132 <RCC_GetClocksFreq+0xe2>
    30fa:	46c1                	li	a3,16
    30fc:	02d78e63          	beq	a5,a3,3138 <RCC_GetClocksFreq+0xe8>
    3100:	46c5                	li	a3,17
    3102:	4601                	li	a2,0
    3104:	00d79363          	bne	a5,a3,310a <RCC_GetClocksFreq+0xba>
    3108:	47c1                	li	a5,16
    310a:	ef1d                	bnez	a4,3148 <RCC_GetClocksFreq+0xf8>
    310c:	40024737          	lui	a4,0x40024
    3110:	80072703          	lw	a4,-2048(a4) # 40023800 <__freertos_irq_stack_top+0x20013800>
    3114:	8b41                	andi	a4,a4,16
    3116:	c705                	beqz	a4,313e <RCC_GetClocksFreq+0xee>
    3118:	007a1737          	lui	a4,0x7a1
    311c:	20070713          	addi	a4,a4,512 # 7a1200 <_data_lma+0x79211c>
    3120:	02f707b3          	mul	a5,a4,a5
    3124:	c11c                	sw	a5,0(a0)
    3126:	d621                	beqz	a2,306e <RCC_GetClocksFreq+0x1e>
    3128:	411c                	lw	a5,0(a0)
    312a:	8385                	srli	a5,a5,0x1
    312c:	b781                	j	306c <RCC_GetClocksFreq+0x1c>
    312e:	4601                	li	a2,0
    3130:	bf6d                	j	30ea <RCC_GetClocksFreq+0x9a>
    3132:	4605                	li	a2,1
    3134:	47b5                	li	a5,13
    3136:	bfd1                	j	310a <RCC_GetClocksFreq+0xba>
    3138:	4601                	li	a2,0
    313a:	47bd                	li	a5,15
    313c:	b7f9                	j	310a <RCC_GetClocksFreq+0xba>
    313e:	003d1737          	lui	a4,0x3d1
    3142:	90070713          	addi	a4,a4,-1792 # 3d0900 <_data_lma+0x3c181c>
    3146:	bfe9                	j	3120 <RCC_GetClocksFreq+0xd0>
    3148:	400215b7          	lui	a1,0x40021
    314c:	55d8                	lw	a4,44(a1)
    314e:	00f71693          	slli	a3,a4,0xf
    3152:	55d8                	lw	a4,44(a1)
    3154:	0406df63          	bgez	a3,31b2 <RCC_GetClocksFreq+0x162>
    3158:	8311                	srli	a4,a4,0x4
    315a:	8b3d                	andi	a4,a4,15
    315c:	00170693          	addi	a3,a4,1
    3160:	007a1737          	lui	a4,0x7a1
    3164:	20070713          	addi	a4,a4,512 # 7a1200 <_data_lma+0x79211c>
    3168:	02d75733          	divu	a4,a4,a3
    316c:	c118                	sw	a4,0(a0)
    316e:	55d4                	lw	a3,44(a1)
    3170:	82a1                	srli	a3,a3,0x8
    3172:	8abd                	andi	a3,a3,15
    3174:	e28d                	bnez	a3,3196 <RCC_GetClocksFreq+0x146>
    3176:	4695                	li	a3,5
    3178:	02d70733          	mul	a4,a4,a3
    317c:	8305                	srli	a4,a4,0x1
    317e:	c118                	sw	a4,0(a0)
    3180:	40021737          	lui	a4,0x40021
    3184:	5758                	lw	a4,44(a4)
    3186:	4114                	lw	a3,0(a0)
    3188:	8b3d                	andi	a4,a4,15
    318a:	0705                	addi	a4,a4,1
    318c:	02e6d733          	divu	a4,a3,a4
    3190:	c118                	sw	a4,0(a0)
    3192:	4118                	lw	a4,0(a0)
    3194:	b771                	j	3120 <RCC_GetClocksFreq+0xd0>
    3196:	4585                	li	a1,1
    3198:	00b69463          	bne	a3,a1,31a0 <RCC_GetClocksFreq+0x150>
    319c:	46e5                	li	a3,25
    319e:	bfe9                	j	3178 <RCC_GetClocksFreq+0x128>
    31a0:	45bd                	li	a1,15
    31a2:	00b69663          	bne	a3,a1,31ae <RCC_GetClocksFreq+0x15e>
    31a6:	46d1                	li	a3,20
    31a8:	02e68733          	mul	a4,a3,a4
    31ac:	bfc9                	j	317e <RCC_GetClocksFreq+0x12e>
    31ae:	0689                	addi	a3,a3,2
    31b0:	bfe5                	j	31a8 <RCC_GetClocksFreq+0x158>
    31b2:	8b3d                	andi	a4,a4,15
    31b4:	00170693          	addi	a3,a4,1 # 40021001 <__freertos_irq_stack_top+0x20011001>
    31b8:	007a1737          	lui	a4,0x7a1
    31bc:	20070713          	addi	a4,a4,512 # 7a1200 <_data_lma+0x79211c>
    31c0:	02d75733          	divu	a4,a4,a3
    31c4:	b7f1                	j	3190 <RCC_GetClocksFreq+0x140>

000031c6 <RCC_AHBPeriphClockCmd>:
    31c6:	c599                	beqz	a1,31d4 <RCC_AHBPeriphClockCmd+0xe>
    31c8:	40021737          	lui	a4,0x40021
    31cc:	4b5c                	lw	a5,20(a4)
    31ce:	8d5d                	or	a0,a0,a5
    31d0:	cb48                	sw	a0,20(a4)
    31d2:	8082                	ret
    31d4:	400217b7          	lui	a5,0x40021
    31d8:	4bd8                	lw	a4,20(a5)
    31da:	fff54513          	not	a0,a0
    31de:	8d79                	and	a0,a0,a4
    31e0:	cbc8                	sw	a0,20(a5)
    31e2:	8082                	ret

000031e4 <RCC_APB2PeriphClockCmd>:
    31e4:	c599                	beqz	a1,31f2 <RCC_APB2PeriphClockCmd+0xe>
    31e6:	40021737          	lui	a4,0x40021
    31ea:	4f1c                	lw	a5,24(a4)
    31ec:	8d5d                	or	a0,a0,a5
    31ee:	cf08                	sw	a0,24(a4)
    31f0:	8082                	ret
    31f2:	400217b7          	lui	a5,0x40021
    31f6:	4f98                	lw	a4,24(a5)
    31f8:	fff54513          	not	a0,a0
    31fc:	8d79                	and	a0,a0,a4
    31fe:	cf88                	sw	a0,24(a5)
    3200:	8082                	ret

00003202 <RCC_APB1PeriphClockCmd>:
    3202:	c599                	beqz	a1,3210 <RCC_APB1PeriphClockCmd+0xe>
    3204:	40021737          	lui	a4,0x40021
    3208:	4f5c                	lw	a5,28(a4)
    320a:	8d5d                	or	a0,a0,a5
    320c:	cf48                	sw	a0,28(a4)
    320e:	8082                	ret
    3210:	400217b7          	lui	a5,0x40021
    3214:	4fd8                	lw	a4,28(a5)
    3216:	fff54513          	not	a0,a0
    321a:	8d79                	and	a0,a0,a4
    321c:	cfc8                	sw	a0,28(a5)
    321e:	8082                	ret

00003220 <USART_Init>:
    3220:	af6fd2ef          	jal	t0,516 <__riscv_save_0>
    3224:	2916                	lhu	a3,16(a0)
    3226:	77f5                	lui	a5,0xffffd
    3228:	17fd                	addi	a5,a5,-1
    322a:	8ff5                	and	a5,a5,a3
    322c:	21f6                	lhu	a3,6(a1)
    322e:	25da                	lhu	a4,12(a1)
    3230:	7179                	addi	sp,sp,-48
    3232:	8fd5                	or	a5,a5,a3
    3234:	a91e                	sh	a5,16(a0)
    3236:	2556                	lhu	a3,12(a0)
    3238:	77fd                	lui	a5,0xfffff
    323a:	9f378793          	addi	a5,a5,-1549 # ffffe9f3 <__freertos_irq_stack_top+0xdffee9f3>
    323e:	8ff5                	and	a5,a5,a3
    3240:	21d6                	lhu	a3,4(a1)
    3242:	842a                	mv	s0,a0
    3244:	c62e                	sw	a1,12(sp)
    3246:	8fd5                	or	a5,a5,a3
    3248:	2596                	lhu	a3,8(a1)
    324a:	8fd5                	or	a5,a5,a3
    324c:	25b6                	lhu	a3,10(a1)
    324e:	8fd5                	or	a5,a5,a3
    3250:	a55e                	sh	a5,12(a0)
    3252:	295e                	lhu	a5,20(a0)
    3254:	07c2                	slli	a5,a5,0x10
    3256:	83c1                	srli	a5,a5,0x10
    3258:	cff7f793          	andi	a5,a5,-769
    325c:	8fd9                	or	a5,a5,a4
    325e:	a95e                	sh	a5,20(a0)
    3260:	0868                	addi	a0,sp,28
    3262:	defff0ef          	jal	ra,3050 <RCC_GetClocksFreq>
    3266:	400147b7          	lui	a5,0x40014
    326a:	80078793          	addi	a5,a5,-2048 # 40013800 <__freertos_irq_stack_top+0x20003800>
    326e:	45b2                	lw	a1,12(sp)
    3270:	04f41a63          	bne	s0,a5,32c4 <USART_Init+0xa4>
    3274:	57a2                	lw	a5,40(sp)
    3276:	2456                	lhu	a3,12(s0)
    3278:	4765                	li	a4,25
    327a:	02e787b3          	mul	a5,a5,a4
    327e:	06c2                	slli	a3,a3,0x10
    3280:	86c1                	srai	a3,a3,0x10
    3282:	4198                	lw	a4,0(a1)
    3284:	0406d263          	bgez	a3,32c8 <USART_Init+0xa8>
    3288:	0706                	slli	a4,a4,0x1
    328a:	2452                	lhu	a2,12(s0)
    328c:	0642                	slli	a2,a2,0x10
    328e:	02e7d7b3          	divu	a5,a5,a4
    3292:	06400713          	li	a4,100
    3296:	8641                	srai	a2,a2,0x10
    3298:	02e7d6b3          	divu	a3,a5,a4
    329c:	02e7f7b3          	remu	a5,a5,a4
    32a0:	0692                	slli	a3,a3,0x4
    32a2:	02065563          	bgez	a2,32cc <USART_Init+0xac>
    32a6:	078e                	slli	a5,a5,0x3
    32a8:	03278793          	addi	a5,a5,50
    32ac:	02e7d7b3          	divu	a5,a5,a4
    32b0:	0077f713          	andi	a4,a5,7
    32b4:	00d767b3          	or	a5,a4,a3
    32b8:	07c2                	slli	a5,a5,0x10
    32ba:	83c1                	srli	a5,a5,0x10
    32bc:	a41e                	sh	a5,8(s0)
    32be:	6145                	addi	sp,sp,48
    32c0:	a7afd06f          	j	53a <__riscv_restore_0>
    32c4:	5792                	lw	a5,36(sp)
    32c6:	bf45                	j	3276 <USART_Init+0x56>
    32c8:	070a                	slli	a4,a4,0x2
    32ca:	b7c1                	j	328a <USART_Init+0x6a>
    32cc:	0792                	slli	a5,a5,0x4
    32ce:	03278793          	addi	a5,a5,50
    32d2:	02e7d7b3          	divu	a5,a5,a4
    32d6:	8bbd                	andi	a5,a5,15
    32d8:	8fd5                	or	a5,a5,a3
    32da:	bff9                	j	32b8 <USART_Init+0x98>

000032dc <USART_Cmd>:
    32dc:	c591                	beqz	a1,32e8 <USART_Cmd+0xc>
    32de:	255e                	lhu	a5,12(a0)
    32e0:	6709                	lui	a4,0x2
    32e2:	8fd9                	or	a5,a5,a4
    32e4:	a55e                	sh	a5,12(a0)
    32e6:	8082                	ret
    32e8:	255a                	lhu	a4,12(a0)
    32ea:	77f9                	lui	a5,0xffffe
    32ec:	17fd                	addi	a5,a5,-1
    32ee:	8ff9                	and	a5,a5,a4
    32f0:	bfd5                	j	32e4 <USART_Cmd+0x8>

000032f2 <USART_ITConfig>:
    32f2:	0ff5f713          	andi	a4,a1,255
    32f6:	4785                	li	a5,1
    32f8:	8315                	srli	a4,a4,0x5
    32fa:	00b795b3          	sll	a1,a5,a1
    32fe:	00f71963          	bne	a4,a5,3310 <USART_ITConfig+0x1e>
    3302:	00c50793          	addi	a5,a0,12
    3306:	4398                	lw	a4,0(a5)
    3308:	ce01                	beqz	a2,3320 <USART_ITConfig+0x2e>
    330a:	8dd9                	or	a1,a1,a4
    330c:	c38c                	sw	a1,0(a5)
    330e:	8082                	ret
    3310:	4689                	li	a3,2
    3312:	01450793          	addi	a5,a0,20
    3316:	fed718e3          	bne	a4,a3,3306 <USART_ITConfig+0x14>
    331a:	01050793          	addi	a5,a0,16
    331e:	b7e5                	j	3306 <USART_ITConfig+0x14>
    3320:	fff5c593          	not	a1,a1
    3324:	8df9                	and	a1,a1,a4
    3326:	b7dd                	j	330c <USART_ITConfig+0x1a>

00003328 <USART_SendData>:
    3328:	1ff5f593          	andi	a1,a1,511
    332c:	a14e                	sh	a1,4(a0)
    332e:	8082                	ret

00003330 <USART_ReceiveData>:
    3330:	214a                	lhu	a0,4(a0)
    3332:	1ff57513          	andi	a0,a0,511
    3336:	8082                	ret

00003338 <USART_GetFlagStatus>:
    3338:	210a                	lhu	a0,0(a0)
    333a:	8d6d                	and	a0,a0,a1
    333c:	00a03533          	snez	a0,a0
    3340:	8082                	ret

00003342 <USART_GetITStatus>:
    3342:	0ff5f713          	andi	a4,a1,255
    3346:	4685                	li	a3,1
    3348:	8315                	srli	a4,a4,0x5
    334a:	00b697b3          	sll	a5,a3,a1
    334e:	02d71163          	bne	a4,a3,3370 <USART_GetITStatus+0x2e>
    3352:	255a                	lhu	a4,12(a0)
    3354:	8ff9                	and	a5,a5,a4
    3356:	211a                	lhu	a4,0(a0)
    3358:	4501                	li	a0,0
    335a:	0742                	slli	a4,a4,0x10
    335c:	8341                	srli	a4,a4,0x10
    335e:	cb81                	beqz	a5,336e <USART_GetITStatus+0x2c>
    3360:	4505                	li	a0,1
    3362:	81a1                	srli	a1,a1,0x8
    3364:	00b515b3          	sll	a1,a0,a1
    3368:	8f6d                	and	a4,a4,a1
    336a:	00e03533          	snez	a0,a4
    336e:	8082                	ret
    3370:	4689                	li	a3,2
    3372:	00d71463          	bne	a4,a3,337a <USART_GetITStatus+0x38>
    3376:	291a                	lhu	a4,16(a0)
    3378:	bff1                	j	3354 <USART_GetITStatus+0x12>
    337a:	295a                	lhu	a4,20(a0)
    337c:	bfe1                	j	3354 <USART_GetITStatus+0x12>

0000337e <USART_ClearITPendingBit>:
    337e:	81a1                	srli	a1,a1,0x8
    3380:	4785                	li	a5,1
    3382:	00b797b3          	sll	a5,a5,a1
    3386:	fff7c793          	not	a5,a5
    338a:	07c2                	slli	a5,a5,0x10
    338c:	83c1                	srli	a5,a5,0x10
    338e:	a11e                	sh	a5,0(a0)
    3390:	8082                	ret

00003392 <LCD_Reset_GPIO_Init>:
    3392:	984fd2ef          	jal	t0,516 <__riscv_save_0>
    3396:	1141                	addi	sp,sp,-16
    3398:	4585                	li	a1,1
    339a:	4511                	li	a0,4
    339c:	c202                	sw	zero,4(sp)
    339e:	c402                	sw	zero,8(sp)
    33a0:	c602                	sw	zero,12(sp)
    33a2:	e43ff0ef          	jal	ra,31e4 <RCC_APB2PeriphClockCmd>
    33a6:	77e1                	lui	a5,0xffff8
    33a8:	40011437          	lui	s0,0x40011
    33ac:	827c                	sh	a5,4(sp)
    33ae:	47c1                	li	a5,16
    33b0:	c63e                	sw	a5,12(sp)
    33b2:	004c                	addi	a1,sp,4
    33b4:	478d                	li	a5,3
    33b6:	80040513          	addi	a0,s0,-2048 # 40010800 <__freertos_irq_stack_top+0x20000800>
    33ba:	c43e                	sw	a5,8(sp)
    33bc:	b19ff0ef          	jal	ra,2ed4 <GPIO_Init>
    33c0:	65a1                	lui	a1,0x8
    33c2:	80040513          	addi	a0,s0,-2048
    33c6:	bcfff0ef          	jal	ra,2f94 <GPIO_SetBits>
    33ca:	0141                	addi	sp,sp,16
    33cc:	96efd06f          	j	53a <__riscv_restore_0>

000033d0 <LCD_RD_DATA>:
    33d0:	600407b7          	lui	a5,0x60040
    33d4:	17f9                	addi	a5,a5,-2
    33d6:	23be                	lhu	a5,2(a5)
    33d8:	1141                	addi	sp,sp,-16
    33da:	07c2                	slli	a5,a5,0x10
    33dc:	83c1                	srli	a5,a5,0x10
    33de:	877c                	sh	a5,14(sp)
    33e0:	8728                	lhu	a0,14(sp)
    33e2:	0141                	addi	sp,sp,16
    33e4:	8082                	ret

000033e6 <LCD_ReadReg>:
    33e6:	930fd2ef          	jal	t0,516 <__riscv_save_0>
    33ea:	600407b7          	lui	a5,0x60040
    33ee:	fea79f23          	sh	a0,-2(a5) # 6003fffe <__freertos_irq_stack_top+0x4002fffe>
    33f2:	4515                	li	a0,5
    33f4:	85fff0ef          	jal	ra,2c52 <delay_us>
    33f8:	3fe1                	jal	33d0 <LCD_RD_DATA>
    33fa:	940fd06f          	j	53a <__riscv_restore_0>

000033fe <LCD_WriteRAM_Prepare>:
    33fe:	200037b7          	lui	a5,0x20003
    3402:	4c87d703          	lhu	a4,1224(a5) # 200034c8 <lcddev+0x8>
    3406:	600407b7          	lui	a5,0x60040
    340a:	fee79f23          	sh	a4,-2(a5) # 6003fffe <__freertos_irq_stack_top+0x4002fffe>
    340e:	8082                	ret

00003410 <LCD_SetCursor>:
    3410:	20003637          	lui	a2,0x20003
    3414:	4c060613          	addi	a2,a2,1216 # 200034c0 <lcddev>
    3418:	263e                	lhu	a5,10(a2)
    341a:	60040737          	lui	a4,0x60040
    341e:	00855813          	srli	a6,a0,0x8
    3422:	fef71f23          	sh	a5,-2(a4) # 6003fffe <__freertos_irq_stack_top+0x4002fffe>
    3426:	0785                	addi	a5,a5,1
    3428:	07c2                	slli	a5,a5,0x10
    342a:	01071023          	sh	a6,0(a4)
    342e:	83c1                	srli	a5,a5,0x10
    3430:	fef71f23          	sh	a5,-2(a4)
    3434:	0ff57513          	andi	a0,a0,255
    3438:	a30a                	sh	a0,0(a4)
    343a:	265e                	lhu	a5,12(a2)
    343c:	0085d613          	srli	a2,a1,0x8
    3440:	0ff5f593          	andi	a1,a1,255
    3444:	fef71f23          	sh	a5,-2(a4)
    3448:	0785                	addi	a5,a5,1
    344a:	07c2                	slli	a5,a5,0x10
    344c:	a312                	sh	a2,0(a4)
    344e:	83c1                	srli	a5,a5,0x10
    3450:	fef71f23          	sh	a5,-2(a4)
    3454:	a30e                	sh	a1,0(a4)
    3456:	8082                	ret

00003458 <LCD_Scan_Dir>:
    3458:	20003537          	lui	a0,0x20003
    345c:	658d                	lui	a1,0x3
    345e:	600407b7          	lui	a5,0x60040
    3462:	4c050513          	addi	a0,a0,1216 # 200034c0 <lcddev>
    3466:	60058593          	addi	a1,a1,1536 # 3600 <LCD_Init+0x82>
    346a:	2112                	lhu	a2,0(a0)
    346c:	2136                	lhu	a3,2(a0)
    346e:	feb79f23          	sh	a1,-2(a5) # 6003fffe <__freertos_irq_stack_top+0x4002fffe>
    3472:	06800593          	li	a1,104
    3476:	a38e                	sh	a1,0(a5)
    3478:	252e                	lhu	a1,10(a0)
    347a:	167d                	addi	a2,a2,-1
    347c:	0642                	slli	a2,a2,0x10
    347e:	00158813          	addi	a6,a1,1
    3482:	feb79f23          	sh	a1,-2(a5)
    3486:	0842                	slli	a6,a6,0x10
    3488:	00079023          	sh	zero,0(a5)
    348c:	01085813          	srli	a6,a6,0x10
    3490:	ff079f23          	sh	a6,-2(a5)
    3494:	00258813          	addi	a6,a1,2
    3498:	0842                	slli	a6,a6,0x10
    349a:	00079023          	sh	zero,0(a5)
    349e:	8241                	srli	a2,a2,0x10
    34a0:	01085813          	srli	a6,a6,0x10
    34a4:	058d                	addi	a1,a1,3
    34a6:	ff079f23          	sh	a6,-2(a5)
    34aa:	05c2                	slli	a1,a1,0x10
    34ac:	00865813          	srli	a6,a2,0x8
    34b0:	01079023          	sh	a6,0(a5)
    34b4:	81c1                	srli	a1,a1,0x10
    34b6:	feb79f23          	sh	a1,-2(a5)
    34ba:	0ff67613          	andi	a2,a2,255
    34be:	a392                	sh	a2,0(a5)
    34c0:	2552                	lhu	a2,12(a0)
    34c2:	16fd                	addi	a3,a3,-1
    34c4:	06c2                	slli	a3,a3,0x10
    34c6:	00160593          	addi	a1,a2,1
    34ca:	fec79f23          	sh	a2,-2(a5)
    34ce:	05c2                	slli	a1,a1,0x10
    34d0:	00079023          	sh	zero,0(a5)
    34d4:	81c1                	srli	a1,a1,0x10
    34d6:	feb79f23          	sh	a1,-2(a5)
    34da:	00260593          	addi	a1,a2,2
    34de:	05c2                	slli	a1,a1,0x10
    34e0:	00079023          	sh	zero,0(a5)
    34e4:	82c1                	srli	a3,a3,0x10
    34e6:	81c1                	srli	a1,a1,0x10
    34e8:	060d                	addi	a2,a2,3
    34ea:	feb79f23          	sh	a1,-2(a5)
    34ee:	0642                	slli	a2,a2,0x10
    34f0:	0086d593          	srli	a1,a3,0x8
    34f4:	a38e                	sh	a1,0(a5)
    34f6:	8241                	srli	a2,a2,0x10
    34f8:	fec79f23          	sh	a2,-2(a5)
    34fc:	0ff6f693          	andi	a3,a3,255
    3500:	a396                	sh	a3,0(a5)
    3502:	8082                	ret

00003504 <LCD_Display_Dir>:
    3504:	812fd2ef          	jal	t0,516 <__riscv_save_0>
    3508:	200037b7          	lui	a5,0x20003
    350c:	4c078793          	addi	a5,a5,1216 # 200034c0 <lcddev>
    3510:	e50d                	bnez	a0,353a <LCD_Display_Dir+0x36>
    3512:	03200737          	lui	a4,0x3200
    3516:	00078323          	sb	zero,6(a5)
    351a:	1e070713          	addi	a4,a4,480 # 32001e0 <_data_lma+0x31f10fc>
    351e:	c398                	sw	a4,0(a5)
    3520:	2a003737          	lui	a4,0x2a003
    3524:	c0070713          	addi	a4,a4,-1024 # 2a002c00 <__freertos_irq_stack_top+0x9ff2c00>
    3528:	c798                	sw	a4,8(a5)
    352a:	670d                	lui	a4,0x3
    352c:	b0070713          	addi	a4,a4,-1280 # 2b00 <_write+0x26>
    3530:	a7da                	sh	a4,12(a5)
    3532:	f27ff0ef          	jal	ra,3458 <LCD_Scan_Dir>
    3536:	804fd06f          	j	53a <__riscv_restore_0>
    353a:	4705                	li	a4,1
    353c:	a3f8                	sb	a4,6(a5)
    353e:	01e00737          	lui	a4,0x1e00
    3542:	32070713          	addi	a4,a4,800 # 1e00320 <_data_lma+0x1df123c>
    3546:	bfe1                	j	351e <LCD_Display_Dir+0x1a>

00003548 <LCD_Clear>:
    3548:	fcffc2ef          	jal	t0,516 <__riscv_save_0>
    354c:	200037b7          	lui	a5,0x20003
    3550:	4c078793          	addi	a5,a5,1216 # 200034c0 <lcddev>
    3554:	239a                	lhu	a4,0(a5)
    3556:	23a2                	lhu	s0,2(a5)
    3558:	4581                	li	a1,0
    355a:	84aa                	mv	s1,a0
    355c:	4501                	li	a0,0
    355e:	02e40433          	mul	s0,s0,a4
    3562:	eafff0ef          	jal	ra,3410 <LCD_SetCursor>
    3566:	e99ff0ef          	jal	ra,33fe <LCD_WriteRAM_Prepare>
    356a:	4781                	li	a5,0
    356c:	60040737          	lui	a4,0x60040
    3570:	00879463          	bne	a5,s0,3578 <LCD_Clear+0x30>
    3574:	fc7fc06f          	j	53a <__riscv_restore_0>
    3578:	a306                	sh	s1,0(a4)
    357a:	0785                	addi	a5,a5,1
    357c:	bfd5                	j	3570 <LCD_Clear+0x28>

0000357e <LCD_Init>:
    357e:	f69fc2ef          	jal	t0,4e6 <__riscv_save_12>
    3582:	7119                	addi	sp,sp,-128
    3584:	4585                	li	a1,1
    3586:	10000513          	li	a0,256
    358a:	c3dff0ef          	jal	ra,31c6 <RCC_AHBPeriphClockCmd>
    358e:	4585                	li	a1,1
    3590:	06800513          	li	a0,104
    3594:	c51ff0ef          	jal	ra,31e4 <RCC_APB2PeriphClockCmd>
    3598:	400114b7          	lui	s1,0x40011
    359c:	440d                	li	s0,3
    359e:	6791                	lui	a5,0x4
    35a0:	4a41                	li	s4,16
    35a2:	c0048513          	addi	a0,s1,-1024 # 40010c00 <__freertos_irq_stack_top+0x20000c00>
    35a6:	858a                	mv	a1,sp
    35a8:	807c                	sh	a5,0(sp)
    35aa:	c222                	sw	s0,4(sp)
    35ac:	c452                	sw	s4,8(sp)
    35ae:	79f1                	lui	s3,0xffffc
    35b0:	925ff0ef          	jal	ra,2ed4 <GPIO_Init>
    35b4:	4ae1                	li	s5,24
    35b6:	73398793          	addi	a5,s3,1843 # ffffc733 <__freertos_irq_stack_top+0xdffec733>
    35ba:	40048513          	addi	a0,s1,1024
    35be:	858a                	mv	a1,sp
    35c0:	807c                	sh	a5,0(sp)
    35c2:	c456                	sw	s5,8(sp)
    35c4:	c222                	sw	s0,4(sp)
    35c6:	90fff0ef          	jal	ra,2ed4 <GPIO_Init>
    35ca:	40012537          	lui	a0,0x40012
    35ce:	f8000793          	li	a5,-128
    35d2:	858a                	mv	a1,sp
    35d4:	80050513          	addi	a0,a0,-2048 # 40011800 <__freertos_irq_stack_top+0x20001800>
    35d8:	807c                	sh	a5,0(sp)
    35da:	c456                	sw	s5,8(sp)
    35dc:	c222                	sw	s0,4(sp)
    35de:	8f7ff0ef          	jal	ra,2ed4 <GPIO_Init>
    35e2:	40048513          	addi	a0,s1,1024
    35e6:	6905                	lui	s2,0x1
    35e8:	858a                	mv	a1,sp
    35ea:	01211023          	sh	s2,0(sp)
    35ee:	c456                	sw	s5,8(sp)
    35f0:	c222                	sw	s0,4(sp)
    35f2:	8e3ff0ef          	jal	ra,2ed4 <GPIO_Init>
    35f6:	40048513          	addi	a0,s1,1024
    35fa:	80090913          	addi	s2,s2,-2048 # 800 <__stack_size>
    35fe:	858a                	mv	a1,sp
    3600:	01211023          	sh	s2,0(sp)
    3604:	c222                	sw	s0,4(sp)
    3606:	6905                	lui	s2,0x1
    3608:	c452                	sw	s4,8(sp)
    360a:	8cbff0ef          	jal	ra,2ed4 <GPIO_Init>
    360e:	80090593          	addi	a1,s2,-2048 # 800 <__stack_size>
    3612:	40048513          	addi	a0,s1,1024
    3616:	983ff0ef          	jal	ra,2f98 <GPIO_ResetBits>
    361a:	47bd                	li	a5,15
    361c:	ca3e                	sw	a5,20(sp)
    361e:	6791                	lui	a5,0x4
    3620:	d8be                	sw	a5,112(sp)
    3622:	007c                	addi	a5,sp,12
    3624:	dcbe                	sw	a5,120(sp)
    3626:	00c8                	addi	a0,sp,68
    3628:	103c                	addi	a5,sp,40
    362a:	4b05                	li	s6,1
    362c:	debe                	sw	a5,124(sp)
    362e:	d822                	sw	s0,48(sp)
    3630:	d4ca                	sw	s2,104(sp)
    3632:	c65a                	sw	s6,12(sp)
    3634:	c802                	sw	zero,16(sp)
    3636:	cc02                	sw	zero,24(sp)
    3638:	d202                	sw	zero,36(sp)
    363a:	d402                	sw	zero,40(sp)
    363c:	d602                	sw	zero,44(sp)
    363e:	da02                	sw	zero,52(sp)
    3640:	dc02                	sw	zero,56(sp)
    3642:	de02                	sw	zero,60(sp)
    3644:	c082                	sw	zero,64(sp)
    3646:	c282                	sw	zero,68(sp)
    3648:	c482                	sw	zero,72(sp)
    364a:	c682                	sw	zero,76(sp)
    364c:	c8d2                	sw	s4,80(sp)
    364e:	ca82                	sw	zero,84(sp)
    3650:	ce82                	sw	zero,92(sp)
    3652:	cc82                	sw	zero,88(sp)
    3654:	d082                	sw	zero,96(sp)
    3656:	d282                	sw	zero,100(sp)
    3658:	d682                	sw	zero,108(sp)
    365a:	da82                	sw	zero,116(sp)
    365c:	fa0ff0ef          	jal	ra,2dfc <FSMC_NORSRAMInit>
    3660:	4585                	li	a1,1
    3662:	4501                	li	a0,0
    3664:	853ff0ef          	jal	ra,2eb6 <FSMC_NORSRAMCmd>
    3668:	03200513          	li	a0,50
    366c:	e26ff0ef          	jal	ra,2c92 <delay_ms>
    3670:	200034b7          	lui	s1,0x20003
    3674:	4501                	li	a0,0
    3676:	4c048913          	addi	s2,s1,1216 # 200034c0 <lcddev>
    367a:	d6dff0ef          	jal	ra,33e6 <LCD_ReadReg>
    367e:	00a91223          	sh	a0,4(s2)
    3682:	60040437          	lui	s0,0x60040
    3686:	0d300a93          	li	s5,211
    368a:	ff541f23          	sh	s5,-2(s0) # 6003fffe <__freertos_irq_stack_top+0x4002fffe>
    368e:	d43ff0ef          	jal	ra,33d0 <LCD_RD_DATA>
    3692:	00a91223          	sh	a0,4(s2)
    3696:	d3bff0ef          	jal	ra,33d0 <LCD_RD_DATA>
    369a:	00a91223          	sh	a0,4(s2)
    369e:	d33ff0ef          	jal	ra,33d0 <LCD_RD_DATA>
    36a2:	0522                	slli	a0,a0,0x8
    36a4:	00a91223          	sh	a0,4(s2)
    36a8:	d29ff0ef          	jal	ra,33d0 <LCD_RD_DATA>
    36ac:	00495783          	lhu	a5,4(s2)
    36b0:	4c048493          	addi	s1,s1,1216
    36b4:	8d5d                	or	a0,a0,a5
    36b6:	00a91223          	sh	a0,4(s2)
    36ba:	ff541f23          	sh	s5,-2(s0)
    36be:	d13ff0ef          	jal	ra,33d0 <LCD_RD_DATA>
    36c2:	00a91223          	sh	a0,4(s2)
    36c6:	d0bff0ef          	jal	ra,33d0 <LCD_RD_DATA>
    36ca:	00a91223          	sh	a0,4(s2)
    36ce:	d03ff0ef          	jal	ra,33d0 <LCD_RD_DATA>
    36d2:	0522                	slli	a0,a0,0x8
    36d4:	00a91223          	sh	a0,4(s2)
    36d8:	cf9ff0ef          	jal	ra,33d0 <LCD_RD_DATA>
    36dc:	00495783          	lhu	a5,4(s2)
    36e0:	8d5d                	or	a0,a0,a5
    36e2:	0542                	slli	a0,a0,0x10
    36e4:	8141                	srli	a0,a0,0x10
    36e6:	67a5                	lui	a5,0x9
    36e8:	00a91223          	sh	a0,4(s2)
    36ec:	34178793          	addi	a5,a5,833 # 9341 <__swrite+0x1f>
    36f0:	00f51463          	bne	a0,a5,36f8 <LCD_Init+0x17a>
    36f4:	2e40106f          	j	49d8 <LCD_Init+0x145a>
    36f8:	4791                	li	a5,4
    36fa:	fef41f23          	sh	a5,-2(s0)
    36fe:	cd3ff0ef          	jal	ra,33d0 <LCD_RD_DATA>
    3702:	a0ca                	sh	a0,4(s1)
    3704:	ccdff0ef          	jal	ra,33d0 <LCD_RD_DATA>
    3708:	a0ca                	sh	a0,4(s1)
    370a:	cc7ff0ef          	jal	ra,33d0 <LCD_RD_DATA>
    370e:	0522                	slli	a0,a0,0x8
    3710:	a0ca                	sh	a0,4(s1)
    3712:	cbfff0ef          	jal	ra,33d0 <LCD_RD_DATA>
    3716:	20de                	lhu	a5,4(s1)
    3718:	8d5d                	or	a0,a0,a5
    371a:	0542                	slli	a0,a0,0x10
    371c:	8141                	srli	a0,a0,0x10
    371e:	67a1                	lui	a5,0x8
    3720:	a0ca                	sh	a0,4(s1)
    3722:	55278793          	addi	a5,a5,1362 # 8552 <__swhatbuf_r+0x18>
    3726:	00f51863          	bne	a0,a5,3736 <LCD_Init+0x1b8>
    372a:	679d                	lui	a5,0x7
    372c:	78978793          	addi	a5,a5,1929 # 7789 <_dtoa_r+0x983>
    3730:	a0de                	sh	a5,4(s1)
    3732:	2a60106f          	j	49d8 <LCD_Init+0x145a>
    3736:	6b9d                	lui	s7,0x7
    3738:	789b8793          	addi	a5,s7,1929 # 7789 <_dtoa_r+0x983>
    373c:	00f51463          	bne	a0,a5,3744 <LCD_Init+0x1c6>
    3740:	2980106f          	j	49d8 <LCD_Init+0x145a>
    3744:	0d400793          	li	a5,212
    3748:	fef41f23          	sh	a5,-2(s0)
    374c:	c85ff0ef          	jal	ra,33d0 <LCD_RD_DATA>
    3750:	a0ca                	sh	a0,4(s1)
    3752:	c7fff0ef          	jal	ra,33d0 <LCD_RD_DATA>
    3756:	a0ca                	sh	a0,4(s1)
    3758:	c79ff0ef          	jal	ra,33d0 <LCD_RD_DATA>
    375c:	0522                	slli	a0,a0,0x8
    375e:	a0ca                	sh	a0,4(s1)
    3760:	c71ff0ef          	jal	ra,33d0 <LCD_RD_DATA>
    3764:	20de                	lhu	a5,4(s1)
    3766:	6915                	lui	s2,0x5
    3768:	8d5d                	or	a0,a0,a5
    376a:	0542                	slli	a0,a0,0x10
    376c:	8141                	srli	a0,a0,0x10
    376e:	a0ca                	sh	a0,4(s1)
    3770:	31090793          	addi	a5,s2,784 # 5310 <__exponent+0x60>
    3774:	00f51463          	bne	a0,a5,377c <LCD_Init+0x1fe>
    3778:	2600106f          	j	49d8 <LCD_Init+0x145a>
    377c:	ff541f23          	sh	s5,-2(s0)
    3780:	c51ff0ef          	jal	ra,33d0 <LCD_RD_DATA>
    3784:	a0ca                	sh	a0,4(s1)
    3786:	c4bff0ef          	jal	ra,33d0 <LCD_RD_DATA>
    378a:	a0ca                	sh	a0,4(s1)
    378c:	c45ff0ef          	jal	ra,33d0 <LCD_RD_DATA>
    3790:	0522                	slli	a0,a0,0x8
    3792:	a0ca                	sh	a0,4(s1)
    3794:	c3dff0ef          	jal	ra,33d0 <LCD_RD_DATA>
    3798:	20de                	lhu	a5,4(s1)
    379a:	796b8b93          	addi	s7,s7,1942
    379e:	8d5d                	or	a0,a0,a5
    37a0:	0542                	slli	a0,a0,0x10
    37a2:	8141                	srli	a0,a0,0x10
    37a4:	a0ca                	sh	a0,4(s1)
    37a6:	01751463          	bne	a0,s7,37ae <LCD_Init+0x230>
    37aa:	22e0106f          	j	49d8 <LCD_Init+0x145a>
    37ae:	77fd                	lui	a5,0xfffff
    37b0:	fef41f23          	sh	a5,-2(s0)
    37b4:	ffe40a13          	addi	s4,s0,-2
    37b8:	05500713          	li	a4,85
    37bc:	00ea1123          	sh	a4,2(s4)
    37c0:	00178713          	addi	a4,a5,1 # fffff001 <__freertos_irq_stack_top+0xdffef001>
    37c4:	fee41f23          	sh	a4,-2(s0)
    37c8:	0aa00713          	li	a4,170
    37cc:	00ea1123          	sh	a4,2(s4)
    37d0:	00278713          	addi	a4,a5,2
    37d4:	fee41f23          	sh	a4,-2(s0)
    37d8:	05200713          	li	a4,82
    37dc:	00ea1123          	sh	a4,2(s4)
    37e0:	00378713          	addi	a4,a5,3
    37e4:	fee41f23          	sh	a4,-2(s0)
    37e8:	4721                	li	a4,8
    37ea:	00ea1123          	sh	a4,2(s4)
    37ee:	0791                	addi	a5,a5,4
    37f0:	fef41f23          	sh	a5,-2(s0)
    37f4:	016a1123          	sh	s6,2(s4)
    37f8:	50098793          	addi	a5,s3,1280
    37fc:	fef41f23          	sh	a5,-2(s0)
    3800:	bd1ff0ef          	jal	ra,33d0 <LCD_RD_DATA>
    3804:	0522                	slli	a0,a0,0x8
    3806:	a0ca                	sh	a0,4(s1)
    3808:	50198993          	addi	s3,s3,1281
    380c:	ff341f23          	sh	s3,-2(s0)
    3810:	bc1ff0ef          	jal	ra,33d0 <LCD_RD_DATA>
    3814:	20de                	lhu	a5,4(s1)
    3816:	51090993          	addi	s3,s2,1296
    381a:	8d5d                	or	a0,a0,a5
    381c:	a0ca                	sh	a0,4(s1)
    381e:	4515                	li	a0,5
    3820:	c72ff0ef          	jal	ra,2c92 <delay_ms>
    3824:	20de                	lhu	a5,4(s1)
    3826:	01378463          	beq	a5,s3,382e <LCD_Init+0x2b0>
    382a:	2140106f          	j	4a3e <LCD_Init+0x14c0>
    382e:	60040437          	lui	s0,0x60040
    3832:	787d                	lui	a6,0xfffff
    3834:	ffe40793          	addi	a5,s0,-2 # 6003fffe <__freertos_irq_stack_top+0x4002fffe>
    3838:	ff041f23          	sh	a6,-2(s0)
    383c:	05500e93          	li	t4,85
    3840:	01d79123          	sh	t4,2(a5)
    3844:	00180713          	addi	a4,a6,1 # fffff001 <__freertos_irq_stack_top+0xdffef001>
    3848:	fee41f23          	sh	a4,-2(s0)
    384c:	0aa00713          	li	a4,170
    3850:	a3ba                	sh	a4,2(a5)
    3852:	00280693          	addi	a3,a6,2
    3856:	fed41f23          	sh	a3,-2(s0)
    385a:	05200693          	li	a3,82
    385e:	a3b6                	sh	a3,2(a5)
    3860:	00380613          	addi	a2,a6,3
    3864:	fec41f23          	sh	a2,-2(s0)
    3868:	4e21                	li	t3,8
    386a:	01c79123          	sh	t3,2(a5)
    386e:	00480613          	addi	a2,a6,4
    3872:	fec41f23          	sh	a2,-2(s0)
    3876:	4605                	li	a2,1
    3878:	a3b2                	sh	a2,2(a5)
    387a:	776d                	lui	a4,0xffffb
    387c:	fee41f23          	sh	a4,-2(s0)
    3880:	46b5                	li	a3,13
    3882:	a3b6                	sh	a3,2(a5)
    3884:	00170593          	addi	a1,a4,1 # ffffb001 <__freertos_irq_stack_top+0xdffeb001>
    3888:	feb41f23          	sh	a1,-2(s0)
    388c:	a3b6                	sh	a3,2(a5)
    388e:	00270593          	addi	a1,a4,2
    3892:	feb41f23          	sh	a1,-2(s0)
    3896:	756d                	lui	a0,0xffffb
    3898:	a3b6                	sh	a3,2(a5)
    389a:	60050593          	addi	a1,a0,1536 # ffffb600 <__freertos_irq_stack_top+0xdffeb600>
    389e:	03400813          	li	a6,52
    38a2:	feb41f23          	sh	a1,-2(s0)
    38a6:	01079123          	sh	a6,2(a5)
    38aa:	60170593          	addi	a1,a4,1537
    38ae:	feb41f23          	sh	a1,-2(s0)
    38b2:	01079123          	sh	a6,2(a5)
    38b6:	60270593          	addi	a1,a4,1538
    38ba:	feb41f23          	sh	a1,-2(s0)
    38be:	01079123          	sh	a6,2(a5)
    38c2:	10050593          	addi	a1,a0,256
    38c6:	feb41f23          	sh	a1,-2(s0)
    38ca:	a3b6                	sh	a3,2(a5)
    38cc:	10150593          	addi	a1,a0,257
    38d0:	feb41f23          	sh	a1,-2(s0)
    38d4:	a3b6                	sh	a3,2(a5)
    38d6:	10270593          	addi	a1,a4,258
    38da:	feb41f23          	sh	a1,-2(s0)
    38de:	a3b6                	sh	a3,2(a5)
    38e0:	70050593          	addi	a1,a0,1792
    38e4:	feb41f23          	sh	a1,-2(s0)
    38e8:	01079123          	sh	a6,2(a5)
    38ec:	70150593          	addi	a1,a0,1793
    38f0:	feb41f23          	sh	a1,-2(s0)
    38f4:	01079123          	sh	a6,2(a5)
    38f8:	70270693          	addi	a3,a4,1794
    38fc:	fed41f23          	sh	a3,-2(s0)
    3900:	01079123          	sh	a6,2(a5)
    3904:	20070693          	addi	a3,a4,512
    3908:	fed41f23          	sh	a3,-2(s0)
    390c:	00079123          	sh	zero,2(a5)
    3910:	20170693          	addi	a3,a4,513
    3914:	fed41f23          	sh	a3,-2(s0)
    3918:	00079123          	sh	zero,2(a5)
    391c:	20270693          	addi	a3,a4,514
    3920:	fed41f23          	sh	a3,-2(s0)
    3924:	7371                	lui	t1,0xffffc
    3926:	00079123          	sh	zero,2(a5)
    392a:	80030593          	addi	a1,t1,-2048 # ffffb800 <__freertos_irq_stack_top+0xdffeb800>
    392e:	feb41f23          	sh	a1,-2(s0)
    3932:	02400693          	li	a3,36
    3936:	a3b6                	sh	a3,2(a5)
    3938:	80130593          	addi	a1,t1,-2047
    393c:	feb41f23          	sh	a1,-2(s0)
    3940:	a3b6                	sh	a3,2(a5)
    3942:	80230593          	addi	a1,t1,-2046
    3946:	feb41f23          	sh	a1,-2(s0)
    394a:	7571                	lui	a0,0xffffc
    394c:	a3b6                	sh	a3,2(a5)
    394e:	f0050593          	addi	a1,a0,-256 # ffffbf00 <__freertos_irq_stack_top+0xdffebf00>
    3952:	feb41f23          	sh	a1,-2(s0)
    3956:	a3b2                	sh	a2,2(a5)
    3958:	30070593          	addi	a1,a4,768
    395c:	feb41f23          	sh	a1,-2(s0)
    3960:	45bd                	li	a1,15
    3962:	a3ae                	sh	a1,2(a5)
    3964:	30170893          	addi	a7,a4,769
    3968:	ff141f23          	sh	a7,-2(s0)
    396c:	a3ae                	sh	a1,2(a5)
    396e:	30270893          	addi	a7,a4,770
    3972:	ff141f23          	sh	a7,-2(s0)
    3976:	a3ae                	sh	a1,2(a5)
    3978:	90050593          	addi	a1,a0,-1792
    397c:	feb41f23          	sh	a1,-2(s0)
    3980:	01079123          	sh	a6,2(a5)
    3984:	90150593          	addi	a1,a0,-1791
    3988:	feb41f23          	sh	a1,-2(s0)
    398c:	01079123          	sh	a6,2(a5)
    3990:	90250593          	addi	a1,a0,-1790
    3994:	feb41f23          	sh	a1,-2(s0)
    3998:	01079123          	sh	a6,2(a5)
    399c:	50070593          	addi	a1,a4,1280
    39a0:	feb41f23          	sh	a1,-2(s0)
    39a4:	01c79123          	sh	t3,2(a5)
    39a8:	50170593          	addi	a1,a4,1281
    39ac:	feb41f23          	sh	a1,-2(s0)
    39b0:	01c79123          	sh	t3,2(a5)
    39b4:	50270713          	addi	a4,a4,1282
    39b8:	fee41f23          	sh	a4,-2(s0)
    39bc:	20050713          	addi	a4,a0,512
    39c0:	01c79123          	sh	t3,2(a5)
    39c4:	458d                	li	a1,3
    39c6:	fee41f23          	sh	a4,-2(s0)
    39ca:	a3ae                	sh	a1,2(a5)
    39cc:	a0050713          	addi	a4,a0,-1536
    39d0:	fee41f23          	sh	a4,-2(s0)
    39d4:	a3b6                	sh	a3,2(a5)
    39d6:	a0150713          	addi	a4,a0,-1535
    39da:	fee41f23          	sh	a4,-2(s0)
    39de:	a3b6                	sh	a3,2(a5)
    39e0:	a0250713          	addi	a4,a0,-1534
    39e4:	fee41f23          	sh	a4,-2(s0)
    39e8:	a3b6                	sh	a3,2(a5)
    39ea:	c0030f93          	addi	t6,t1,-1024
    39ee:	fff41f23          	sh	t6,-2(s0)
    39f2:	00079123          	sh	zero,2(a5)
    39f6:	c0130f93          	addi	t6,t1,-1023
    39fa:	fff41f23          	sh	t6,-2(s0)
    39fe:	07800713          	li	a4,120
    3a02:	a3ba                	sh	a4,2(a5)
    3a04:	c0230f93          	addi	t6,t1,-1022
    3a08:	fff41f23          	sh	t6,-2(s0)
    3a0c:	00079123          	sh	zero,2(a5)
    3a10:	d0050693          	addi	a3,a0,-768
    3a14:	fed41f23          	sh	a3,-2(s0)
    3a18:	00079123          	sh	zero,2(a5)
    3a1c:	d0150693          	addi	a3,a0,-767
    3a20:	fed41f23          	sh	a3,-2(s0)
    3a24:	a3ba                	sh	a4,2(a5)
    3a26:	d0250713          	addi	a4,a0,-766
    3a2a:	fee41f23          	sh	a4,-2(s0)
    3a2e:	00079123          	sh	zero,2(a5)
    3a32:	e0050713          	addi	a4,a0,-512
    3a36:	fee41f23          	sh	a4,-2(s0)
    3a3a:	00079123          	sh	zero,2(a5)
    3a3e:	e0150713          	addi	a4,a0,-511
    3a42:	fee41f23          	sh	a4,-2(s0)
    3a46:	06400713          	li	a4,100
    3a4a:	a3ba                	sh	a4,2(a5)
    3a4c:	7775                	lui	a4,0xffffd
    3a4e:	10070693          	addi	a3,a4,256 # ffffd100 <__freertos_irq_stack_top+0xdffed100>
    3a52:	fed41f23          	sh	a3,-2(s0)
    3a56:	00079123          	sh	zero,2(a5)
    3a5a:	10170693          	addi	a3,a4,257
    3a5e:	03300893          	li	a7,51
    3a62:	fed41f23          	sh	a3,-2(s0)
    3a66:	01179123          	sh	a7,2(a5)
    3a6a:	10270693          	addi	a3,a4,258
    3a6e:	fed41f23          	sh	a3,-2(s0)
    3a72:	00079123          	sh	zero,2(a5)
    3a76:	10370693          	addi	a3,a4,259
    3a7a:	fed41f23          	sh	a3,-2(s0)
    3a7e:	01079123          	sh	a6,2(a5)
    3a82:	10470693          	addi	a3,a4,260
    3a86:	fed41f23          	sh	a3,-2(s0)
    3a8a:	00079123          	sh	zero,2(a5)
    3a8e:	10570693          	addi	a3,a4,261
    3a92:	fed41f23          	sh	a3,-2(s0)
    3a96:	03a00d13          	li	s10,58
    3a9a:	01a79123          	sh	s10,2(a5)
    3a9e:	10670693          	addi	a3,a4,262
    3aa2:	fed41f23          	sh	a3,-2(s0)
    3aa6:	00079123          	sh	zero,2(a5)
    3aaa:	10770693          	addi	a3,a4,263
    3aae:	fed41f23          	sh	a3,-2(s0)
    3ab2:	04a00c93          	li	s9,74
    3ab6:	01979123          	sh	s9,2(a5)
    3aba:	10870693          	addi	a3,a4,264
    3abe:	fed41f23          	sh	a3,-2(s0)
    3ac2:	00079123          	sh	zero,2(a5)
    3ac6:	10970693          	addi	a3,a4,265
    3aca:	fed41f23          	sh	a3,-2(s0)
    3ace:	05c00c13          	li	s8,92
    3ad2:	01879123          	sh	s8,2(a5)
    3ad6:	10a70693          	addi	a3,a4,266
    3ada:	fed41f23          	sh	a3,-2(s0)
    3ade:	00079123          	sh	zero,2(a5)
    3ae2:	10b70693          	addi	a3,a4,267
    3ae6:	fed41f23          	sh	a3,-2(s0)
    3aea:	08100b93          	li	s7,129
    3aee:	01779123          	sh	s7,2(a5)
    3af2:	10c70693          	addi	a3,a4,268
    3af6:	fed41f23          	sh	a3,-2(s0)
    3afa:	00079123          	sh	zero,2(a5)
    3afe:	10d70693          	addi	a3,a4,269
    3b02:	fed41f23          	sh	a3,-2(s0)
    3b06:	0a600b13          	li	s6,166
    3b0a:	01679123          	sh	s6,2(a5)
    3b0e:	10e70693          	addi	a3,a4,270
    3b12:	fed41f23          	sh	a3,-2(s0)
    3b16:	00079123          	sh	zero,2(a5)
    3b1a:	10f70693          	addi	a3,a4,271
    3b1e:	fed41f23          	sh	a3,-2(s0)
    3b22:	0e500a93          	li	s5,229
    3b26:	01579123          	sh	s5,2(a5)
    3b2a:	11070693          	addi	a3,a4,272
    3b2e:	fed41f23          	sh	a3,-2(s0)
    3b32:	a3b2                	sh	a2,2(a5)
    3b34:	11170693          	addi	a3,a4,273
    3b38:	fed41f23          	sh	a3,-2(s0)
    3b3c:	4a4d                	li	s4,19
    3b3e:	01479123          	sh	s4,2(a5)
    3b42:	11270693          	addi	a3,a4,274
    3b46:	fed41f23          	sh	a3,-2(s0)
    3b4a:	a3b2                	sh	a2,2(a5)
    3b4c:	11370693          	addi	a3,a4,275
    3b50:	05400993          	li	s3,84
    3b54:	fed41f23          	sh	a3,-2(s0)
    3b58:	01379123          	sh	s3,2(a5)
    3b5c:	11470693          	addi	a3,a4,276
    3b60:	fed41f23          	sh	a3,-2(s0)
    3b64:	11570693          	addi	a3,a4,277
    3b68:	a3b2                	sh	a2,2(a5)
    3b6a:	08200913          	li	s2,130
    3b6e:	fed41f23          	sh	a3,-2(s0)
    3b72:	01279123          	sh	s2,2(a5)
    3b76:	11670693          	addi	a3,a4,278
    3b7a:	fed41f23          	sh	a3,-2(s0)
    3b7e:	a3b2                	sh	a2,2(a5)
    3b80:	11770693          	addi	a3,a4,279
    3b84:	fed41f23          	sh	a3,-2(s0)
    3b88:	0ca00093          	li	ra,202
    3b8c:	00179123          	sh	ra,2(a5)
    3b90:	11870693          	addi	a3,a4,280
    3b94:	fed41f23          	sh	a3,-2(s0)
    3b98:	4689                	li	a3,2
    3b9a:	a3b6                	sh	a3,2(a5)
    3b9c:	11970313          	addi	t1,a4,281
    3ba0:	fe641f23          	sh	t1,-2(s0)
    3ba4:	00079123          	sh	zero,2(a5)
    3ba8:	11a70313          	addi	t1,a4,282
    3bac:	fe641f23          	sh	t1,-2(s0)
    3bb0:	a3b6                	sh	a3,2(a5)
    3bb2:	11b70313          	addi	t1,a4,283
    3bb6:	fe641f23          	sh	t1,-2(s0)
    3bba:	a3b2                	sh	a2,2(a5)
    3bbc:	11c70313          	addi	t1,a4,284
    3bc0:	fe641f23          	sh	t1,-2(s0)
    3bc4:	a3b6                	sh	a3,2(a5)
    3bc6:	11d70313          	addi	t1,a4,285
    3bca:	fe641f23          	sh	t1,-2(s0)
    3bce:	01079123          	sh	a6,2(a5)
    3bd2:	11e70313          	addi	t1,a4,286
    3bd6:	fe641f23          	sh	t1,-2(s0)
    3bda:	a3b6                	sh	a3,2(a5)
    3bdc:	11f70313          	addi	t1,a4,287
    3be0:	fe641f23          	sh	t1,-2(s0)
    3be4:	06700393          	li	t2,103
    3be8:	00779123          	sh	t2,2(a5)
    3bec:	12070313          	addi	t1,a4,288
    3bf0:	fe641f23          	sh	t1,-2(s0)
    3bf4:	a3b6                	sh	a3,2(a5)
    3bf6:	12170313          	addi	t1,a4,289
    3bfa:	fe641f23          	sh	t1,-2(s0)
    3bfe:	08400293          	li	t0,132
    3c02:	00579123          	sh	t0,2(a5)
    3c06:	12270313          	addi	t1,a4,290
    3c0a:	fe641f23          	sh	t1,-2(s0)
    3c0e:	a3b6                	sh	a3,2(a5)
    3c10:	12370313          	addi	t1,a4,291
    3c14:	0a400f93          	li	t6,164
    3c18:	fe641f23          	sh	t1,-2(s0)
    3c1c:	01f79123          	sh	t6,2(a5)
    3c20:	12470313          	addi	t1,a4,292
    3c24:	fe641f23          	sh	t1,-2(s0)
    3c28:	0b700f13          	li	t5,183
    3c2c:	a3b6                	sh	a3,2(a5)
    3c2e:	12570313          	addi	t1,a4,293
    3c32:	fe641f23          	sh	t1,-2(s0)
    3c36:	01e79123          	sh	t5,2(a5)
    3c3a:	12670313          	addi	t1,a4,294
    3c3e:	fe641f23          	sh	t1,-2(s0)
    3c42:	a3b6                	sh	a3,2(a5)
    3c44:	12770313          	addi	t1,a4,295
    3c48:	fe641f23          	sh	t1,-2(s0)
    3c4c:	0cf00e93          	li	t4,207
    3c50:	01d79123          	sh	t4,2(a5)
    3c54:	12870313          	addi	t1,a4,296
    3c58:	fe641f23          	sh	t1,-2(s0)
    3c5c:	a3b6                	sh	a3,2(a5)
    3c5e:	12970313          	addi	t1,a4,297
    3c62:	fe641f23          	sh	t1,-2(s0)
    3c66:	0de00e13          	li	t3,222
    3c6a:	01c79123          	sh	t3,2(a5)
    3c6e:	12a70313          	addi	t1,a4,298
    3c72:	fe641f23          	sh	t1,-2(s0)
    3c76:	a3b6                	sh	a3,2(a5)
    3c78:	12b70313          	addi	t1,a4,299
    3c7c:	fe641f23          	sh	t1,-2(s0)
    3c80:	0f200313          	li	t1,242
    3c84:	00679123          	sh	t1,2(a5)
    3c88:	12c70d93          	addi	s11,a4,300
    3c8c:	ffb41f23          	sh	s11,-2(s0)
    3c90:	a3b6                	sh	a3,2(a5)
    3c92:	12d70d93          	addi	s11,a4,301
    3c96:	ffb41f23          	sh	s11,-2(s0)
    3c9a:	0fe00d93          	li	s11,254
    3c9e:	01b79123          	sh	s11,2(a5)
    3ca2:	12e70d93          	addi	s11,a4,302
    3ca6:	ffb41f23          	sh	s11,-2(s0)
    3caa:	a3ae                	sh	a1,2(a5)
    3cac:	12f70d93          	addi	s11,a4,303
    3cb0:	ffb41f23          	sh	s11,-2(s0)
    3cb4:	4dc1                	li	s11,16
    3cb6:	01b79123          	sh	s11,2(a5)
    3cba:	13070d93          	addi	s11,a4,304
    3cbe:	ffb41f23          	sh	s11,-2(s0)
    3cc2:	a3ae                	sh	a1,2(a5)
    3cc4:	13170d93          	addi	s11,a4,305
    3cc8:	ffb41f23          	sh	s11,-2(s0)
    3ccc:	01179123          	sh	a7,2(a5)
    3cd0:	13270d93          	addi	s11,a4,306
    3cd4:	ffb41f23          	sh	s11,-2(s0)
    3cd8:	a3ae                	sh	a1,2(a5)
    3cda:	13370d93          	addi	s11,a4,307
    3cde:	ffb41f23          	sh	s11,-2(s0)
    3ce2:	06d00d93          	li	s11,109
    3ce6:	01b79123          	sh	s11,2(a5)
    3cea:	20070d93          	addi	s11,a4,512
    3cee:	ffb41f23          	sh	s11,-2(s0)
    3cf2:	00079123          	sh	zero,2(a5)
    3cf6:	20170d93          	addi	s11,a4,513
    3cfa:	ffb41f23          	sh	s11,-2(s0)
    3cfe:	20270d93          	addi	s11,a4,514
    3d02:	01179123          	sh	a7,2(a5)
    3d06:	ffb41f23          	sh	s11,-2(s0)
    3d0a:	00079123          	sh	zero,2(a5)
    3d0e:	20370d93          	addi	s11,a4,515
    3d12:	ffb41f23          	sh	s11,-2(s0)
    3d16:	01079123          	sh	a6,2(a5)
    3d1a:	20470d93          	addi	s11,a4,516
    3d1e:	ffb41f23          	sh	s11,-2(s0)
    3d22:	00079123          	sh	zero,2(a5)
    3d26:	20570d93          	addi	s11,a4,517
    3d2a:	ffb41f23          	sh	s11,-2(s0)
    3d2e:	01a79123          	sh	s10,2(a5)
    3d32:	20670d93          	addi	s11,a4,518
    3d36:	ffb41f23          	sh	s11,-2(s0)
    3d3a:	00079123          	sh	zero,2(a5)
    3d3e:	20770d93          	addi	s11,a4,519
    3d42:	ffb41f23          	sh	s11,-2(s0)
    3d46:	01979123          	sh	s9,2(a5)
    3d4a:	20870d93          	addi	s11,a4,520
    3d4e:	ffb41f23          	sh	s11,-2(s0)
    3d52:	00079123          	sh	zero,2(a5)
    3d56:	20970d93          	addi	s11,a4,521
    3d5a:	ffb41f23          	sh	s11,-2(s0)
    3d5e:	01879123          	sh	s8,2(a5)
    3d62:	20a70d93          	addi	s11,a4,522
    3d66:	ffb41f23          	sh	s11,-2(s0)
    3d6a:	00079123          	sh	zero,2(a5)
    3d6e:	20b70d93          	addi	s11,a4,523
    3d72:	ffb41f23          	sh	s11,-2(s0)
    3d76:	01779123          	sh	s7,2(a5)
    3d7a:	20c70d93          	addi	s11,a4,524
    3d7e:	ffb41f23          	sh	s11,-2(s0)
    3d82:	00079123          	sh	zero,2(a5)
    3d86:	20d70d93          	addi	s11,a4,525
    3d8a:	ffb41f23          	sh	s11,-2(s0)
    3d8e:	01679123          	sh	s6,2(a5)
    3d92:	20e70d93          	addi	s11,a4,526
    3d96:	ffb41f23          	sh	s11,-2(s0)
    3d9a:	00079123          	sh	zero,2(a5)
    3d9e:	20f70d93          	addi	s11,a4,527
    3da2:	ffb41f23          	sh	s11,-2(s0)
    3da6:	01579123          	sh	s5,2(a5)
    3daa:	21070d93          	addi	s11,a4,528
    3dae:	ffb41f23          	sh	s11,-2(s0)
    3db2:	a3b2                	sh	a2,2(a5)
    3db4:	21170d93          	addi	s11,a4,529
    3db8:	ffb41f23          	sh	s11,-2(s0)
    3dbc:	01479123          	sh	s4,2(a5)
    3dc0:	21270d93          	addi	s11,a4,530
    3dc4:	ffb41f23          	sh	s11,-2(s0)
    3dc8:	a3b2                	sh	a2,2(a5)
    3dca:	21370d93          	addi	s11,a4,531
    3dce:	ffb41f23          	sh	s11,-2(s0)
    3dd2:	01379123          	sh	s3,2(a5)
    3dd6:	21470d93          	addi	s11,a4,532
    3dda:	ffb41f23          	sh	s11,-2(s0)
    3dde:	a3b2                	sh	a2,2(a5)
    3de0:	21570d93          	addi	s11,a4,533
    3de4:	ffb41f23          	sh	s11,-2(s0)
    3de8:	01279123          	sh	s2,2(a5)
    3dec:	21670d93          	addi	s11,a4,534
    3df0:	ffb41f23          	sh	s11,-2(s0)
    3df4:	a3b2                	sh	a2,2(a5)
    3df6:	21770d93          	addi	s11,a4,535
    3dfa:	ffb41f23          	sh	s11,-2(s0)
    3dfe:	00179123          	sh	ra,2(a5)
    3e02:	21870d93          	addi	s11,a4,536
    3e06:	ffb41f23          	sh	s11,-2(s0)
    3e0a:	a3b6                	sh	a3,2(a5)
    3e0c:	21970d93          	addi	s11,a4,537
    3e10:	ffb41f23          	sh	s11,-2(s0)
    3e14:	00079123          	sh	zero,2(a5)
    3e18:	21a70d93          	addi	s11,a4,538
    3e1c:	ffb41f23          	sh	s11,-2(s0)
    3e20:	a3b6                	sh	a3,2(a5)
    3e22:	21b70d93          	addi	s11,a4,539
    3e26:	ffb41f23          	sh	s11,-2(s0)
    3e2a:	a3b2                	sh	a2,2(a5)
    3e2c:	21c70d93          	addi	s11,a4,540
    3e30:	ffb41f23          	sh	s11,-2(s0)
    3e34:	a3b6                	sh	a3,2(a5)
    3e36:	21d70d93          	addi	s11,a4,541
    3e3a:	ffb41f23          	sh	s11,-2(s0)
    3e3e:	01079123          	sh	a6,2(a5)
    3e42:	21e70d93          	addi	s11,a4,542
    3e46:	ffb41f23          	sh	s11,-2(s0)
    3e4a:	a3b6                	sh	a3,2(a5)
    3e4c:	21f70d93          	addi	s11,a4,543
    3e50:	ffb41f23          	sh	s11,-2(s0)
    3e54:	00779123          	sh	t2,2(a5)
    3e58:	22070d93          	addi	s11,a4,544
    3e5c:	ffb41f23          	sh	s11,-2(s0)
    3e60:	a3b6                	sh	a3,2(a5)
    3e62:	22170d93          	addi	s11,a4,545
    3e66:	ffb41f23          	sh	s11,-2(s0)
    3e6a:	00579123          	sh	t0,2(a5)
    3e6e:	22270d93          	addi	s11,a4,546
    3e72:	ffb41f23          	sh	s11,-2(s0)
    3e76:	22370d93          	addi	s11,a4,547
    3e7a:	a3b6                	sh	a3,2(a5)
    3e7c:	ffb41f23          	sh	s11,-2(s0)
    3e80:	01f79123          	sh	t6,2(a5)
    3e84:	22470d93          	addi	s11,a4,548
    3e88:	ffb41f23          	sh	s11,-2(s0)
    3e8c:	a3b6                	sh	a3,2(a5)
    3e8e:	22570d93          	addi	s11,a4,549
    3e92:	ffb41f23          	sh	s11,-2(s0)
    3e96:	01e79123          	sh	t5,2(a5)
    3e9a:	22670d93          	addi	s11,a4,550
    3e9e:	ffb41f23          	sh	s11,-2(s0)
    3ea2:	a3b6                	sh	a3,2(a5)
    3ea4:	22770d93          	addi	s11,a4,551
    3ea8:	ffb41f23          	sh	s11,-2(s0)
    3eac:	01d79123          	sh	t4,2(a5)
    3eb0:	22870d93          	addi	s11,a4,552
    3eb4:	ffb41f23          	sh	s11,-2(s0)
    3eb8:	a3b6                	sh	a3,2(a5)
    3eba:	22970d93          	addi	s11,a4,553
    3ebe:	ffb41f23          	sh	s11,-2(s0)
    3ec2:	01c79123          	sh	t3,2(a5)
    3ec6:	22a70d93          	addi	s11,a4,554
    3eca:	ffb41f23          	sh	s11,-2(s0)
    3ece:	a3b6                	sh	a3,2(a5)
    3ed0:	22b70d93          	addi	s11,a4,555
    3ed4:	ffb41f23          	sh	s11,-2(s0)
    3ed8:	00679123          	sh	t1,2(a5)
    3edc:	22c70d93          	addi	s11,a4,556
    3ee0:	ffb41f23          	sh	s11,-2(s0)
    3ee4:	a3b6                	sh	a3,2(a5)
    3ee6:	22d70d93          	addi	s11,a4,557
    3eea:	ffb41f23          	sh	s11,-2(s0)
    3eee:	0fe00d93          	li	s11,254
    3ef2:	01b79123          	sh	s11,2(a5)
    3ef6:	22e70d93          	addi	s11,a4,558
    3efa:	ffb41f23          	sh	s11,-2(s0)
    3efe:	a3ae                	sh	a1,2(a5)
    3f00:	22f70d93          	addi	s11,a4,559
    3f04:	ffb41f23          	sh	s11,-2(s0)
    3f08:	4dc1                	li	s11,16
    3f0a:	01b79123          	sh	s11,2(a5)
    3f0e:	23070d93          	addi	s11,a4,560
    3f12:	ffb41f23          	sh	s11,-2(s0)
    3f16:	a3ae                	sh	a1,2(a5)
    3f18:	23170d93          	addi	s11,a4,561
    3f1c:	ffb41f23          	sh	s11,-2(s0)
    3f20:	01179123          	sh	a7,2(a5)
    3f24:	23270d93          	addi	s11,a4,562
    3f28:	ffb41f23          	sh	s11,-2(s0)
    3f2c:	a3ae                	sh	a1,2(a5)
    3f2e:	23370d93          	addi	s11,a4,563
    3f32:	ffb41f23          	sh	s11,-2(s0)
    3f36:	06d00d93          	li	s11,109
    3f3a:	01b79123          	sh	s11,2(a5)
    3f3e:	30070d93          	addi	s11,a4,768
    3f42:	ffb41f23          	sh	s11,-2(s0)
    3f46:	00079123          	sh	zero,2(a5)
    3f4a:	30170d93          	addi	s11,a4,769
    3f4e:	ffb41f23          	sh	s11,-2(s0)
    3f52:	01179123          	sh	a7,2(a5)
    3f56:	30270d93          	addi	s11,a4,770
    3f5a:	ffb41f23          	sh	s11,-2(s0)
    3f5e:	00079123          	sh	zero,2(a5)
    3f62:	30370d93          	addi	s11,a4,771
    3f66:	ffb41f23          	sh	s11,-2(s0)
    3f6a:	01079123          	sh	a6,2(a5)
    3f6e:	30470d93          	addi	s11,a4,772
    3f72:	ffb41f23          	sh	s11,-2(s0)
    3f76:	00079123          	sh	zero,2(a5)
    3f7a:	30570d93          	addi	s11,a4,773
    3f7e:	ffb41f23          	sh	s11,-2(s0)
    3f82:	01a79123          	sh	s10,2(a5)
    3f86:	30670d93          	addi	s11,a4,774
    3f8a:	ffb41f23          	sh	s11,-2(s0)
    3f8e:	00079123          	sh	zero,2(a5)
    3f92:	30770d93          	addi	s11,a4,775
    3f96:	ffb41f23          	sh	s11,-2(s0)
    3f9a:	01979123          	sh	s9,2(a5)
    3f9e:	30870d93          	addi	s11,a4,776
    3fa2:	ffb41f23          	sh	s11,-2(s0)
    3fa6:	00079123          	sh	zero,2(a5)
    3faa:	30970d93          	addi	s11,a4,777
    3fae:	ffb41f23          	sh	s11,-2(s0)
    3fb2:	01879123          	sh	s8,2(a5)
    3fb6:	30a70d93          	addi	s11,a4,778
    3fba:	ffb41f23          	sh	s11,-2(s0)
    3fbe:	00079123          	sh	zero,2(a5)
    3fc2:	30b70d93          	addi	s11,a4,779
    3fc6:	ffb41f23          	sh	s11,-2(s0)
    3fca:	01779123          	sh	s7,2(a5)
    3fce:	30c70d93          	addi	s11,a4,780
    3fd2:	ffb41f23          	sh	s11,-2(s0)
    3fd6:	00079123          	sh	zero,2(a5)
    3fda:	30d70d93          	addi	s11,a4,781
    3fde:	ffb41f23          	sh	s11,-2(s0)
    3fe2:	01679123          	sh	s6,2(a5)
    3fe6:	30e70d93          	addi	s11,a4,782
    3fea:	ffb41f23          	sh	s11,-2(s0)
    3fee:	00079123          	sh	zero,2(a5)
    3ff2:	30f70d93          	addi	s11,a4,783
    3ff6:	ffb41f23          	sh	s11,-2(s0)
    3ffa:	31070d93          	addi	s11,a4,784
    3ffe:	01579123          	sh	s5,2(a5)
    4002:	ffb41f23          	sh	s11,-2(s0)
    4006:	a3b2                	sh	a2,2(a5)
    4008:	31170d93          	addi	s11,a4,785
    400c:	ffb41f23          	sh	s11,-2(s0)
    4010:	01479123          	sh	s4,2(a5)
    4014:	31270d93          	addi	s11,a4,786
    4018:	ffb41f23          	sh	s11,-2(s0)
    401c:	a3b2                	sh	a2,2(a5)
    401e:	31370d93          	addi	s11,a4,787
    4022:	ffb41f23          	sh	s11,-2(s0)
    4026:	01379123          	sh	s3,2(a5)
    402a:	31470d93          	addi	s11,a4,788
    402e:	ffb41f23          	sh	s11,-2(s0)
    4032:	a3b2                	sh	a2,2(a5)
    4034:	31570d93          	addi	s11,a4,789
    4038:	ffb41f23          	sh	s11,-2(s0)
    403c:	01279123          	sh	s2,2(a5)
    4040:	31670d93          	addi	s11,a4,790
    4044:	ffb41f23          	sh	s11,-2(s0)
    4048:	a3b2                	sh	a2,2(a5)
    404a:	31770d93          	addi	s11,a4,791
    404e:	ffb41f23          	sh	s11,-2(s0)
    4052:	00179123          	sh	ra,2(a5)
    4056:	31870d93          	addi	s11,a4,792
    405a:	ffb41f23          	sh	s11,-2(s0)
    405e:	a3b6                	sh	a3,2(a5)
    4060:	31970d93          	addi	s11,a4,793
    4064:	ffb41f23          	sh	s11,-2(s0)
    4068:	00079123          	sh	zero,2(a5)
    406c:	31a70d93          	addi	s11,a4,794
    4070:	ffb41f23          	sh	s11,-2(s0)
    4074:	a3b6                	sh	a3,2(a5)
    4076:	31b70d93          	addi	s11,a4,795
    407a:	ffb41f23          	sh	s11,-2(s0)
    407e:	a3b2                	sh	a2,2(a5)
    4080:	31c70d93          	addi	s11,a4,796
    4084:	ffb41f23          	sh	s11,-2(s0)
    4088:	a3b6                	sh	a3,2(a5)
    408a:	31d70d93          	addi	s11,a4,797
    408e:	ffb41f23          	sh	s11,-2(s0)
    4092:	01079123          	sh	a6,2(a5)
    4096:	31e70d93          	addi	s11,a4,798
    409a:	ffb41f23          	sh	s11,-2(s0)
    409e:	a3b6                	sh	a3,2(a5)
    40a0:	31f70d93          	addi	s11,a4,799
    40a4:	ffb41f23          	sh	s11,-2(s0)
    40a8:	00779123          	sh	t2,2(a5)
    40ac:	32070d93          	addi	s11,a4,800
    40b0:	ffb41f23          	sh	s11,-2(s0)
    40b4:	a3b6                	sh	a3,2(a5)
    40b6:	32170d93          	addi	s11,a4,801
    40ba:	ffb41f23          	sh	s11,-2(s0)
    40be:	00579123          	sh	t0,2(a5)
    40c2:	32270d93          	addi	s11,a4,802
    40c6:	ffb41f23          	sh	s11,-2(s0)
    40ca:	a3b6                	sh	a3,2(a5)
    40cc:	32370d93          	addi	s11,a4,803
    40d0:	ffb41f23          	sh	s11,-2(s0)
    40d4:	01f79123          	sh	t6,2(a5)
    40d8:	32470d93          	addi	s11,a4,804
    40dc:	ffb41f23          	sh	s11,-2(s0)
    40e0:	a3b6                	sh	a3,2(a5)
    40e2:	32570d93          	addi	s11,a4,805
    40e6:	ffb41f23          	sh	s11,-2(s0)
    40ea:	01e79123          	sh	t5,2(a5)
    40ee:	32670d93          	addi	s11,a4,806
    40f2:	ffb41f23          	sh	s11,-2(s0)
    40f6:	a3b6                	sh	a3,2(a5)
    40f8:	32770d93          	addi	s11,a4,807
    40fc:	ffb41f23          	sh	s11,-2(s0)
    4100:	01d79123          	sh	t4,2(a5)
    4104:	32870d93          	addi	s11,a4,808
    4108:	ffb41f23          	sh	s11,-2(s0)
    410c:	a3b6                	sh	a3,2(a5)
    410e:	32970d93          	addi	s11,a4,809
    4112:	ffb41f23          	sh	s11,-2(s0)
    4116:	01c79123          	sh	t3,2(a5)
    411a:	32a70d93          	addi	s11,a4,810
    411e:	ffb41f23          	sh	s11,-2(s0)
    4122:	a3b6                	sh	a3,2(a5)
    4124:	32b70d93          	addi	s11,a4,811
    4128:	ffb41f23          	sh	s11,-2(s0)
    412c:	00679123          	sh	t1,2(a5)
    4130:	32c70d93          	addi	s11,a4,812
    4134:	ffb41f23          	sh	s11,-2(s0)
    4138:	a3b6                	sh	a3,2(a5)
    413a:	32d70d93          	addi	s11,a4,813
    413e:	ffb41f23          	sh	s11,-2(s0)
    4142:	0fe00d93          	li	s11,254
    4146:	01b79123          	sh	s11,2(a5)
    414a:	32e70d93          	addi	s11,a4,814
    414e:	ffb41f23          	sh	s11,-2(s0)
    4152:	a3ae                	sh	a1,2(a5)
    4154:	32f70d93          	addi	s11,a4,815
    4158:	ffb41f23          	sh	s11,-2(s0)
    415c:	4dc1                	li	s11,16
    415e:	01b79123          	sh	s11,2(a5)
    4162:	33070d93          	addi	s11,a4,816
    4166:	ffb41f23          	sh	s11,-2(s0)
    416a:	33170d93          	addi	s11,a4,817
    416e:	a3ae                	sh	a1,2(a5)
    4170:	ffb41f23          	sh	s11,-2(s0)
    4174:	01179123          	sh	a7,2(a5)
    4178:	33270d93          	addi	s11,a4,818
    417c:	ffb41f23          	sh	s11,-2(s0)
    4180:	a3ae                	sh	a1,2(a5)
    4182:	33370d93          	addi	s11,a4,819
    4186:	ffb41f23          	sh	s11,-2(s0)
    418a:	06d00d93          	li	s11,109
    418e:	01b79123          	sh	s11,2(a5)
    4192:	40070d93          	addi	s11,a4,1024
    4196:	ffb41f23          	sh	s11,-2(s0)
    419a:	00079123          	sh	zero,2(a5)
    419e:	40170d93          	addi	s11,a4,1025
    41a2:	ffb41f23          	sh	s11,-2(s0)
    41a6:	01179123          	sh	a7,2(a5)
    41aa:	40270d93          	addi	s11,a4,1026
    41ae:	ffb41f23          	sh	s11,-2(s0)
    41b2:	00079123          	sh	zero,2(a5)
    41b6:	40370d93          	addi	s11,a4,1027
    41ba:	ffb41f23          	sh	s11,-2(s0)
    41be:	01079123          	sh	a6,2(a5)
    41c2:	40470d93          	addi	s11,a4,1028
    41c6:	ffb41f23          	sh	s11,-2(s0)
    41ca:	00079123          	sh	zero,2(a5)
    41ce:	40570d93          	addi	s11,a4,1029
    41d2:	ffb41f23          	sh	s11,-2(s0)
    41d6:	01a79123          	sh	s10,2(a5)
    41da:	40670d93          	addi	s11,a4,1030
    41de:	ffb41f23          	sh	s11,-2(s0)
    41e2:	00079123          	sh	zero,2(a5)
    41e6:	40770d93          	addi	s11,a4,1031
    41ea:	ffb41f23          	sh	s11,-2(s0)
    41ee:	01979123          	sh	s9,2(a5)
    41f2:	40870d93          	addi	s11,a4,1032
    41f6:	ffb41f23          	sh	s11,-2(s0)
    41fa:	00079123          	sh	zero,2(a5)
    41fe:	40970d93          	addi	s11,a4,1033
    4202:	ffb41f23          	sh	s11,-2(s0)
    4206:	01879123          	sh	s8,2(a5)
    420a:	40a70d93          	addi	s11,a4,1034
    420e:	ffb41f23          	sh	s11,-2(s0)
    4212:	00079123          	sh	zero,2(a5)
    4216:	40b70d93          	addi	s11,a4,1035
    421a:	ffb41f23          	sh	s11,-2(s0)
    421e:	01779123          	sh	s7,2(a5)
    4222:	40c70d93          	addi	s11,a4,1036
    4226:	ffb41f23          	sh	s11,-2(s0)
    422a:	00079123          	sh	zero,2(a5)
    422e:	40d70d93          	addi	s11,a4,1037
    4232:	ffb41f23          	sh	s11,-2(s0)
    4236:	01679123          	sh	s6,2(a5)
    423a:	40e70d93          	addi	s11,a4,1038
    423e:	ffb41f23          	sh	s11,-2(s0)
    4242:	00079123          	sh	zero,2(a5)
    4246:	40f70d93          	addi	s11,a4,1039
    424a:	ffb41f23          	sh	s11,-2(s0)
    424e:	01579123          	sh	s5,2(a5)
    4252:	41070d93          	addi	s11,a4,1040
    4256:	ffb41f23          	sh	s11,-2(s0)
    425a:	a3b2                	sh	a2,2(a5)
    425c:	41170d93          	addi	s11,a4,1041
    4260:	ffb41f23          	sh	s11,-2(s0)
    4264:	01479123          	sh	s4,2(a5)
    4268:	41270d93          	addi	s11,a4,1042
    426c:	ffb41f23          	sh	s11,-2(s0)
    4270:	a3b2                	sh	a2,2(a5)
    4272:	41370d93          	addi	s11,a4,1043
    4276:	ffb41f23          	sh	s11,-2(s0)
    427a:	01379123          	sh	s3,2(a5)
    427e:	41470d93          	addi	s11,a4,1044
    4282:	ffb41f23          	sh	s11,-2(s0)
    4286:	a3b2                	sh	a2,2(a5)
    4288:	41570d93          	addi	s11,a4,1045
    428c:	ffb41f23          	sh	s11,-2(s0)
    4290:	01279123          	sh	s2,2(a5)
    4294:	41670d93          	addi	s11,a4,1046
    4298:	ffb41f23          	sh	s11,-2(s0)
    429c:	a3b2                	sh	a2,2(a5)
    429e:	41770d93          	addi	s11,a4,1047
    42a2:	ffb41f23          	sh	s11,-2(s0)
    42a6:	00179123          	sh	ra,2(a5)
    42aa:	41870d93          	addi	s11,a4,1048
    42ae:	ffb41f23          	sh	s11,-2(s0)
    42b2:	a3b6                	sh	a3,2(a5)
    42b4:	41970d93          	addi	s11,a4,1049
    42b8:	ffb41f23          	sh	s11,-2(s0)
    42bc:	00079123          	sh	zero,2(a5)
    42c0:	41a70d93          	addi	s11,a4,1050
    42c4:	ffb41f23          	sh	s11,-2(s0)
    42c8:	a3b6                	sh	a3,2(a5)
    42ca:	41b70d93          	addi	s11,a4,1051
    42ce:	ffb41f23          	sh	s11,-2(s0)
    42d2:	a3b2                	sh	a2,2(a5)
    42d4:	41c70d93          	addi	s11,a4,1052
    42d8:	ffb41f23          	sh	s11,-2(s0)
    42dc:	a3b6                	sh	a3,2(a5)
    42de:	41d70d93          	addi	s11,a4,1053
    42e2:	ffb41f23          	sh	s11,-2(s0)
    42e6:	41e70d93          	addi	s11,a4,1054
    42ea:	01079123          	sh	a6,2(a5)
    42ee:	ffb41f23          	sh	s11,-2(s0)
    42f2:	a3b6                	sh	a3,2(a5)
    42f4:	41f70d93          	addi	s11,a4,1055
    42f8:	ffb41f23          	sh	s11,-2(s0)
    42fc:	00779123          	sh	t2,2(a5)
    4300:	42070d93          	addi	s11,a4,1056
    4304:	ffb41f23          	sh	s11,-2(s0)
    4308:	a3b6                	sh	a3,2(a5)
    430a:	42170d93          	addi	s11,a4,1057
    430e:	ffb41f23          	sh	s11,-2(s0)
    4312:	00579123          	sh	t0,2(a5)
    4316:	42270d93          	addi	s11,a4,1058
    431a:	ffb41f23          	sh	s11,-2(s0)
    431e:	a3b6                	sh	a3,2(a5)
    4320:	42370d93          	addi	s11,a4,1059
    4324:	ffb41f23          	sh	s11,-2(s0)
    4328:	01f79123          	sh	t6,2(a5)
    432c:	42470d93          	addi	s11,a4,1060
    4330:	ffb41f23          	sh	s11,-2(s0)
    4334:	a3b6                	sh	a3,2(a5)
    4336:	42570d93          	addi	s11,a4,1061
    433a:	ffb41f23          	sh	s11,-2(s0)
    433e:	01e79123          	sh	t5,2(a5)
    4342:	42670d93          	addi	s11,a4,1062
    4346:	ffb41f23          	sh	s11,-2(s0)
    434a:	a3b6                	sh	a3,2(a5)
    434c:	42770d93          	addi	s11,a4,1063
    4350:	ffb41f23          	sh	s11,-2(s0)
    4354:	01d79123          	sh	t4,2(a5)
    4358:	42870d93          	addi	s11,a4,1064
    435c:	ffb41f23          	sh	s11,-2(s0)
    4360:	a3b6                	sh	a3,2(a5)
    4362:	42970d93          	addi	s11,a4,1065
    4366:	ffb41f23          	sh	s11,-2(s0)
    436a:	01c79123          	sh	t3,2(a5)
    436e:	42a70d93          	addi	s11,a4,1066
    4372:	ffb41f23          	sh	s11,-2(s0)
    4376:	a3b6                	sh	a3,2(a5)
    4378:	42b70d93          	addi	s11,a4,1067
    437c:	ffb41f23          	sh	s11,-2(s0)
    4380:	00679123          	sh	t1,2(a5)
    4384:	42c70d93          	addi	s11,a4,1068
    4388:	ffb41f23          	sh	s11,-2(s0)
    438c:	a3b6                	sh	a3,2(a5)
    438e:	42d70d93          	addi	s11,a4,1069
    4392:	ffb41f23          	sh	s11,-2(s0)
    4396:	0fe00d93          	li	s11,254
    439a:	01b79123          	sh	s11,2(a5)
    439e:	42e70d93          	addi	s11,a4,1070
    43a2:	ffb41f23          	sh	s11,-2(s0)
    43a6:	a3ae                	sh	a1,2(a5)
    43a8:	42f70d93          	addi	s11,a4,1071
    43ac:	ffb41f23          	sh	s11,-2(s0)
    43b0:	4dc1                	li	s11,16
    43b2:	01b79123          	sh	s11,2(a5)
    43b6:	43070d93          	addi	s11,a4,1072
    43ba:	ffb41f23          	sh	s11,-2(s0)
    43be:	a3ae                	sh	a1,2(a5)
    43c0:	43170d93          	addi	s11,a4,1073
    43c4:	ffb41f23          	sh	s11,-2(s0)
    43c8:	01179123          	sh	a7,2(a5)
    43cc:	43270d93          	addi	s11,a4,1074
    43d0:	ffb41f23          	sh	s11,-2(s0)
    43d4:	a3ae                	sh	a1,2(a5)
    43d6:	43370d93          	addi	s11,a4,1075
    43da:	ffb41f23          	sh	s11,-2(s0)
    43de:	06d00d93          	li	s11,109
    43e2:	01b79123          	sh	s11,2(a5)
    43e6:	50070d93          	addi	s11,a4,1280
    43ea:	ffb41f23          	sh	s11,-2(s0)
    43ee:	00079123          	sh	zero,2(a5)
    43f2:	50170d93          	addi	s11,a4,1281
    43f6:	ffb41f23          	sh	s11,-2(s0)
    43fa:	01179123          	sh	a7,2(a5)
    43fe:	50270d93          	addi	s11,a4,1282
    4402:	ffb41f23          	sh	s11,-2(s0)
    4406:	00079123          	sh	zero,2(a5)
    440a:	50370d93          	addi	s11,a4,1283
    440e:	ffb41f23          	sh	s11,-2(s0)
    4412:	01079123          	sh	a6,2(a5)
    4416:	50470d93          	addi	s11,a4,1284
    441a:	ffb41f23          	sh	s11,-2(s0)
    441e:	00079123          	sh	zero,2(a5)
    4422:	50570d93          	addi	s11,a4,1285
    4426:	ffb41f23          	sh	s11,-2(s0)
    442a:	01a79123          	sh	s10,2(a5)
    442e:	50670d93          	addi	s11,a4,1286
    4432:	ffb41f23          	sh	s11,-2(s0)
    4436:	00079123          	sh	zero,2(a5)
    443a:	50770d93          	addi	s11,a4,1287
    443e:	ffb41f23          	sh	s11,-2(s0)
    4442:	01979123          	sh	s9,2(a5)
    4446:	50870d93          	addi	s11,a4,1288
    444a:	ffb41f23          	sh	s11,-2(s0)
    444e:	00079123          	sh	zero,2(a5)
    4452:	50970d93          	addi	s11,a4,1289
    4456:	ffb41f23          	sh	s11,-2(s0)
    445a:	01879123          	sh	s8,2(a5)
    445e:	50a70d93          	addi	s11,a4,1290
    4462:	ffb41f23          	sh	s11,-2(s0)
    4466:	50b70d93          	addi	s11,a4,1291
    446a:	00079123          	sh	zero,2(a5)
    446e:	ffb41f23          	sh	s11,-2(s0)
    4472:	01779123          	sh	s7,2(a5)
    4476:	50c70d93          	addi	s11,a4,1292
    447a:	ffb41f23          	sh	s11,-2(s0)
    447e:	00079123          	sh	zero,2(a5)
    4482:	50d70d93          	addi	s11,a4,1293
    4486:	ffb41f23          	sh	s11,-2(s0)
    448a:	01679123          	sh	s6,2(a5)
    448e:	50e70d93          	addi	s11,a4,1294
    4492:	ffb41f23          	sh	s11,-2(s0)
    4496:	00079123          	sh	zero,2(a5)
    449a:	50f70d93          	addi	s11,a4,1295
    449e:	ffb41f23          	sh	s11,-2(s0)
    44a2:	01579123          	sh	s5,2(a5)
    44a6:	51070d93          	addi	s11,a4,1296
    44aa:	ffb41f23          	sh	s11,-2(s0)
    44ae:	a3b2                	sh	a2,2(a5)
    44b0:	51170d93          	addi	s11,a4,1297
    44b4:	ffb41f23          	sh	s11,-2(s0)
    44b8:	01479123          	sh	s4,2(a5)
    44bc:	51270d93          	addi	s11,a4,1298
    44c0:	ffb41f23          	sh	s11,-2(s0)
    44c4:	a3b2                	sh	a2,2(a5)
    44c6:	51370d93          	addi	s11,a4,1299
    44ca:	ffb41f23          	sh	s11,-2(s0)
    44ce:	01379123          	sh	s3,2(a5)
    44d2:	51470d93          	addi	s11,a4,1300
    44d6:	ffb41f23          	sh	s11,-2(s0)
    44da:	a3b2                	sh	a2,2(a5)
    44dc:	51570d93          	addi	s11,a4,1301
    44e0:	ffb41f23          	sh	s11,-2(s0)
    44e4:	01279123          	sh	s2,2(a5)
    44e8:	51670d93          	addi	s11,a4,1302
    44ec:	ffb41f23          	sh	s11,-2(s0)
    44f0:	a3b2                	sh	a2,2(a5)
    44f2:	51770d93          	addi	s11,a4,1303
    44f6:	ffb41f23          	sh	s11,-2(s0)
    44fa:	00179123          	sh	ra,2(a5)
    44fe:	51870d93          	addi	s11,a4,1304
    4502:	ffb41f23          	sh	s11,-2(s0)
    4506:	a3b6                	sh	a3,2(a5)
    4508:	51970d93          	addi	s11,a4,1305
    450c:	ffb41f23          	sh	s11,-2(s0)
    4510:	00079123          	sh	zero,2(a5)
    4514:	51a70d93          	addi	s11,a4,1306
    4518:	ffb41f23          	sh	s11,-2(s0)
    451c:	a3b6                	sh	a3,2(a5)
    451e:	51b70d93          	addi	s11,a4,1307
    4522:	ffb41f23          	sh	s11,-2(s0)
    4526:	a3b2                	sh	a2,2(a5)
    4528:	51c70d93          	addi	s11,a4,1308
    452c:	ffb41f23          	sh	s11,-2(s0)
    4530:	a3b6                	sh	a3,2(a5)
    4532:	51d70d93          	addi	s11,a4,1309
    4536:	ffb41f23          	sh	s11,-2(s0)
    453a:	01079123          	sh	a6,2(a5)
    453e:	51e70d93          	addi	s11,a4,1310
    4542:	ffb41f23          	sh	s11,-2(s0)
    4546:	a3b6                	sh	a3,2(a5)
    4548:	51f70d93          	addi	s11,a4,1311
    454c:	ffb41f23          	sh	s11,-2(s0)
    4550:	00779123          	sh	t2,2(a5)
    4554:	52070d93          	addi	s11,a4,1312
    4558:	ffb41f23          	sh	s11,-2(s0)
    455c:	a3b6                	sh	a3,2(a5)
    455e:	52170d93          	addi	s11,a4,1313
    4562:	ffb41f23          	sh	s11,-2(s0)
    4566:	00579123          	sh	t0,2(a5)
    456a:	52270d93          	addi	s11,a4,1314
    456e:	ffb41f23          	sh	s11,-2(s0)
    4572:	a3b6                	sh	a3,2(a5)
    4574:	52370d93          	addi	s11,a4,1315
    4578:	ffb41f23          	sh	s11,-2(s0)
    457c:	01f79123          	sh	t6,2(a5)
    4580:	52470d93          	addi	s11,a4,1316
    4584:	ffb41f23          	sh	s11,-2(s0)
    4588:	a3b6                	sh	a3,2(a5)
    458a:	52570d93          	addi	s11,a4,1317
    458e:	ffb41f23          	sh	s11,-2(s0)
    4592:	01e79123          	sh	t5,2(a5)
    4596:	52670d93          	addi	s11,a4,1318
    459a:	ffb41f23          	sh	s11,-2(s0)
    459e:	a3b6                	sh	a3,2(a5)
    45a0:	52770d93          	addi	s11,a4,1319
    45a4:	ffb41f23          	sh	s11,-2(s0)
    45a8:	01d79123          	sh	t4,2(a5)
    45ac:	52870d93          	addi	s11,a4,1320
    45b0:	ffb41f23          	sh	s11,-2(s0)
    45b4:	a3b6                	sh	a3,2(a5)
    45b6:	52970d93          	addi	s11,a4,1321
    45ba:	ffb41f23          	sh	s11,-2(s0)
    45be:	01c79123          	sh	t3,2(a5)
    45c2:	52a70d93          	addi	s11,a4,1322
    45c6:	ffb41f23          	sh	s11,-2(s0)
    45ca:	a3b6                	sh	a3,2(a5)
    45cc:	52b70d93          	addi	s11,a4,1323
    45d0:	ffb41f23          	sh	s11,-2(s0)
    45d4:	52c70d93          	addi	s11,a4,1324
    45d8:	00679123          	sh	t1,2(a5)
    45dc:	ffb41f23          	sh	s11,-2(s0)
    45e0:	a3b6                	sh	a3,2(a5)
    45e2:	52d70d93          	addi	s11,a4,1325
    45e6:	ffb41f23          	sh	s11,-2(s0)
    45ea:	0fe00d93          	li	s11,254
    45ee:	01b79123          	sh	s11,2(a5)
    45f2:	52e70d93          	addi	s11,a4,1326
    45f6:	ffb41f23          	sh	s11,-2(s0)
    45fa:	a3ae                	sh	a1,2(a5)
    45fc:	52f70d93          	addi	s11,a4,1327
    4600:	ffb41f23          	sh	s11,-2(s0)
    4604:	4dc1                	li	s11,16
    4606:	01b79123          	sh	s11,2(a5)
    460a:	53070d93          	addi	s11,a4,1328
    460e:	ffb41f23          	sh	s11,-2(s0)
    4612:	a3ae                	sh	a1,2(a5)
    4614:	53170d93          	addi	s11,a4,1329
    4618:	ffb41f23          	sh	s11,-2(s0)
    461c:	01179123          	sh	a7,2(a5)
    4620:	53270d93          	addi	s11,a4,1330
    4624:	ffb41f23          	sh	s11,-2(s0)
    4628:	a3ae                	sh	a1,2(a5)
    462a:	53370d93          	addi	s11,a4,1331
    462e:	ffb41f23          	sh	s11,-2(s0)
    4632:	06d00d93          	li	s11,109
    4636:	01b79123          	sh	s11,2(a5)
    463a:	60070d93          	addi	s11,a4,1536
    463e:	ffb41f23          	sh	s11,-2(s0)
    4642:	00079123          	sh	zero,2(a5)
    4646:	60170d93          	addi	s11,a4,1537
    464a:	ffb41f23          	sh	s11,-2(s0)
    464e:	01179123          	sh	a7,2(a5)
    4652:	60270d93          	addi	s11,a4,1538
    4656:	ffb41f23          	sh	s11,-2(s0)
    465a:	00079123          	sh	zero,2(a5)
    465e:	60370d93          	addi	s11,a4,1539
    4662:	ffb41f23          	sh	s11,-2(s0)
    4666:	01079123          	sh	a6,2(a5)
    466a:	60470d93          	addi	s11,a4,1540
    466e:	ffb41f23          	sh	s11,-2(s0)
    4672:	00079123          	sh	zero,2(a5)
    4676:	60570d93          	addi	s11,a4,1541
    467a:	ffb41f23          	sh	s11,-2(s0)
    467e:	01a79123          	sh	s10,2(a5)
    4682:	60670d13          	addi	s10,a4,1542
    4686:	ffa41f23          	sh	s10,-2(s0)
    468a:	00079123          	sh	zero,2(a5)
    468e:	60770d13          	addi	s10,a4,1543
    4692:	ffa41f23          	sh	s10,-2(s0)
    4696:	01979123          	sh	s9,2(a5)
    469a:	60870c93          	addi	s9,a4,1544
    469e:	ff941f23          	sh	s9,-2(s0)
    46a2:	00079123          	sh	zero,2(a5)
    46a6:	60970c93          	addi	s9,a4,1545
    46aa:	ff941f23          	sh	s9,-2(s0)
    46ae:	01879123          	sh	s8,2(a5)
    46b2:	60a70c13          	addi	s8,a4,1546
    46b6:	ff841f23          	sh	s8,-2(s0)
    46ba:	00079123          	sh	zero,2(a5)
    46be:	60b70c13          	addi	s8,a4,1547
    46c2:	ff841f23          	sh	s8,-2(s0)
    46c6:	01779123          	sh	s7,2(a5)
    46ca:	60c70b93          	addi	s7,a4,1548
    46ce:	ff741f23          	sh	s7,-2(s0)
    46d2:	00079123          	sh	zero,2(a5)
    46d6:	60d70b93          	addi	s7,a4,1549
    46da:	ff741f23          	sh	s7,-2(s0)
    46de:	01679123          	sh	s6,2(a5)
    46e2:	60e70b13          	addi	s6,a4,1550
    46e6:	ff641f23          	sh	s6,-2(s0)
    46ea:	00079123          	sh	zero,2(a5)
    46ee:	60f70b13          	addi	s6,a4,1551
    46f2:	ff641f23          	sh	s6,-2(s0)
    46f6:	01579123          	sh	s5,2(a5)
    46fa:	61070a93          	addi	s5,a4,1552
    46fe:	ff541f23          	sh	s5,-2(s0)
    4702:	a3b2                	sh	a2,2(a5)
    4704:	61170a93          	addi	s5,a4,1553
    4708:	ff541f23          	sh	s5,-2(s0)
    470c:	01479123          	sh	s4,2(a5)
    4710:	61270a13          	addi	s4,a4,1554
    4714:	ff441f23          	sh	s4,-2(s0)
    4718:	a3b2                	sh	a2,2(a5)
    471a:	61370a13          	addi	s4,a4,1555
    471e:	ff441f23          	sh	s4,-2(s0)
    4722:	01379123          	sh	s3,2(a5)
    4726:	61470993          	addi	s3,a4,1556
    472a:	ff341f23          	sh	s3,-2(s0)
    472e:	a3b2                	sh	a2,2(a5)
    4730:	61570993          	addi	s3,a4,1557
    4734:	ff341f23          	sh	s3,-2(s0)
    4738:	01279123          	sh	s2,2(a5)
    473c:	61670913          	addi	s2,a4,1558
    4740:	ff241f23          	sh	s2,-2(s0)
    4744:	a3b2                	sh	a2,2(a5)
    4746:	61770913          	addi	s2,a4,1559
    474a:	ff241f23          	sh	s2,-2(s0)
    474e:	00179123          	sh	ra,2(a5)
    4752:	61870093          	addi	ra,a4,1560
    4756:	fe141f23          	sh	ra,-2(s0)
    475a:	61970093          	addi	ra,a4,1561
    475e:	a3b6                	sh	a3,2(a5)
    4760:	fe141f23          	sh	ra,-2(s0)
    4764:	00079123          	sh	zero,2(a5)
    4768:	61a70093          	addi	ra,a4,1562
    476c:	fe141f23          	sh	ra,-2(s0)
    4770:	a3b6                	sh	a3,2(a5)
    4772:	61b70093          	addi	ra,a4,1563
    4776:	fe141f23          	sh	ra,-2(s0)
    477a:	a3b2                	sh	a2,2(a5)
    477c:	61c70093          	addi	ra,a4,1564
    4780:	fe141f23          	sh	ra,-2(s0)
    4784:	a3b6                	sh	a3,2(a5)
    4786:	61d70093          	addi	ra,a4,1565
    478a:	fe141f23          	sh	ra,-2(s0)
    478e:	01079123          	sh	a6,2(a5)
    4792:	61e70813          	addi	a6,a4,1566
    4796:	ff041f23          	sh	a6,-2(s0)
    479a:	a3b6                	sh	a3,2(a5)
    479c:	61f70813          	addi	a6,a4,1567
    47a0:	ff041f23          	sh	a6,-2(s0)
    47a4:	00779123          	sh	t2,2(a5)
    47a8:	62070813          	addi	a6,a4,1568
    47ac:	ff041f23          	sh	a6,-2(s0)
    47b0:	a3b6                	sh	a3,2(a5)
    47b2:	62170813          	addi	a6,a4,1569
    47b6:	ff041f23          	sh	a6,-2(s0)
    47ba:	00579123          	sh	t0,2(a5)
    47be:	62270813          	addi	a6,a4,1570
    47c2:	ff041f23          	sh	a6,-2(s0)
    47c6:	a3b6                	sh	a3,2(a5)
    47c8:	62370813          	addi	a6,a4,1571
    47cc:	ff041f23          	sh	a6,-2(s0)
    47d0:	01f79123          	sh	t6,2(a5)
    47d4:	62470813          	addi	a6,a4,1572
    47d8:	ff041f23          	sh	a6,-2(s0)
    47dc:	a3b6                	sh	a3,2(a5)
    47de:	62570813          	addi	a6,a4,1573
    47e2:	ff041f23          	sh	a6,-2(s0)
    47e6:	01e79123          	sh	t5,2(a5)
    47ea:	62670813          	addi	a6,a4,1574
    47ee:	ff041f23          	sh	a6,-2(s0)
    47f2:	a3b6                	sh	a3,2(a5)
    47f4:	62770813          	addi	a6,a4,1575
    47f8:	ff041f23          	sh	a6,-2(s0)
    47fc:	01d79123          	sh	t4,2(a5)
    4800:	62870813          	addi	a6,a4,1576
    4804:	ff041f23          	sh	a6,-2(s0)
    4808:	a3b6                	sh	a3,2(a5)
    480a:	62970813          	addi	a6,a4,1577
    480e:	ff041f23          	sh	a6,-2(s0)
    4812:	01c79123          	sh	t3,2(a5)
    4816:	62a70813          	addi	a6,a4,1578
    481a:	ff041f23          	sh	a6,-2(s0)
    481e:	a3b6                	sh	a3,2(a5)
    4820:	62b70813          	addi	a6,a4,1579
    4824:	ff041f23          	sh	a6,-2(s0)
    4828:	00679123          	sh	t1,2(a5)
    482c:	62c70813          	addi	a6,a4,1580
    4830:	ff041f23          	sh	a6,-2(s0)
    4834:	a3b6                	sh	a3,2(a5)
    4836:	62d70813          	addi	a6,a4,1581
    483a:	ff041f23          	sh	a6,-2(s0)
    483e:	0fe00d93          	li	s11,254
    4842:	01b79123          	sh	s11,2(a5)
    4846:	62e70813          	addi	a6,a4,1582
    484a:	ff041f23          	sh	a6,-2(s0)
    484e:	a3ae                	sh	a1,2(a5)
    4850:	62f70813          	addi	a6,a4,1583
    4854:	ff041f23          	sh	a6,-2(s0)
    4858:	4dc1                	li	s11,16
    485a:	01b79123          	sh	s11,2(a5)
    485e:	63070813          	addi	a6,a4,1584
    4862:	ff041f23          	sh	a6,-2(s0)
    4866:	a3ae                	sh	a1,2(a5)
    4868:	63170813          	addi	a6,a4,1585
    486c:	ff041f23          	sh	a6,-2(s0)
    4870:	01179123          	sh	a7,2(a5)
    4874:	63270813          	addi	a6,a4,1586
    4878:	ff041f23          	sh	a6,-2(s0)
    487c:	a3ae                	sh	a1,2(a5)
    487e:	63370813          	addi	a6,a4,1587
    4882:	ff041f23          	sh	a6,-2(s0)
    4886:	06d00d93          	li	s11,109
    488a:	01b79123          	sh	s11,2(a5)
    488e:	787d                	lui	a6,0xfffff
    4890:	ff041f23          	sh	a6,-2(s0)
    4894:	05500e93          	li	t4,85
    4898:	01d79123          	sh	t4,2(a5)
    489c:	00180f93          	addi	t6,a6,1 # fffff001 <__freertos_irq_stack_top+0xdffef001>
    48a0:	fff41f23          	sh	t6,-2(s0)
    48a4:	0aa00f13          	li	t5,170
    48a8:	01e79123          	sh	t5,2(a5)
    48ac:	00280f93          	addi	t6,a6,2
    48b0:	fff41f23          	sh	t6,-2(s0)
    48b4:	05200f13          	li	t5,82
    48b8:	01e79123          	sh	t5,2(a5)
    48bc:	00380f13          	addi	t5,a6,3
    48c0:	ffe41f23          	sh	t5,-2(s0)
    48c4:	4e21                	li	t3,8
    48c6:	01c79123          	sh	t3,2(a5)
    48ca:	0811                	addi	a6,a6,4
    48cc:	78ed                	lui	a7,0xffffb
    48ce:	ff041f23          	sh	a6,-2(s0)
    48d2:	00079123          	sh	zero,2(a5)
    48d6:	10088813          	addi	a6,a7,256 # ffffb100 <__freertos_irq_stack_top+0xdffeb100>
    48da:	ff041f23          	sh	a6,-2(s0)
    48de:	0cc00813          	li	a6,204
    48e2:	01079123          	sh	a6,2(a5)
    48e6:	10188813          	addi	a6,a7,257
    48ea:	ff041f23          	sh	a6,-2(s0)
    48ee:	00079123          	sh	zero,2(a5)
    48f2:	60088813          	addi	a6,a7,1536
    48f6:	ff041f23          	sh	a6,-2(s0)
    48fa:	4815                	li	a6,5
    48fc:	01079123          	sh	a6,2(a5)
    4900:	70088813          	addi	a6,a7,1792
    4904:	ff041f23          	sh	a6,-2(s0)
    4908:	07000813          	li	a6,112
    490c:	01079123          	sh	a6,2(a5)
    4910:	70188893          	addi	a7,a7,1793
    4914:	ff141f23          	sh	a7,-2(s0)
    4918:	7371                	lui	t1,0xffffc
    491a:	01079123          	sh	a6,2(a5)
    491e:	80030813          	addi	a6,t1,-2048 # ffffb800 <__freertos_irq_stack_top+0xdffeb800>
    4922:	ff041f23          	sh	a6,-2(s0)
    4926:	a3b2                	sh	a2,2(a5)
    4928:	80130813          	addi	a6,t1,-2047
    492c:	ff041f23          	sh	a6,-2(s0)
    4930:	a3ae                	sh	a1,2(a5)
    4932:	80230813          	addi	a6,t1,-2046
    4936:	ff041f23          	sh	a6,-2(s0)
    493a:	a3ae                	sh	a1,2(a5)
    493c:	80350513          	addi	a0,a0,-2045
    4940:	fea41f23          	sh	a0,-2(s0)
    4944:	a3ae                	sh	a1,2(a5)
    4946:	c0030593          	addi	a1,t1,-1024
    494a:	feb41f23          	sh	a1,-2(s0)
    494e:	a3b6                	sh	a3,2(a5)
    4950:	c0130593          	addi	a1,t1,-1023
    4954:	feb41f23          	sh	a1,-2(s0)
    4958:	00079123          	sh	zero,2(a5)
    495c:	c0230613          	addi	a2,t1,-1022
    4960:	fec41f23          	sh	a2,-2(s0)
    4964:	00079123          	sh	zero,2(a5)
    4968:	90070613          	addi	a2,a4,-1792
    496c:	fec41f23          	sh	a2,-2(s0)
    4970:	0d000613          	li	a2,208
    4974:	a3b2                	sh	a2,2(a5)
    4976:	90170613          	addi	a2,a4,-1791
    497a:	fec41f23          	sh	a2,-2(s0)
    497e:	a3b6                	sh	a3,2(a5)
    4980:	90270693          	addi	a3,a4,-1790
    4984:	fed41f23          	sh	a3,-2(s0)
    4988:	05000693          	li	a3,80
    498c:	a3b6                	sh	a3,2(a5)
    498e:	90370613          	addi	a2,a4,-1789
    4992:	fec41f23          	sh	a2,-2(s0)
    4996:	a3b6                	sh	a3,2(a5)
    4998:	90470713          	addi	a4,a4,-1788
    499c:	fee41f23          	sh	a4,-2(s0)
    49a0:	690d                	lui	s2,0x3
    49a2:	a3b6                	sh	a3,2(a5)
    49a4:	50090713          	addi	a4,s2,1280 # 3500 <LCD_Scan_Dir+0xa8>
    49a8:	fee41f23          	sh	a4,-2(s0)
    49ac:	6711                	lui	a4,0x4
    49ae:	00079123          	sh	zero,2(a5)
    49b2:	a0070713          	addi	a4,a4,-1536 # 3a00 <LCD_Init+0x482>
    49b6:	fee41f23          	sh	a4,-2(s0)
    49ba:	01d79123          	sh	t4,2(a5)
    49be:	6785                	lui	a5,0x1
    49c0:	10078793          	addi	a5,a5,256 # 1100 <pvPortMalloc+0x18>
    49c4:	fef41f23          	sh	a5,-2(s0)
    49c8:	07800513          	li	a0,120
    49cc:	90090913          	addi	s2,s2,-1792
    49d0:	a82fe0ef          	jal	ra,2c52 <delay_us>
    49d4:	ff241f23          	sh	s2,-2(s0)
    49d8:	20da                	lhu	a4,4(s1)
    49da:	67a5                	lui	a5,0x9
    49dc:	34178793          	addi	a5,a5,833 # 9341 <__swrite+0x1f>
    49e0:	02f70063          	beq	a4,a5,4a00 <LCD_Init+0x1482>
    49e4:	77ed                	lui	a5,0xffffb
    49e6:	cf078793          	addi	a5,a5,-784 # ffffacf0 <__freertos_irq_stack_top+0xdffeacf0>
    49ea:	97ba                	add	a5,a5,a4
    49ec:	dff7f793          	andi	a5,a5,-513
    49f0:	07c2                	slli	a5,a5,0x10
    49f2:	83c1                	srli	a5,a5,0x10
    49f4:	c791                	beqz	a5,4a00 <LCD_Init+0x1482>
    49f6:	6789                	lui	a5,0x2
    49f8:	96378793          	addi	a5,a5,-1693 # 1963 <xQueueReceive+0x12b>
    49fc:	00f71f63          	bne	a4,a5,4a1a <LCD_Init+0x149c>
    4a00:	57c2                	lw	a5,48(sp)
    4a02:	777d                	lui	a4,0xfffff
    4a04:	0ff70713          	addi	a4,a4,255 # fffff0ff <__freertos_irq_stack_top+0xdffef0ff>
    4a08:	8ff9                	and	a5,a5,a4
    4a0a:	5722                	lw	a4,40(sp)
    4a0c:	4007e793          	ori	a5,a5,1024
    4a10:	d83e                	sw	a5,48(sp)
    4a12:	9b41                	andi	a4,a4,-16
    4a14:	00476713          	ori	a4,a4,4
    4a18:	d43a                	sw	a4,40(sp)
    4a1a:	4505                	li	a0,1
    4a1c:	ae9fe0ef          	jal	ra,3504 <LCD_Display_Dir>
    4a20:	40011537          	lui	a0,0x40011
    4a24:	6591                	lui	a1,0x4
    4a26:	c0050513          	addi	a0,a0,-1024 # 40010c00 <__freertos_irq_stack_top+0x20000c00>
    4a2a:	d6afe0ef          	jal	ra,2f94 <GPIO_SetBits>
    4a2e:	6521                	lui	a0,0x8
    4a30:	d7c50513          	addi	a0,a0,-644 # 7d7c <_fwalk_reent+0x4>
    4a34:	b15fe0ef          	jal	ra,3548 <LCD_Clear>
    4a38:	6109                	addi	sp,sp,128
    4a3a:	ae9fb06f          	j	522 <__riscv_restore_12>
    4a3e:	ff541f23          	sh	s5,-2(s0)
    4a42:	98ffe0ef          	jal	ra,33d0 <LCD_RD_DATA>
    4a46:	a0ca                	sh	a0,4(s1)
    4a48:	989fe0ef          	jal	ra,33d0 <LCD_RD_DATA>
    4a4c:	a0ca                	sh	a0,4(s1)
    4a4e:	983fe0ef          	jal	ra,33d0 <LCD_RD_DATA>
    4a52:	0522                	slli	a0,a0,0x8
    4a54:	a0ca                	sh	a0,4(s1)
    4a56:	97bfe0ef          	jal	ra,33d0 <LCD_RD_DATA>
    4a5a:	20de                	lhu	a5,4(s1)
    4a5c:	8d5d                	or	a0,a0,a5
    4a5e:	0542                	slli	a0,a0,0x10
    4a60:	8141                	srli	a0,a0,0x10
    4a62:	67a9                	lui	a5,0xa
    4a64:	a0ca                	sh	a0,4(s1)
    4a66:	80678793          	addi	a5,a5,-2042 # 9806 <__adddf3+0x304>
    4a6a:	f6f507e3          	beq	a0,a5,49d8 <LCD_Init+0x145a>
    4a6e:	0a100793          	li	a5,161
    4a72:	fef41f23          	sh	a5,-2(s0)
    4a76:	95bfe0ef          	jal	ra,33d0 <LCD_RD_DATA>
    4a7a:	a0ca                	sh	a0,4(s1)
    4a7c:	955fe0ef          	jal	ra,33d0 <LCD_RD_DATA>
    4a80:	0522                	slli	a0,a0,0x8
    4a82:	a0ca                	sh	a0,4(s1)
    4a84:	94dfe0ef          	jal	ra,33d0 <LCD_RD_DATA>
    4a88:	20de                	lhu	a5,4(s1)
    4a8a:	76190913          	addi	s2,s2,1889
    4a8e:	8d5d                	or	a0,a0,a5
    4a90:	0542                	slli	a0,a0,0x10
    4a92:	8141                	srli	a0,a0,0x10
    4a94:	a0ca                	sh	a0,4(s1)
    4a96:	01251763          	bne	a0,s2,4aa4 <LCD_Init+0x1526>
    4a9a:	6789                	lui	a5,0x2
    4a9c:	96378793          	addi	a5,a5,-1693 # 1963 <xQueueReceive+0x12b>
    4aa0:	c91fe06f          	j	3730 <LCD_Init+0x1b2>
    4aa4:	01351463          	bne	a0,s3,4aac <LCD_Init+0x152e>
    4aa8:	d87fe06f          	j	382e <LCD_Init+0x2b0>
    4aac:	b735                	j	49d8 <LCD_Init+0x145a>

00004aae <LCD_Fast_DrawPoint>:
    4aae:	200037b7          	lui	a5,0x20003
    4ab2:	4c078713          	addi	a4,a5,1216 # 200034c0 <lcddev>
    4ab6:	2356                	lhu	a3,4(a4)
    4ab8:	6715                	lui	a4,0x5
    4aba:	51070713          	addi	a4,a4,1296 # 5510 <_printf_float+0x1dc>
    4abe:	4c078793          	addi	a5,a5,1216
    4ac2:	04e69163          	bne	a3,a4,4b04 <LCD_Fast_DrawPoint+0x56>
    4ac6:	27ba                	lhu	a4,10(a5)
    4ac8:	600406b7          	lui	a3,0x60040
    4acc:	00855893          	srli	a7,a0,0x8
    4ad0:	fee69f23          	sh	a4,-2(a3) # 6003fffe <__freertos_irq_stack_top+0x4002fffe>
    4ad4:	0705                	addi	a4,a4,1
    4ad6:	0742                	slli	a4,a4,0x10
    4ad8:	01169023          	sh	a7,0(a3)
    4adc:	8341                	srli	a4,a4,0x10
    4ade:	fee69f23          	sh	a4,-2(a3)
    4ae2:	0ff57513          	andi	a0,a0,255
    4ae6:	a28a                	sh	a0,0(a3)
    4ae8:	27da                	lhu	a4,12(a5)
    4aea:	0085d513          	srli	a0,a1,0x8
    4aee:	0ff5f593          	andi	a1,a1,255
    4af2:	fee69f23          	sh	a4,-2(a3)
    4af6:	0705                	addi	a4,a4,1
    4af8:	0742                	slli	a4,a4,0x10
    4afa:	a28a                	sh	a0,0(a3)
    4afc:	8341                	srli	a4,a4,0x10
    4afe:	fee69f23          	sh	a4,-2(a3)
    4b02:	a28e                	sh	a1,0(a3)
    4b04:	2796                	lhu	a3,8(a5)
    4b06:	600407b7          	lui	a5,0x60040
    4b0a:	fed79f23          	sh	a3,-2(a5) # 6003fffe <__freertos_irq_stack_top+0x4002fffe>
    4b0e:	a392                	sh	a2,0(a5)
    4b10:	8082                	ret

00004b12 <LCD_ShowChar>:
    4b12:	9d5fb2ef          	jal	t0,4e6 <__riscv_save_12>
    4b16:	0076f413          	andi	s0,a3,7
    4b1a:	0036d793          	srli	a5,a3,0x3
    4b1e:	00803433          	snez	s0,s0
    4b22:	943e                	add	s0,s0,a5
    4b24:	0016d793          	srli	a5,a3,0x1
    4b28:	02f40433          	mul	s0,s0,a5
    4b2c:	fe060493          	addi	s1,a2,-32
    4b30:	1101                	addi	sp,sp,-32
    4b32:	0ff4f493          	andi	s1,s1,255
    4b36:	4631                	li	a2,12
    4b38:	02400993          	li	s3,36
    4b3c:	6a35                	lui	s4,0xd
    4b3e:	6ab1                	lui	s5,0xc
    4b40:	6b31                	lui	s6,0xc
    4b42:	6bb1                	lui	s7,0xc
    4b44:	0ff47793          	andi	a5,s0,255
    4b48:	c63e                	sw	a5,12(sp)
    4b4a:	00649793          	slli	a5,s1,0x6
    4b4e:	ca3e                	sw	a5,20(sp)
    4b50:	00449793          	slli	a5,s1,0x4
    4b54:	c83e                	sw	a5,16(sp)
    4b56:	02c487b3          	mul	a5,s1,a2
    4b5a:	8d2a                	mv	s10,a0
    4b5c:	8dae                	mv	s11,a1
    4b5e:	8cae                	mv	s9,a1
    4b60:	4c01                	li	s8,0
    4b62:	3d4a0a13          	addi	s4,s4,980 # d3d4 <asc2_3216>
    4b66:	678a8a93          	addi	s5,s5,1656 # c678 <asc2_2412>
    4b6a:	088b0b13          	addi	s6,s6,136 # c088 <asc2_1608>
    4b6e:	c14b8b93          	addi	s7,s7,-1004 # bc14 <asc2_1206>
    4b72:	033489b3          	mul	s3,s1,s3
    4b76:	c43e                	sw	a5,8(sp)
    4b78:	47b2                	lw	a5,12(sp)
    4b7a:	0ffc7613          	andi	a2,s8,255
    4b7e:	00f66563          	bltu	a2,a5,4b88 <LCD_ShowChar+0x76>
    4b82:	6105                	addi	sp,sp,32
    4b84:	99ffb06f          	j	522 <__riscv_restore_12>
    4b88:	4631                	li	a2,12
    4b8a:	08c69163          	bne	a3,a2,4c0c <LCD_ShowChar+0xfa>
    4b8e:	47a2                	lw	a5,8(sp)
    4b90:	00fc0633          	add	a2,s8,a5
    4b94:	965e                	add	a2,a2,s7
    4b96:	008c8e93          	addi	t4,s9,8
    4b9a:	2204                	lbu	s1,0(a2)
    4b9c:	010e9413          	slli	s0,t4,0x10
    4ba0:	20003937          	lui	s2,0x20003
    4ba4:	8041                	srli	s0,s0,0x10
    4ba6:	4c090913          	addi	s2,s2,1216 # 200034c0 <lcddev>
    4baa:	01849613          	slli	a2,s1,0x18
    4bae:	8661                	srai	a2,a2,0x18
    4bb0:	08065663          	bgez	a2,4c3c <LCD_ShowChar+0x12a>
    4bb4:	200007b7          	lui	a5,0x20000
    4bb8:	2987d603          	lhu	a2,664(a5) # 20000298 <POINT_COLOR>
    4bbc:	85e6                	mv	a1,s9
    4bbe:	856a                	mv	a0,s10
    4bc0:	ce3a                	sw	a4,28(sp)
    4bc2:	cc36                	sw	a3,24(sp)
    4bc4:	eebff0ef          	jal	ra,4aae <LCD_Fast_DrawPoint>
    4bc8:	46e2                	lw	a3,24(sp)
    4bca:	4772                	lw	a4,28(sp)
    4bcc:	001c8793          	addi	a5,s9,1
    4bd0:	00295603          	lhu	a2,2(s2)
    4bd4:	01079c93          	slli	s9,a5,0x10
    4bd8:	00149813          	slli	a6,s1,0x1
    4bdc:	010cdc93          	srli	s9,s9,0x10
    4be0:	0ff87493          	andi	s1,a6,255
    4be4:	f8ccffe3          	bgeu	s9,a2,4b82 <LCD_ShowChar+0x70>
    4be8:	41bc8633          	sub	a2,s9,s11
    4bec:	06d61463          	bne	a2,a3,4c54 <LCD_ShowChar+0x142>
    4bf0:	001d0313          	addi	t1,s10,1
    4bf4:	00095783          	lhu	a5,0(s2)
    4bf8:	01031d13          	slli	s10,t1,0x10
    4bfc:	010d5d13          	srli	s10,s10,0x10
    4c00:	f8fd71e3          	bgeu	s10,a5,4b82 <LCD_ShowChar+0x70>
    4c04:	846e                	mv	s0,s11
    4c06:	0c05                	addi	s8,s8,1
    4c08:	8ca2                	mv	s9,s0
    4c0a:	b7bd                	j	4b78 <LCD_ShowChar+0x66>
    4c0c:	4641                	li	a2,16
    4c0e:	00c69763          	bne	a3,a2,4c1c <LCD_ShowChar+0x10a>
    4c12:	47c2                	lw	a5,16(sp)
    4c14:	00fc0633          	add	a2,s8,a5
    4c18:	965a                	add	a2,a2,s6
    4c1a:	bfb5                	j	4b96 <LCD_ShowChar+0x84>
    4c1c:	4661                	li	a2,24
    4c1e:	00c69663          	bne	a3,a2,4c2a <LCD_ShowChar+0x118>
    4c22:	013c0633          	add	a2,s8,s3
    4c26:	9656                	add	a2,a2,s5
    4c28:	b7bd                	j	4b96 <LCD_ShowChar+0x84>
    4c2a:	02000613          	li	a2,32
    4c2e:	f4c69ae3          	bne	a3,a2,4b82 <LCD_ShowChar+0x70>
    4c32:	47d2                	lw	a5,20(sp)
    4c34:	00fc0633          	add	a2,s8,a5
    4c38:	9652                	add	a2,a2,s4
    4c3a:	bfb1                	j	4b96 <LCD_ShowChar+0x84>
    4c3c:	fb41                	bnez	a4,4bcc <LCD_ShowChar+0xba>
    4c3e:	8101d603          	lhu	a2,-2032(gp) # 200001f0 <BACK_COLOR>
    4c42:	85e6                	mv	a1,s9
    4c44:	856a                	mv	a0,s10
    4c46:	ce3a                	sw	a4,28(sp)
    4c48:	cc36                	sw	a3,24(sp)
    4c4a:	e65ff0ef          	jal	ra,4aae <LCD_Fast_DrawPoint>
    4c4e:	4772                	lw	a4,28(sp)
    4c50:	46e2                	lw	a3,24(sp)
    4c52:	bfad                	j	4bcc <LCD_ShowChar+0xba>
    4c54:	f5941be3          	bne	s0,s9,4baa <LCD_ShowChar+0x98>
    4c58:	b77d                	j	4c06 <LCD_ShowChar+0xf4>

00004c5a <LCD_ShowString>:
    4c5a:	895fb2ef          	jal	t0,4ee <__riscv_save_10>
    4c5e:	962a                	add	a2,a2,a0
    4c60:	96ae                	add	a3,a3,a1
    4c62:	01061913          	slli	s2,a2,0x10
    4c66:	01069993          	slli	s3,a3,0x10
    4c6a:	1141                	addi	sp,sp,-16
    4c6c:	84ae                	mv	s1,a1
    4c6e:	01095913          	srli	s2,s2,0x10
    4c72:	0109d993          	srli	s3,s3,0x10
    4c76:	8a3a                	mv	s4,a4
    4c78:	00175b13          	srli	s6,a4,0x1
    4c7c:	842a                	mv	s0,a0
    4c7e:	05e00a93          	li	s5,94
    4c82:	0ff57b93          	andi	s7,a0,255
    4c86:	2390                	lbu	a2,0(a5)
    4c88:	fe060713          	addi	a4,a2,-32
    4c8c:	0ff77713          	andi	a4,a4,255
    4c90:	00eaf563          	bgeu	s5,a4,4c9a <LCD_ShowString+0x40>
    4c94:	0141                	addi	sp,sp,16
    4c96:	891fb06f          	j	526 <__riscv_restore_10>
    4c9a:	01246663          	bltu	s0,s2,4ca6 <LCD_ShowString+0x4c>
    4c9e:	94d2                	add	s1,s1,s4
    4ca0:	04c2                	slli	s1,s1,0x10
    4ca2:	845e                	mv	s0,s7
    4ca4:	80c1                	srli	s1,s1,0x10
    4ca6:	c63e                	sw	a5,12(sp)
    4ca8:	ff34f6e3          	bgeu	s1,s3,4c94 <LCD_ShowString+0x3a>
    4cac:	8522                	mv	a0,s0
    4cae:	4705                	li	a4,1
    4cb0:	86d2                	mv	a3,s4
    4cb2:	85a6                	mv	a1,s1
    4cb4:	e5fff0ef          	jal	ra,4b12 <LCD_ShowChar>
    4cb8:	47b2                	lw	a5,12(sp)
    4cba:	945a                	add	s0,s0,s6
    4cbc:	0442                	slli	s0,s0,0x10
    4cbe:	8041                	srli	s0,s0,0x10
    4cc0:	0785                	addi	a5,a5,1
    4cc2:	b7d1                	j	4c86 <LCD_ShowString+0x2c>

00004cc4 <LCD_Color_Fill>:
    4cc4:	839fb2ef          	jal	t0,4fc <__riscv_save_4>
    4cc8:	40a60933          	sub	s2,a2,a0
    4ccc:	40b684b3          	sub	s1,a3,a1
    4cd0:	0905                	addi	s2,s2,1
    4cd2:	0485                	addi	s1,s1,1
    4cd4:	0942                	slli	s2,s2,0x10
    4cd6:	04c2                	slli	s1,s1,0x10
    4cd8:	1141                	addi	sp,sp,-16
    4cda:	89aa                	mv	s3,a0
    4cdc:	8a2e                	mv	s4,a1
    4cde:	01095913          	srli	s2,s2,0x10
    4ce2:	80c1                	srli	s1,s1,0x10
    4ce4:	4401                	li	s0,0
    4ce6:	60040ab7          	lui	s5,0x60040
    4cea:	00946563          	bltu	s0,s1,4cf4 <LCD_Color_Fill+0x30>
    4cee:	0141                	addi	sp,sp,16
    4cf0:	841fb06f          	j	530 <__riscv_restore_4>
    4cf4:	014405b3          	add	a1,s0,s4
    4cf8:	05c2                	slli	a1,a1,0x10
    4cfa:	81c1                	srli	a1,a1,0x10
    4cfc:	854e                	mv	a0,s3
    4cfe:	c63a                	sw	a4,12(sp)
    4d00:	f10fe0ef          	jal	ra,3410 <LCD_SetCursor>
    4d04:	efafe0ef          	jal	ra,33fe <LCD_WriteRAM_Prepare>
    4d08:	4732                	lw	a4,12(sp)
    4d0a:	4781                	li	a5,0
    4d0c:	0127e663          	bltu	a5,s2,4d18 <LCD_Color_Fill+0x54>
    4d10:	0405                	addi	s0,s0,1
    4d12:	0442                	slli	s0,s0,0x10
    4d14:	8041                	srli	s0,s0,0x10
    4d16:	bfd1                	j	4cea <LCD_Color_Fill+0x26>
    4d18:	0785                	addi	a5,a5,1
    4d1a:	07c2                	slli	a5,a5,0x10
    4d1c:	00ea9023          	sh	a4,0(s5) # 60040000 <__freertos_irq_stack_top+0x40030000>
    4d20:	83c1                	srli	a5,a5,0x10
    4d22:	b7ed                	j	4d0c <LCD_Color_Fill+0x48>

00004d24 <LCD_DrawLine>:
    4d24:	fc2fb2ef          	jal	t0,4e6 <__riscv_save_12>
    4d28:	40a60433          	sub	s0,a2,a0
    4d2c:	8b2a                	mv	s6,a0
    4d2e:	8cae                	mv	s9,a1
    4d30:	40b684b3          	sub	s1,a3,a1
    4d34:	4b85                	li	s7,1
    4d36:	00804763          	bgtz	s0,4d44 <LCD_DrawLine+0x20>
    4d3a:	4b81                	li	s7,0
    4d3c:	c401                	beqz	s0,4d44 <LCD_DrawLine+0x20>
    4d3e:	40c50433          	sub	s0,a0,a2
    4d42:	5bfd                	li	s7,-1
    4d44:	4c05                	li	s8,1
    4d46:	00904763          	bgtz	s1,4d54 <LCD_DrawLine+0x30>
    4d4a:	4c01                	li	s8,0
    4d4c:	c481                	beqz	s1,4d54 <LCD_DrawLine+0x30>
    4d4e:	40d584b3          	sub	s1,a1,a3
    4d52:	5c7d                	li	s8,-1
    4d54:	8922                	mv	s2,s0
    4d56:	00945363          	bge	s0,s1,4d5c <LCD_DrawLine+0x38>
    4d5a:	8926                	mv	s2,s1
    4d5c:	6d41                	lui	s10,0x10
    4d5e:	4a81                	li	s5,0
    4d60:	4a01                	li	s4,0
    4d62:	4981                	li	s3,0
    4d64:	00190d93          	addi	s11,s2,1
    4d68:	1d7d                	addi	s10,s10,-1
    4d6a:	013dd463          	bge	s11,s3,4d72 <LCD_DrawLine+0x4e>
    4d6e:	fb4fb06f          	j	522 <__riscv_restore_12>
    4d72:	010c9593          	slli	a1,s9,0x10
    4d76:	010b1513          	slli	a0,s6,0x10
    4d7a:	866a                	mv	a2,s10
    4d7c:	81c1                	srli	a1,a1,0x10
    4d7e:	8141                	srli	a0,a0,0x10
    4d80:	9a22                	add	s4,s4,s0
    4d82:	d2dff0ef          	jal	ra,4aae <LCD_Fast_DrawPoint>
    4d86:	9aa6                	add	s5,s5,s1
    4d88:	01495563          	bge	s2,s4,4d92 <LCD_DrawLine+0x6e>
    4d8c:	412a0a33          	sub	s4,s4,s2
    4d90:	9b5e                	add	s6,s6,s7
    4d92:	01595563          	bge	s2,s5,4d9c <LCD_DrawLine+0x78>
    4d96:	412a8ab3          	sub	s5,s5,s2
    4d9a:	9ce2                	add	s9,s9,s8
    4d9c:	0985                	addi	s3,s3,1
    4d9e:	09c2                	slli	s3,s3,0x10
    4da0:	0109d993          	srli	s3,s3,0x10
    4da4:	b7d9                	j	4d6a <LCD_DrawLine+0x46>

00004da6 <LCD_DrawRectangle>:
    4da6:	f56fb2ef          	jal	t0,4fc <__riscv_save_4>
    4daa:	8436                	mv	s0,a3
    4dac:	86ae                	mv	a3,a1
    4dae:	89b2                	mv	s3,a2
    4db0:	892a                	mv	s2,a0
    4db2:	84ae                	mv	s1,a1
    4db4:	f71ff0ef          	jal	ra,4d24 <LCD_DrawLine>
    4db8:	86a2                	mv	a3,s0
    4dba:	864a                	mv	a2,s2
    4dbc:	85a6                	mv	a1,s1
    4dbe:	854a                	mv	a0,s2
    4dc0:	f65ff0ef          	jal	ra,4d24 <LCD_DrawLine>
    4dc4:	86a2                	mv	a3,s0
    4dc6:	864e                	mv	a2,s3
    4dc8:	85a2                	mv	a1,s0
    4dca:	854a                	mv	a0,s2
    4dcc:	f59ff0ef          	jal	ra,4d24 <LCD_DrawLine>
    4dd0:	86a2                	mv	a3,s0
    4dd2:	864e                	mv	a2,s3
    4dd4:	85a6                	mv	a1,s1
    4dd6:	854e                	mv	a0,s3
    4dd8:	f4dff0ef          	jal	ra,4d24 <LCD_DrawLine>
    4ddc:	f54fb06f          	j	530 <__riscv_restore_4>

00004de0 <LCD_Draw_Circle>:
    4de0:	f06fb2ef          	jal	t0,4e6 <__riscv_save_12>
    4de4:	00161793          	slli	a5,a2,0x1
    4de8:	498d                	li	s3,3
    4dea:	6441                	lui	s0,0x10
    4dec:	1141                	addi	sp,sp,-16
    4dee:	8b2a                	mv	s6,a0
    4df0:	8bae                	mv	s7,a1
    4df2:	8ab2                	mv	s5,a2
    4df4:	40f989b3          	sub	s3,s3,a5
    4df8:	4a01                	li	s4,0
    4dfa:	147d                	addi	s0,s0,-1
    4dfc:	010a1913          	slli	s2,s4,0x10
    4e00:	010a9493          	slli	s1,s5,0x10
    4e04:	01095913          	srli	s2,s2,0x10
    4e08:	80c1                	srli	s1,s1,0x10
    4e0a:	016907b3          	add	a5,s2,s6
    4e0e:	409b8cb3          	sub	s9,s7,s1
    4e12:	07c2                	slli	a5,a5,0x10
    4e14:	0cc2                	slli	s9,s9,0x10
    4e16:	83c1                	srli	a5,a5,0x10
    4e18:	010cdc93          	srli	s9,s9,0x10
    4e1c:	01648db3          	add	s11,s1,s6
    4e20:	412b8c33          	sub	s8,s7,s2
    4e24:	853e                	mv	a0,a5
    4e26:	8622                	mv	a2,s0
    4e28:	85e6                	mv	a1,s9
    4e2a:	0dc2                	slli	s11,s11,0x10
    4e2c:	0c42                	slli	s8,s8,0x10
    4e2e:	c63e                	sw	a5,12(sp)
    4e30:	010ddd93          	srli	s11,s11,0x10
    4e34:	c7bff0ef          	jal	ra,4aae <LCD_Fast_DrawPoint>
    4e38:	010c5c13          	srli	s8,s8,0x10
    4e3c:	01790d33          	add	s10,s2,s7
    4e40:	856e                	mv	a0,s11
    4e42:	8622                	mv	a2,s0
    4e44:	85e2                	mv	a1,s8
    4e46:	0d42                	slli	s10,s10,0x10
    4e48:	c67ff0ef          	jal	ra,4aae <LCD_Fast_DrawPoint>
    4e4c:	010d5d13          	srli	s10,s10,0x10
    4e50:	856e                	mv	a0,s11
    4e52:	8622                	mv	a2,s0
    4e54:	85ea                	mv	a1,s10
    4e56:	c59ff0ef          	jal	ra,4aae <LCD_Fast_DrawPoint>
    4e5a:	47b2                	lw	a5,12(sp)
    4e5c:	01748db3          	add	s11,s1,s7
    4e60:	0dc2                	slli	s11,s11,0x10
    4e62:	010ddd93          	srli	s11,s11,0x10
    4e66:	412b0933          	sub	s2,s6,s2
    4e6a:	853e                	mv	a0,a5
    4e6c:	8622                	mv	a2,s0
    4e6e:	85ee                	mv	a1,s11
    4e70:	0942                	slli	s2,s2,0x10
    4e72:	c3dff0ef          	jal	ra,4aae <LCD_Fast_DrawPoint>
    4e76:	01095913          	srli	s2,s2,0x10
    4e7a:	409b04b3          	sub	s1,s6,s1
    4e7e:	8622                	mv	a2,s0
    4e80:	85ee                	mv	a1,s11
    4e82:	854a                	mv	a0,s2
    4e84:	04c2                	slli	s1,s1,0x10
    4e86:	c29ff0ef          	jal	ra,4aae <LCD_Fast_DrawPoint>
    4e8a:	80c1                	srli	s1,s1,0x10
    4e8c:	8622                	mv	a2,s0
    4e8e:	85ea                	mv	a1,s10
    4e90:	8526                	mv	a0,s1
    4e92:	c1dff0ef          	jal	ra,4aae <LCD_Fast_DrawPoint>
    4e96:	8622                	mv	a2,s0
    4e98:	85e6                	mv	a1,s9
    4e9a:	854a                	mv	a0,s2
    4e9c:	c13ff0ef          	jal	ra,4aae <LCD_Fast_DrawPoint>
    4ea0:	8622                	mv	a2,s0
    4ea2:	85e2                	mv	a1,s8
    4ea4:	8526                	mv	a0,s1
    4ea6:	c09ff0ef          	jal	ra,4aae <LCD_Fast_DrawPoint>
    4eaa:	0a05                	addi	s4,s4,1
    4eac:	0009db63          	bgez	s3,4ec2 <LCD_Draw_Circle+0xe2>
    4eb0:	002a1793          	slli	a5,s4,0x2
    4eb4:	0799                	addi	a5,a5,6
    4eb6:	99be                	add	s3,s3,a5
    4eb8:	f54ad2e3          	bge	s5,s4,4dfc <LCD_Draw_Circle+0x1c>
    4ebc:	0141                	addi	sp,sp,16
    4ebe:	e64fb06f          	j	522 <__riscv_restore_12>
    4ec2:	415a07b3          	sub	a5,s4,s5
    4ec6:	078a                	slli	a5,a5,0x2
    4ec8:	07a9                	addi	a5,a5,10
    4eca:	99be                	add	s3,s3,a5
    4ecc:	1afd                	addi	s5,s5,-1
    4ece:	b7ed                	j	4eb8 <LCD_Draw_Circle+0xd8>

00004ed0 <__fixunssfsi>:
    4ed0:	01755713          	srli	a4,a0,0x17
    4ed4:	00800637          	lui	a2,0x800
    4ed8:	fff60793          	addi	a5,a2,-1 # 7fffff <_data_lma+0x7f0f1b>
    4edc:	0ff77713          	andi	a4,a4,255
    4ee0:	07e00593          	li	a1,126
    4ee4:	00a7f6b3          	and	a3,a5,a0
    4ee8:	01f55793          	srli	a5,a0,0x1f
    4eec:	4501                	li	a0,0
    4eee:	00e5f463          	bgeu	a1,a4,4ef6 <__fixunssfsi+0x26>
    4ef2:	c399                	beqz	a5,4ef8 <__fixunssfsi+0x28>
    4ef4:	8082                	ret
    4ef6:	8082                	ret
    4ef8:	09e00793          	li	a5,158
    4efc:	557d                	li	a0,-1
    4efe:	fee7ebe3          	bltu	a5,a4,4ef4 <__fixunssfsi+0x24>
    4f02:	09500593          	li	a1,149
    4f06:	00c6e7b3          	or	a5,a3,a2
    4f0a:	00e5d763          	bge	a1,a4,4f18 <__fixunssfsi+0x48>
    4f0e:	f6a70713          	addi	a4,a4,-150
    4f12:	00e79533          	sll	a0,a5,a4
    4f16:	8082                	ret
    4f18:	09600513          	li	a0,150
    4f1c:	40e50733          	sub	a4,a0,a4
    4f20:	00e7d533          	srl	a0,a5,a4
    4f24:	8082                	ret

00004f26 <__locale_ctype_ptr>:
    4f26:	81418793          	addi	a5,gp,-2028 # 200001f4 <_impure_ptr>
    4f2a:	439c                	lw	a5,0(a5)
    4f2c:	539c                	lw	a5,32(a5)
    4f2e:	e789                	bnez	a5,4f38 <__locale_ctype_ptr+0x12>
    4f30:	1fffb797          	auipc	a5,0x1fffb
    4f34:	14078793          	addi	a5,a5,320 # 20000070 <__global_locale>
    4f38:	0ec7a503          	lw	a0,236(a5)
    4f3c:	8082                	ret

00004f3e <malloc>:
    4f3e:	81418793          	addi	a5,gp,-2028 # 200001f4 <_impure_ptr>
    4f42:	85aa                	mv	a1,a0
    4f44:	4388                	lw	a0,0(a5)
    4f46:	aa59                	j	50dc <_malloc_r>

00004f48 <__ascii_mbtowc>:
    4f48:	ed91                	bnez	a1,4f64 <__ascii_mbtowc+0x1c>
    4f4a:	1141                	addi	sp,sp,-16
    4f4c:	006c                	addi	a1,sp,12
    4f4e:	4501                	li	a0,0
    4f50:	ca01                	beqz	a2,4f60 <__ascii_mbtowc+0x18>
    4f52:	5579                	li	a0,-2
    4f54:	c691                	beqz	a3,4f60 <__ascii_mbtowc+0x18>
    4f56:	221c                	lbu	a5,0(a2)
    4f58:	c19c                	sw	a5,0(a1)
    4f5a:	2208                	lbu	a0,0(a2)
    4f5c:	00a03533          	snez	a0,a0
    4f60:	0141                	addi	sp,sp,16
    4f62:	8082                	ret
    4f64:	4501                	li	a0,0
    4f66:	ca09                	beqz	a2,4f78 <__ascii_mbtowc+0x30>
    4f68:	5579                	li	a0,-2
    4f6a:	c699                	beqz	a3,4f78 <__ascii_mbtowc+0x30>
    4f6c:	221c                	lbu	a5,0(a2)
    4f6e:	c19c                	sw	a5,0(a1)
    4f70:	2208                	lbu	a0,0(a2)
    4f72:	00a03533          	snez	a0,a0
    4f76:	8082                	ret
    4f78:	8082                	ret

00004f7a <memcpy>:
    4f7a:	00a5c7b3          	xor	a5,a1,a0
    4f7e:	8b8d                	andi	a5,a5,3
    4f80:	00c50733          	add	a4,a0,a2
    4f84:	e781                	bnez	a5,4f8c <memcpy+0x12>
    4f86:	478d                	li	a5,3
    4f88:	00c7ed63          	bltu	a5,a2,4fa2 <memcpy+0x28>
    4f8c:	87aa                	mv	a5,a0
    4f8e:	08e57e63          	bgeu	a0,a4,502a <memcpy+0xb0>
    4f92:	2194                	lbu	a3,0(a1)
    4f94:	0785                	addi	a5,a5,1
    4f96:	0585                	addi	a1,a1,1
    4f98:	fed78fa3          	sb	a3,-1(a5)
    4f9c:	fee7ebe3          	bltu	a5,a4,4f92 <memcpy+0x18>
    4fa0:	8082                	ret
    4fa2:	00357693          	andi	a3,a0,3
    4fa6:	87aa                	mv	a5,a0
    4fa8:	ca89                	beqz	a3,4fba <memcpy+0x40>
    4faa:	2194                	lbu	a3,0(a1)
    4fac:	0785                	addi	a5,a5,1
    4fae:	0585                	addi	a1,a1,1
    4fb0:	fed78fa3          	sb	a3,-1(a5)
    4fb4:	0037f693          	andi	a3,a5,3
    4fb8:	bfc5                	j	4fa8 <memcpy+0x2e>
    4fba:	ffc77693          	andi	a3,a4,-4
    4fbe:	fe068613          	addi	a2,a3,-32
    4fc2:	06c7f063          	bgeu	a5,a2,5022 <memcpy+0xa8>
    4fc6:	0005a383          	lw	t2,0(a1) # 4000 <LCD_Init+0xa82>
    4fca:	0045a283          	lw	t0,4(a1)
    4fce:	0085af83          	lw	t6,8(a1)
    4fd2:	00c5af03          	lw	t5,12(a1)
    4fd6:	0105ae83          	lw	t4,16(a1)
    4fda:	0145ae03          	lw	t3,20(a1)
    4fde:	0185a303          	lw	t1,24(a1)
    4fe2:	01c5a883          	lw	a7,28(a1)
    4fe6:	02458593          	addi	a1,a1,36
    4fea:	0077a023          	sw	t2,0(a5)
    4fee:	ffc5a803          	lw	a6,-4(a1)
    4ff2:	0057a223          	sw	t0,4(a5)
    4ff6:	01f7a423          	sw	t6,8(a5)
    4ffa:	01e7a623          	sw	t5,12(a5)
    4ffe:	01d7a823          	sw	t4,16(a5)
    5002:	01c7aa23          	sw	t3,20(a5)
    5006:	0067ac23          	sw	t1,24(a5)
    500a:	0117ae23          	sw	a7,28(a5)
    500e:	02478793          	addi	a5,a5,36
    5012:	ff07ae23          	sw	a6,-4(a5)
    5016:	b775                	j	4fc2 <memcpy+0x48>
    5018:	4190                	lw	a2,0(a1)
    501a:	0791                	addi	a5,a5,4
    501c:	0591                	addi	a1,a1,4
    501e:	fec7ae23          	sw	a2,-4(a5)
    5022:	fed7ebe3          	bltu	a5,a3,5018 <memcpy+0x9e>
    5026:	f6e7e6e3          	bltu	a5,a4,4f92 <memcpy+0x18>
    502a:	8082                	ret

0000502c <_free_r>:
    502c:	c5dd                	beqz	a1,50da <_free_r+0xae>
    502e:	ffc5a783          	lw	a5,-4(a1)
    5032:	1141                	addi	sp,sp,-16
    5034:	c422                	sw	s0,8(sp)
    5036:	c606                	sw	ra,12(sp)
    5038:	c226                	sw	s1,4(sp)
    503a:	ffc58413          	addi	s0,a1,-4
    503e:	0007d363          	bgez	a5,5044 <_free_r+0x18>
    5042:	943e                	add	s0,s0,a5
    5044:	84aa                	mv	s1,a0
    5046:	5f8030ef          	jal	ra,863e <__malloc_lock>
    504a:	1fffb797          	auipc	a5,0x1fffb
    504e:	25278793          	addi	a5,a5,594 # 2000029c <__malloc_free_list>
    5052:	439c                	lw	a5,0(a5)
    5054:	ef91                	bnez	a5,5070 <_free_r+0x44>
    5056:	00042223          	sw	zero,4(s0) # 10004 <_data_lma+0xf20>
    505a:	1fffb797          	auipc	a5,0x1fffb
    505e:	2487a123          	sw	s0,578(a5) # 2000029c <__malloc_free_list>
    5062:	4422                	lw	s0,8(sp)
    5064:	40b2                	lw	ra,12(sp)
    5066:	8526                	mv	a0,s1
    5068:	4492                	lw	s1,4(sp)
    506a:	0141                	addi	sp,sp,16
    506c:	5d40306f          	j	8640 <__malloc_unlock>
    5070:	00f47e63          	bgeu	s0,a5,508c <_free_r+0x60>
    5074:	4014                	lw	a3,0(s0)
    5076:	00d40733          	add	a4,s0,a3
    507a:	00e79663          	bne	a5,a4,5086 <_free_r+0x5a>
    507e:	4398                	lw	a4,0(a5)
    5080:	43dc                	lw	a5,4(a5)
    5082:	9736                	add	a4,a4,a3
    5084:	c018                	sw	a4,0(s0)
    5086:	c05c                	sw	a5,4(s0)
    5088:	bfc9                	j	505a <_free_r+0x2e>
    508a:	87ba                	mv	a5,a4
    508c:	43d8                	lw	a4,4(a5)
    508e:	c319                	beqz	a4,5094 <_free_r+0x68>
    5090:	fee47de3          	bgeu	s0,a4,508a <_free_r+0x5e>
    5094:	4394                	lw	a3,0(a5)
    5096:	00d78633          	add	a2,a5,a3
    509a:	00861f63          	bne	a2,s0,50b8 <_free_r+0x8c>
    509e:	4010                	lw	a2,0(s0)
    50a0:	96b2                	add	a3,a3,a2
    50a2:	c394                	sw	a3,0(a5)
    50a4:	00d78633          	add	a2,a5,a3
    50a8:	fac71de3          	bne	a4,a2,5062 <_free_r+0x36>
    50ac:	4310                	lw	a2,0(a4)
    50ae:	4358                	lw	a4,4(a4)
    50b0:	96b2                	add	a3,a3,a2
    50b2:	c394                	sw	a3,0(a5)
    50b4:	c3d8                	sw	a4,4(a5)
    50b6:	b775                	j	5062 <_free_r+0x36>
    50b8:	00c47563          	bgeu	s0,a2,50c2 <_free_r+0x96>
    50bc:	47b1                	li	a5,12
    50be:	c09c                	sw	a5,0(s1)
    50c0:	b74d                	j	5062 <_free_r+0x36>
    50c2:	4010                	lw	a2,0(s0)
    50c4:	00c406b3          	add	a3,s0,a2
    50c8:	00d71663          	bne	a4,a3,50d4 <_free_r+0xa8>
    50cc:	4314                	lw	a3,0(a4)
    50ce:	4358                	lw	a4,4(a4)
    50d0:	96b2                	add	a3,a3,a2
    50d2:	c014                	sw	a3,0(s0)
    50d4:	c058                	sw	a4,4(s0)
    50d6:	c3c0                	sw	s0,4(a5)
    50d8:	b769                	j	5062 <_free_r+0x36>
    50da:	8082                	ret

000050dc <_malloc_r>:
    50dc:	1101                	addi	sp,sp,-32
    50de:	ca26                	sw	s1,20(sp)
    50e0:	00358493          	addi	s1,a1,3
    50e4:	98f1                	andi	s1,s1,-4
    50e6:	ce06                	sw	ra,28(sp)
    50e8:	cc22                	sw	s0,24(sp)
    50ea:	c84a                	sw	s2,16(sp)
    50ec:	c64e                	sw	s3,12(sp)
    50ee:	04a1                	addi	s1,s1,8
    50f0:	47b1                	li	a5,12
    50f2:	04f4fb63          	bgeu	s1,a5,5148 <_malloc_r+0x6c>
    50f6:	44b1                	li	s1,12
    50f8:	04b4ea63          	bltu	s1,a1,514c <_malloc_r+0x70>
    50fc:	892a                	mv	s2,a0
    50fe:	540030ef          	jal	ra,863e <__malloc_lock>
    5102:	1fffb797          	auipc	a5,0x1fffb
    5106:	19a78793          	addi	a5,a5,410 # 2000029c <__malloc_free_list>
    510a:	4398                	lw	a4,0(a5)
    510c:	843a                	mv	s0,a4
    510e:	e829                	bnez	s0,5160 <_malloc_r+0x84>
    5110:	1fffb797          	auipc	a5,0x1fffb
    5114:	19078793          	addi	a5,a5,400 # 200002a0 <__malloc_sbrk_start>
    5118:	439c                	lw	a5,0(a5)
    511a:	eb89                	bnez	a5,512c <_malloc_r+0x50>
    511c:	4581                	li	a1,0
    511e:	854a                	mv	a0,s2
    5120:	3b5000ef          	jal	ra,5cd4 <_sbrk_r>
    5124:	1fffb797          	auipc	a5,0x1fffb
    5128:	16a7ae23          	sw	a0,380(a5) # 200002a0 <__malloc_sbrk_start>
    512c:	85a6                	mv	a1,s1
    512e:	854a                	mv	a0,s2
    5130:	3a5000ef          	jal	ra,5cd4 <_sbrk_r>
    5134:	59fd                	li	s3,-1
    5136:	07351b63          	bne	a0,s3,51ac <_malloc_r+0xd0>
    513a:	47b1                	li	a5,12
    513c:	00f92023          	sw	a5,0(s2)
    5140:	854a                	mv	a0,s2
    5142:	4fe030ef          	jal	ra,8640 <__malloc_unlock>
    5146:	a029                	j	5150 <_malloc_r+0x74>
    5148:	fa04d8e3          	bgez	s1,50f8 <_malloc_r+0x1c>
    514c:	47b1                	li	a5,12
    514e:	c11c                	sw	a5,0(a0)
    5150:	4501                	li	a0,0
    5152:	40f2                	lw	ra,28(sp)
    5154:	4462                	lw	s0,24(sp)
    5156:	44d2                	lw	s1,20(sp)
    5158:	4942                	lw	s2,16(sp)
    515a:	49b2                	lw	s3,12(sp)
    515c:	6105                	addi	sp,sp,32
    515e:	8082                	ret
    5160:	401c                	lw	a5,0(s0)
    5162:	8f85                	sub	a5,a5,s1
    5164:	0407c163          	bltz	a5,51a6 <_malloc_r+0xca>
    5168:	46ad                	li	a3,11
    516a:	00f6f663          	bgeu	a3,a5,5176 <_malloc_r+0x9a>
    516e:	c01c                	sw	a5,0(s0)
    5170:	943e                	add	s0,s0,a5
    5172:	c004                	sw	s1,0(s0)
    5174:	a801                	j	5184 <_malloc_r+0xa8>
    5176:	405c                	lw	a5,4(s0)
    5178:	02871563          	bne	a4,s0,51a2 <_malloc_r+0xc6>
    517c:	1fffb717          	auipc	a4,0x1fffb
    5180:	12f72023          	sw	a5,288(a4) # 2000029c <__malloc_free_list>
    5184:	854a                	mv	a0,s2
    5186:	4ba030ef          	jal	ra,8640 <__malloc_unlock>
    518a:	00b40513          	addi	a0,s0,11
    518e:	00440793          	addi	a5,s0,4
    5192:	9961                	andi	a0,a0,-8
    5194:	40f50733          	sub	a4,a0,a5
    5198:	df4d                	beqz	a4,5152 <_malloc_r+0x76>
    519a:	943a                	add	s0,s0,a4
    519c:	8f89                	sub	a5,a5,a0
    519e:	c01c                	sw	a5,0(s0)
    51a0:	bf4d                	j	5152 <_malloc_r+0x76>
    51a2:	c35c                	sw	a5,4(a4)
    51a4:	b7c5                	j	5184 <_malloc_r+0xa8>
    51a6:	8722                	mv	a4,s0
    51a8:	4040                	lw	s0,4(s0)
    51aa:	b795                	j	510e <_malloc_r+0x32>
    51ac:	00350413          	addi	s0,a0,3
    51b0:	9871                	andi	s0,s0,-4
    51b2:	fc8500e3          	beq	a0,s0,5172 <_malloc_r+0x96>
    51b6:	40a405b3          	sub	a1,s0,a0
    51ba:	854a                	mv	a0,s2
    51bc:	319000ef          	jal	ra,5cd4 <_sbrk_r>
    51c0:	fb3519e3          	bne	a0,s3,5172 <_malloc_r+0x96>
    51c4:	bf9d                	j	513a <_malloc_r+0x5e>

000051c6 <__cvt>:
    51c6:	7179                	addi	sp,sp,-48
    51c8:	d422                	sw	s0,40(sp)
    51ca:	d04a                	sw	s2,32(sp)
    51cc:	cc52                	sw	s4,24(sp)
    51ce:	ca56                	sw	s5,20(sp)
    51d0:	c85a                	sw	s6,16(sp)
    51d2:	d606                	sw	ra,44(sp)
    51d4:	d226                	sw	s1,36(sp)
    51d6:	ce4e                	sw	s3,28(sp)
    51d8:	8a3a                	mv	s4,a4
    51da:	8aae                	mv	s5,a1
    51dc:	8432                	mv	s0,a2
    51de:	8936                	mv	s2,a3
    51e0:	8b42                	mv	s6,a6
    51e2:	4701                	li	a4,0
    51e4:	00065863          	bgez	a2,51f4 <__cvt+0x2e>
    51e8:	80000737          	lui	a4,0x80000
    51ec:	00c74433          	xor	s0,a4,a2
    51f0:	02d00713          	li	a4,45
    51f4:	a398                	sb	a4,0(a5)
    51f6:	fdf8f493          	andi	s1,a7,-33
    51fa:	04600793          	li	a5,70
    51fe:	468d                	li	a3,3
    5200:	00f48863          	beq	s1,a5,5210 <__cvt+0x4a>
    5204:	04500793          	li	a5,69
    5208:	4689                	li	a3,2
    520a:	00f49363          	bne	s1,a5,5210 <__cvt+0x4a>
    520e:	0905                	addi	s2,s2,1
    5210:	87da                	mv	a5,s6
    5212:	00c10893          	addi	a7,sp,12
    5216:	00810813          	addi	a6,sp,8
    521a:	874a                	mv	a4,s2
    521c:	85d6                	mv	a1,s5
    521e:	8622                	mv	a2,s0
    5220:	3e7010ef          	jal	ra,6e06 <_dtoa_r>
    5224:	04700793          	li	a5,71
    5228:	89aa                	mv	s3,a0
    522a:	00f49663          	bne	s1,a5,5236 <__cvt+0x70>
    522e:	001a7a13          	andi	s4,s4,1
    5232:	040a0a63          	beqz	s4,5286 <__cvt+0xc0>
    5236:	04600793          	li	a5,70
    523a:	01298a33          	add	s4,s3,s2
    523e:	02f49763          	bne	s1,a5,526c <__cvt+0xa6>
    5242:	0009c703          	lbu	a4,0(s3)
    5246:	03000793          	li	a5,48
    524a:	00f71e63          	bne	a4,a5,5266 <__cvt+0xa0>
    524e:	4601                	li	a2,0
    5250:	4681                	li	a3,0
    5252:	8556                	mv	a0,s5
    5254:	85a2                	mv	a1,s0
    5256:	791040ef          	jal	ra,a1e6 <__eqdf2>
    525a:	c511                	beqz	a0,5266 <__cvt+0xa0>
    525c:	4785                	li	a5,1
    525e:	41278933          	sub	s2,a5,s2
    5262:	012b2023          	sw	s2,0(s6)
    5266:	000b2783          	lw	a5,0(s6)
    526a:	9a3e                	add	s4,s4,a5
    526c:	4601                	li	a2,0
    526e:	4681                	li	a3,0
    5270:	8556                	mv	a0,s5
    5272:	85a2                	mv	a1,s0
    5274:	773040ef          	jal	ra,a1e6 <__eqdf2>
    5278:	e111                	bnez	a0,527c <__cvt+0xb6>
    527a:	c652                	sw	s4,12(sp)
    527c:	03000713          	li	a4,48
    5280:	47b2                	lw	a5,12(sp)
    5282:	0347e263          	bltu	a5,s4,52a6 <__cvt+0xe0>
    5286:	47b2                	lw	a5,12(sp)
    5288:	5742                	lw	a4,48(sp)
    528a:	50b2                	lw	ra,44(sp)
    528c:	5422                	lw	s0,40(sp)
    528e:	413787b3          	sub	a5,a5,s3
    5292:	c31c                	sw	a5,0(a4)
    5294:	854e                	mv	a0,s3
    5296:	5492                	lw	s1,36(sp)
    5298:	5902                	lw	s2,32(sp)
    529a:	49f2                	lw	s3,28(sp)
    529c:	4a62                	lw	s4,24(sp)
    529e:	4ad2                	lw	s5,20(sp)
    52a0:	4b42                	lw	s6,16(sp)
    52a2:	6145                	addi	sp,sp,48
    52a4:	8082                	ret
    52a6:	00178693          	addi	a3,a5,1
    52aa:	c636                	sw	a3,12(sp)
    52ac:	a398                	sb	a4,0(a5)
    52ae:	bfc9                	j	5280 <__cvt+0xba>

000052b0 <__exponent>:
    52b0:	a110                	sb	a2,0(a0)
    52b2:	00250713          	addi	a4,a0,2
    52b6:	02b00793          	li	a5,43
    52ba:	0005d663          	bgez	a1,52c6 <__exponent+0x16>
    52be:	40b005b3          	neg	a1,a1
    52c2:	02d00793          	li	a5,45
    52c6:	b11c                	sb	a5,1(a0)
    52c8:	47a5                	li	a5,9
    52ca:	04b7da63          	bge	a5,a1,531e <__exponent+0x6e>
    52ce:	1141                	addi	sp,sp,-16
    52d0:	00f10793          	addi	a5,sp,15
    52d4:	88be                	mv	a7,a5
    52d6:	4829                	li	a6,10
    52d8:	06300313          	li	t1,99
    52dc:	0305e6b3          	rem	a3,a1,a6
    52e0:	fff78613          	addi	a2,a5,-1
    52e4:	03068693          	addi	a3,a3,48
    52e8:	fed78fa3          	sb	a3,-1(a5)
    52ec:	0305c6b3          	div	a3,a1,a6
    52f0:	00b34d63          	blt	t1,a1,530a <__exponent+0x5a>
    52f4:	03068693          	addi	a3,a3,48
    52f8:	17f9                	addi	a5,a5,-2
    52fa:	fed60fa3          	sb	a3,-1(a2)
    52fe:	0117e963          	bltu	a5,a7,5310 <__exponent+0x60>
    5302:	40a70533          	sub	a0,a4,a0
    5306:	0141                	addi	sp,sp,16
    5308:	8082                	ret
    530a:	87b2                	mv	a5,a2
    530c:	85b6                	mv	a1,a3
    530e:	b7f9                	j	52dc <__exponent+0x2c>
    5310:	0785                	addi	a5,a5,1
    5312:	fff7c683          	lbu	a3,-1(a5)
    5316:	0705                	addi	a4,a4,1
    5318:	fed70fa3          	sb	a3,-1(a4) # 7fffffff <__freertos_irq_stack_top+0x5ffeffff>
    531c:	b7cd                	j	52fe <__exponent+0x4e>
    531e:	03000793          	li	a5,48
    5322:	00450713          	addi	a4,a0,4
    5326:	03058593          	addi	a1,a1,48
    532a:	a13c                	sb	a5,2(a0)
    532c:	b12c                	sb	a1,3(a0)
    532e:	40a70533          	sub	a0,a4,a0
    5332:	8082                	ret

00005334 <_printf_float>:
    5334:	7119                	addi	sp,sp,-128
    5336:	ce3a                	sw	a4,28(sp)
    5338:	de86                	sw	ra,124(sp)
    533a:	dca2                	sw	s0,120(sp)
    533c:	daa6                	sw	s1,116(sp)
    533e:	842e                	mv	s0,a1
    5340:	d8ca                	sw	s2,112(sp)
    5342:	d6ce                	sw	s3,108(sp)
    5344:	d4d2                	sw	s4,104(sp)
    5346:	89b6                	mv	s3,a3
    5348:	d0da                	sw	s6,96(sp)
    534a:	cede                	sw	s7,92(sp)
    534c:	cce2                	sw	s8,88(sp)
    534e:	8932                	mv	s2,a2
    5350:	d2d6                	sw	s5,100(sp)
    5352:	cae6                	sw	s9,84(sp)
    5354:	c8ea                	sw	s10,80(sp)
    5356:	c6ee                	sw	s11,76(sp)
    5358:	84aa                	mv	s1,a0
    535a:	1c8030ef          	jal	ra,8522 <_localeconv_r>
    535e:	00052b83          	lw	s7,0(a0)
    5362:	855e                	mv	a0,s7
    5364:	1a3000ef          	jal	ra,5d06 <strlen>
    5368:	00042b03          	lw	s6,0(s0)
    536c:	4772                	lw	a4,28(sp)
    536e:	dc02                	sw	zero,56(sp)
    5370:	100b7693          	andi	a3,s6,256
    5374:	8c2a                	mv	s8,a0
    5376:	01844a03          	lbu	s4,24(s0)
    537a:	431c                	lw	a5,0(a4)
    537c:	caf1                	beqz	a3,5450 <_printf_float+0x11c>
    537e:	00478693          	addi	a3,a5,4
    5382:	c314                	sw	a3,0(a4)
    5384:	439c                	lw	a5,0(a5)
    5386:	1008                	addi	a0,sp,32
    5388:	4398                	lw	a4,0(a5)
    538a:	d03a                	sw	a4,32(sp)
    538c:	43d8                	lw	a4,4(a5)
    538e:	d23a                	sw	a4,36(sp)
    5390:	4798                	lw	a4,8(a5)
    5392:	d43a                	sw	a4,40(sp)
    5394:	47dc                	lw	a5,12(a5)
    5396:	d63e                	sw	a5,44(sp)
    5398:	01a060ef          	jal	ra,b3b2 <__trunctfdf2>
    539c:	c428                	sw	a0,72(s0)
    539e:	c46c                	sw	a1,76(s0)
    53a0:	04c42c83          	lw	s9,76(s0)
    53a4:	0000a717          	auipc	a4,0xa
    53a8:	80470713          	addi	a4,a4,-2044 # eba8 <asc2_3216+0x17d4>
    53ac:	04842a83          	lw	s5,72(s0)
    53b0:	00072d03          	lw	s10,0(a4)
    53b4:	00472d83          	lw	s11,4(a4)
    53b8:	001c9793          	slli	a5,s9,0x1
    53bc:	8385                	srli	a5,a5,0x1
    53be:	866a                	mv	a2,s10
    53c0:	86ee                	mv	a3,s11
    53c2:	8556                	mv	a0,s5
    53c4:	85be                	mv	a1,a5
    53c6:	ce3e                	sw	a5,28(sp)
    53c8:	3e3050ef          	jal	ra,afaa <__unorddf2>
    53cc:	ed41                	bnez	a0,5464 <_printf_float+0x130>
    53ce:	47f2                	lw	a5,28(sp)
    53d0:	866a                	mv	a2,s10
    53d2:	86ee                	mv	a3,s11
    53d4:	8556                	mv	a0,s5
    53d6:	85be                	mv	a1,a5
    53d8:	727040ef          	jal	ra,a2fe <__ledf2>
    53dc:	08a05463          	blez	a0,5464 <_printf_float+0x130>
    53e0:	4601                	li	a2,0
    53e2:	4681                	li	a3,0
    53e4:	8556                	mv	a0,s5
    53e6:	85e6                	mv	a1,s9
    53e8:	717040ef          	jal	ra,a2fe <__ledf2>
    53ec:	00055663          	bgez	a0,53f8 <_printf_float+0xc4>
    53f0:	02d00793          	li	a5,45
    53f4:	04f401a3          	sb	a5,67(s0)
    53f8:	04700793          	li	a5,71
    53fc:	00009a97          	auipc	s5,0x9
    5400:	7b4a8a93          	addi	s5,s5,1972 # ebb0 <asc2_3216+0x17dc>
    5404:	0147f663          	bgeu	a5,s4,5410 <_printf_float+0xdc>
    5408:	00009a97          	auipc	s5,0x9
    540c:	7aca8a93          	addi	s5,s5,1964 # ebb4 <asc2_3216+0x17e0>
    5410:	ffbb7b13          	andi	s6,s6,-5
    5414:	478d                	li	a5,3
    5416:	01642023          	sw	s6,0(s0)
    541a:	c81c                	sw	a5,16(s0)
    541c:	4b01                	li	s6,0
    541e:	874e                	mv	a4,s3
    5420:	86ca                	mv	a3,s2
    5422:	1870                	addi	a2,sp,60
    5424:	85a2                	mv	a1,s0
    5426:	8526                	mv	a0,s1
    5428:	2ec1                	jal	57f8 <_printf_common>
    542a:	5cfd                	li	s9,-1
    542c:	15951e63          	bne	a0,s9,5588 <_printf_float+0x254>
    5430:	557d                	li	a0,-1
    5432:	50f6                	lw	ra,124(sp)
    5434:	5466                	lw	s0,120(sp)
    5436:	54d6                	lw	s1,116(sp)
    5438:	5946                	lw	s2,112(sp)
    543a:	59b6                	lw	s3,108(sp)
    543c:	5a26                	lw	s4,104(sp)
    543e:	5a96                	lw	s5,100(sp)
    5440:	5b06                	lw	s6,96(sp)
    5442:	4bf6                	lw	s7,92(sp)
    5444:	4c66                	lw	s8,88(sp)
    5446:	4cd6                	lw	s9,84(sp)
    5448:	4d46                	lw	s10,80(sp)
    544a:	4db6                	lw	s11,76(sp)
    544c:	6109                	addi	sp,sp,128
    544e:	8082                	ret
    5450:	079d                	addi	a5,a5,7
    5452:	9be1                	andi	a5,a5,-8
    5454:	00878693          	addi	a3,a5,8
    5458:	c314                	sw	a3,0(a4)
    545a:	4398                	lw	a4,0(a5)
    545c:	43dc                	lw	a5,4(a5)
    545e:	c438                	sw	a4,72(s0)
    5460:	c47c                	sw	a5,76(s0)
    5462:	bf3d                	j	53a0 <_printf_float+0x6c>
    5464:	8656                	mv	a2,s5
    5466:	86e6                	mv	a3,s9
    5468:	8556                	mv	a0,s5
    546a:	85e6                	mv	a1,s9
    546c:	33f050ef          	jal	ra,afaa <__unorddf2>
    5470:	cd11                	beqz	a0,548c <_printf_float+0x158>
    5472:	04700793          	li	a5,71
    5476:	00009a97          	auipc	s5,0x9
    547a:	742a8a93          	addi	s5,s5,1858 # ebb8 <asc2_3216+0x17e4>
    547e:	f947f9e3          	bgeu	a5,s4,5410 <_printf_float+0xdc>
    5482:	00009a97          	auipc	s5,0x9
    5486:	73aa8a93          	addi	s5,s5,1850 # ebbc <asc2_3216+0x17e8>
    548a:	b759                	j	5410 <_printf_float+0xdc>
    548c:	405c                	lw	a5,4(s0)
    548e:	577d                	li	a4,-1
    5490:	0dfa7d13          	andi	s10,s4,223
    5494:	08e79563          	bne	a5,a4,551e <_printf_float+0x1ea>
    5498:	4799                	li	a5,6
    549a:	c05c                	sw	a5,4(s0)
    549c:	4054                	lw	a3,4(s0)
    549e:	400b6713          	ori	a4,s6,1024
    54a2:	183c                	addi	a5,sp,56
    54a4:	85d6                	mv	a1,s5
    54a6:	c03e                	sw	a5,0(sp)
    54a8:	c018                	sw	a4,0(s0)
    54aa:	03310793          	addi	a5,sp,51
    54ae:	c202                	sw	zero,4(sp)
    54b0:	88d2                	mv	a7,s4
    54b2:	03410813          	addi	a6,sp,52
    54b6:	8666                	mv	a2,s9
    54b8:	8526                	mv	a0,s1
    54ba:	d0dff0ef          	jal	ra,51c6 <__cvt>
    54be:	04700793          	li	a5,71
    54c2:	8aaa                	mv	s5,a0
    54c4:	55d2                	lw	a1,52(sp)
    54c6:	00fd1b63          	bne	s10,a5,54dc <_printf_float+0x1a8>
    54ca:	57f5                	li	a5,-3
    54cc:	00f5c563          	blt	a1,a5,54d6 <_printf_float+0x1a2>
    54d0:	405c                	lw	a5,4(s0)
    54d2:	08b7d863          	bge	a5,a1,5562 <_printf_float+0x22e>
    54d6:	1a79                	addi	s4,s4,-2
    54d8:	0ffa7a13          	andi	s4,s4,255
    54dc:	06500793          	li	a5,101
    54e0:	0547e663          	bltu	a5,s4,552c <_printf_float+0x1f8>
    54e4:	15fd                	addi	a1,a1,-1
    54e6:	8652                	mv	a2,s4
    54e8:	05040513          	addi	a0,s0,80
    54ec:	da2e                	sw	a1,52(sp)
    54ee:	dc3ff0ef          	jal	ra,52b0 <__exponent>
    54f2:	5762                	lw	a4,56(sp)
    54f4:	4685                	li	a3,1
    54f6:	8b2a                	mv	s6,a0
    54f8:	00a707b3          	add	a5,a4,a0
    54fc:	c81c                	sw	a5,16(s0)
    54fe:	00e6c563          	blt	a3,a4,5508 <_printf_float+0x1d4>
    5502:	4018                	lw	a4,0(s0)
    5504:	8b05                	andi	a4,a4,1
    5506:	c319                	beqz	a4,550c <_printf_float+0x1d8>
    5508:	0785                	addi	a5,a5,1
    550a:	c81c                	sw	a5,16(s0)
    550c:	03314783          	lbu	a5,51(sp)
    5510:	f00787e3          	beqz	a5,541e <_printf_float+0xea>
    5514:	02d00793          	li	a5,45
    5518:	04f401a3          	sb	a5,67(s0)
    551c:	b709                	j	541e <_printf_float+0xea>
    551e:	04700713          	li	a4,71
    5522:	f6ed1de3          	bne	s10,a4,549c <_printf_float+0x168>
    5526:	fbbd                	bnez	a5,549c <_printf_float+0x168>
    5528:	4785                	li	a5,1
    552a:	bf85                	j	549a <_printf_float+0x166>
    552c:	06600793          	li	a5,102
    5530:	02fa1b63          	bne	s4,a5,5566 <_printf_float+0x232>
    5534:	405c                	lw	a5,4(s0)
    5536:	00b05b63          	blez	a1,554c <_printf_float+0x218>
    553a:	c80c                	sw	a1,16(s0)
    553c:	e781                	bnez	a5,5544 <_printf_float+0x210>
    553e:	4018                	lw	a4,0(s0)
    5540:	8b05                	andi	a4,a4,1
    5542:	cf09                	beqz	a4,555c <_printf_float+0x228>
    5544:	0785                	addi	a5,a5,1
    5546:	97ae                	add	a5,a5,a1
    5548:	c81c                	sw	a5,16(s0)
    554a:	a809                	j	555c <_printf_float+0x228>
    554c:	e789                	bnez	a5,5556 <_printf_float+0x222>
    554e:	4018                	lw	a4,0(s0)
    5550:	4685                	li	a3,1
    5552:	8b05                	andi	a4,a4,1
    5554:	c319                	beqz	a4,555a <_printf_float+0x226>
    5556:	00278693          	addi	a3,a5,2
    555a:	c814                	sw	a3,16(s0)
    555c:	cc2c                	sw	a1,88(s0)
    555e:	4b01                	li	s6,0
    5560:	b775                	j	550c <_printf_float+0x1d8>
    5562:	06700a13          	li	s4,103
    5566:	57e2                	lw	a5,56(sp)
    5568:	00f5c963          	blt	a1,a5,557a <_printf_float+0x246>
    556c:	401c                	lw	a5,0(s0)
    556e:	c80c                	sw	a1,16(s0)
    5570:	8b85                	andi	a5,a5,1
    5572:	d7ed                	beqz	a5,555c <_printf_float+0x228>
    5574:	00158793          	addi	a5,a1,1
    5578:	bfc1                	j	5548 <_printf_float+0x214>
    557a:	4705                	li	a4,1
    557c:	00b04463          	bgtz	a1,5584 <_printf_float+0x250>
    5580:	4709                	li	a4,2
    5582:	8f0d                	sub	a4,a4,a1
    5584:	97ba                	add	a5,a5,a4
    5586:	b7c9                	j	5548 <_printf_float+0x214>
    5588:	401c                	lw	a5,0(s0)
    558a:	4007f713          	andi	a4,a5,1024
    558e:	e315                	bnez	a4,55b2 <_printf_float+0x27e>
    5590:	4814                	lw	a3,16(s0)
    5592:	8656                	mv	a2,s5
    5594:	85ca                	mv	a1,s2
    5596:	8526                	mv	a0,s1
    5598:	9982                	jalr	s3
    559a:	e9950be3          	beq	a0,s9,5430 <_printf_float+0xfc>
    559e:	401c                	lw	a5,0(s0)
    55a0:	8b89                	andi	a5,a5,2
    55a2:	24079663          	bnez	a5,57ee <_printf_float+0x4ba>
    55a6:	57f2                	lw	a5,60(sp)
    55a8:	4448                	lw	a0,12(s0)
    55aa:	e8f554e3          	bge	a0,a5,5432 <_printf_float+0xfe>
    55ae:	853e                	mv	a0,a5
    55b0:	b549                	j	5432 <_printf_float+0xfe>
    55b2:	06500713          	li	a4,101
    55b6:	19477b63          	bgeu	a4,s4,574c <_printf_float+0x418>
    55ba:	4428                	lw	a0,72(s0)
    55bc:	446c                	lw	a1,76(s0)
    55be:	4601                	li	a2,0
    55c0:	4681                	li	a3,0
    55c2:	425040ef          	jal	ra,a1e6 <__eqdf2>
    55c6:	e939                	bnez	a0,561c <_printf_float+0x2e8>
    55c8:	4685                	li	a3,1
    55ca:	00009617          	auipc	a2,0x9
    55ce:	5f660613          	addi	a2,a2,1526 # ebc0 <asc2_3216+0x17ec>
    55d2:	85ca                	mv	a1,s2
    55d4:	8526                	mv	a0,s1
    55d6:	9982                	jalr	s3
    55d8:	e5950ce3          	beq	a0,s9,5430 <_printf_float+0xfc>
    55dc:	5752                	lw	a4,52(sp)
    55de:	57e2                	lw	a5,56(sp)
    55e0:	00f74563          	blt	a4,a5,55ea <_printf_float+0x2b6>
    55e4:	401c                	lw	a5,0(s0)
    55e6:	8b85                	andi	a5,a5,1
    55e8:	dbdd                	beqz	a5,559e <_printf_float+0x26a>
    55ea:	86e2                	mv	a3,s8
    55ec:	865e                	mv	a2,s7
    55ee:	85ca                	mv	a1,s2
    55f0:	8526                	mv	a0,s1
    55f2:	9982                	jalr	s3
    55f4:	57fd                	li	a5,-1
    55f6:	e2f50de3          	beq	a0,a5,5430 <_printf_float+0xfc>
    55fa:	4a01                	li	s4,0
    55fc:	01a40a93          	addi	s5,s0,26
    5600:	5b7d                	li	s6,-1
    5602:	57e2                	lw	a5,56(sp)
    5604:	17fd                	addi	a5,a5,-1
    5606:	f8fa5ce3          	bge	s4,a5,559e <_printf_float+0x26a>
    560a:	4685                	li	a3,1
    560c:	8656                	mv	a2,s5
    560e:	85ca                	mv	a1,s2
    5610:	8526                	mv	a0,s1
    5612:	9982                	jalr	s3
    5614:	e1650ee3          	beq	a0,s6,5430 <_printf_float+0xfc>
    5618:	0a05                	addi	s4,s4,1
    561a:	b7e5                	j	5602 <_printf_float+0x2ce>
    561c:	57d2                	lw	a5,52(sp)
    561e:	06f04663          	bgtz	a5,568a <_printf_float+0x356>
    5622:	4685                	li	a3,1
    5624:	00009617          	auipc	a2,0x9
    5628:	59c60613          	addi	a2,a2,1436 # ebc0 <asc2_3216+0x17ec>
    562c:	85ca                	mv	a1,s2
    562e:	8526                	mv	a0,s1
    5630:	9982                	jalr	s3
    5632:	df950fe3          	beq	a0,s9,5430 <_printf_float+0xfc>
    5636:	57d2                	lw	a5,52(sp)
    5638:	5762                	lw	a4,56(sp)
    563a:	8fd9                	or	a5,a5,a4
    563c:	e781                	bnez	a5,5644 <_printf_float+0x310>
    563e:	401c                	lw	a5,0(s0)
    5640:	8b85                	andi	a5,a5,1
    5642:	dfb1                	beqz	a5,559e <_printf_float+0x26a>
    5644:	86e2                	mv	a3,s8
    5646:	865e                	mv	a2,s7
    5648:	85ca                	mv	a1,s2
    564a:	8526                	mv	a0,s1
    564c:	9982                	jalr	s3
    564e:	57fd                	li	a5,-1
    5650:	def500e3          	beq	a0,a5,5430 <_printf_float+0xfc>
    5654:	4a01                	li	s4,0
    5656:	01a40b13          	addi	s6,s0,26
    565a:	5bfd                	li	s7,-1
    565c:	57d2                	lw	a5,52(sp)
    565e:	40f007b3          	neg	a5,a5
    5662:	00fa4b63          	blt	s4,a5,5678 <_printf_float+0x344>
    5666:	56e2                	lw	a3,56(sp)
    5668:	8656                	mv	a2,s5
    566a:	85ca                	mv	a1,s2
    566c:	8526                	mv	a0,s1
    566e:	9982                	jalr	s3
    5670:	57fd                	li	a5,-1
    5672:	f2f516e3          	bne	a0,a5,559e <_printf_float+0x26a>
    5676:	bb6d                	j	5430 <_printf_float+0xfc>
    5678:	4685                	li	a3,1
    567a:	865a                	mv	a2,s6
    567c:	85ca                	mv	a1,s2
    567e:	8526                	mv	a0,s1
    5680:	9982                	jalr	s3
    5682:	db7507e3          	beq	a0,s7,5430 <_printf_float+0xfc>
    5686:	0a05                	addi	s4,s4,1
    5688:	bfd1                	j	565c <_printf_float+0x328>
    568a:	4c3c                	lw	a5,88(s0)
    568c:	5a62                	lw	s4,56(sp)
    568e:	0147d363          	bge	a5,s4,5694 <_printf_float+0x360>
    5692:	8a3e                	mv	s4,a5
    5694:	01405a63          	blez	s4,56a8 <_printf_float+0x374>
    5698:	86d2                	mv	a3,s4
    569a:	8656                	mv	a2,s5
    569c:	85ca                	mv	a1,s2
    569e:	8526                	mv	a0,s1
    56a0:	9982                	jalr	s3
    56a2:	57fd                	li	a5,-1
    56a4:	d8f506e3          	beq	a0,a5,5430 <_printf_float+0xfc>
    56a8:	4c81                	li	s9,0
    56aa:	01a40d13          	addi	s10,s0,26
    56ae:	5dfd                	li	s11,-1
    56b0:	a809                	j	56c2 <_printf_float+0x38e>
    56b2:	4685                	li	a3,1
    56b4:	866a                	mv	a2,s10
    56b6:	85ca                	mv	a1,s2
    56b8:	8526                	mv	a0,s1
    56ba:	9982                	jalr	s3
    56bc:	d7b50ae3          	beq	a0,s11,5430 <_printf_float+0xfc>
    56c0:	0c85                	addi	s9,s9,1
    56c2:	05842b03          	lw	s6,88(s0)
    56c6:	87d2                	mv	a5,s4
    56c8:	000a5363          	bgez	s4,56ce <_printf_float+0x39a>
    56cc:	4781                	li	a5,0
    56ce:	40fb07b3          	sub	a5,s6,a5
    56d2:	fefcc0e3          	blt	s9,a5,56b2 <_printf_float+0x37e>
    56d6:	5752                	lw	a4,52(sp)
    56d8:	57e2                	lw	a5,56(sp)
    56da:	02f74d63          	blt	a4,a5,5714 <_printf_float+0x3e0>
    56de:	401c                	lw	a5,0(s0)
    56e0:	8b85                	andi	a5,a5,1
    56e2:	eb8d                	bnez	a5,5714 <_printf_float+0x3e0>
    56e4:	57e2                	lw	a5,56(sp)
    56e6:	5752                	lw	a4,52(sp)
    56e8:	40e78a33          	sub	s4,a5,a4
    56ec:	00eb4463          	blt	s6,a4,56f4 <_printf_float+0x3c0>
    56f0:	41678a33          	sub	s4,a5,s6
    56f4:	01405b63          	blez	s4,570a <_printf_float+0x3d6>
    56f8:	86d2                	mv	a3,s4
    56fa:	016a8633          	add	a2,s5,s6
    56fe:	85ca                	mv	a1,s2
    5700:	8526                	mv	a0,s1
    5702:	9982                	jalr	s3
    5704:	57fd                	li	a5,-1
    5706:	d2f505e3          	beq	a0,a5,5430 <_printf_float+0xfc>
    570a:	4a81                	li	s5,0
    570c:	01a40b13          	addi	s6,s0,26
    5710:	5bfd                	li	s7,-1
    5712:	a015                	j	5736 <_printf_float+0x402>
    5714:	86e2                	mv	a3,s8
    5716:	865e                	mv	a2,s7
    5718:	85ca                	mv	a1,s2
    571a:	8526                	mv	a0,s1
    571c:	9982                	jalr	s3
    571e:	57fd                	li	a5,-1
    5720:	fcf512e3          	bne	a0,a5,56e4 <_printf_float+0x3b0>
    5724:	b331                	j	5430 <_printf_float+0xfc>
    5726:	4685                	li	a3,1
    5728:	865a                	mv	a2,s6
    572a:	85ca                	mv	a1,s2
    572c:	8526                	mv	a0,s1
    572e:	9982                	jalr	s3
    5730:	d17500e3          	beq	a0,s7,5430 <_printf_float+0xfc>
    5734:	0a85                	addi	s5,s5,1
    5736:	5752                	lw	a4,52(sp)
    5738:	57e2                	lw	a5,56(sp)
    573a:	8f99                	sub	a5,a5,a4
    573c:	8752                	mv	a4,s4
    573e:	000a5363          	bgez	s4,5744 <_printf_float+0x410>
    5742:	4701                	li	a4,0
    5744:	8f99                	sub	a5,a5,a4
    5746:	fefac0e3          	blt	s5,a5,5726 <_printf_float+0x3f2>
    574a:	bd91                	j	559e <_printf_float+0x26a>
    574c:	56e2                	lw	a3,56(sp)
    574e:	4705                	li	a4,1
    5750:	00d74463          	blt	a4,a3,5758 <_printf_float+0x424>
    5754:	8b85                	andi	a5,a5,1
    5756:	c7b5                	beqz	a5,57c2 <_printf_float+0x48e>
    5758:	4685                	li	a3,1
    575a:	8656                	mv	a2,s5
    575c:	85ca                	mv	a1,s2
    575e:	8526                	mv	a0,s1
    5760:	9982                	jalr	s3
    5762:	5a7d                	li	s4,-1
    5764:	cd4506e3          	beq	a0,s4,5430 <_printf_float+0xfc>
    5768:	86e2                	mv	a3,s8
    576a:	865e                	mv	a2,s7
    576c:	85ca                	mv	a1,s2
    576e:	8526                	mv	a0,s1
    5770:	9982                	jalr	s3
    5772:	cb450fe3          	beq	a0,s4,5430 <_printf_float+0xfc>
    5776:	4428                	lw	a0,72(s0)
    5778:	446c                	lw	a1,76(s0)
    577a:	4601                	li	a2,0
    577c:	4681                	li	a3,0
    577e:	269040ef          	jal	ra,a1e6 <__eqdf2>
    5782:	c91d                	beqz	a0,57b8 <_printf_float+0x484>
    5784:	56e2                	lw	a3,56(sp)
    5786:	001a8613          	addi	a2,s5,1
    578a:	85ca                	mv	a1,s2
    578c:	16fd                	addi	a3,a3,-1
    578e:	8526                	mv	a0,s1
    5790:	9982                	jalr	s3
    5792:	c9450fe3          	beq	a0,s4,5430 <_printf_float+0xfc>
    5796:	86da                	mv	a3,s6
    5798:	05040613          	addi	a2,s0,80
    579c:	b5f9                	j	566a <_printf_float+0x336>
    579e:	4685                	li	a3,1
    57a0:	8656                	mv	a2,s5
    57a2:	85ca                	mv	a1,s2
    57a4:	8526                	mv	a0,s1
    57a6:	9982                	jalr	s3
    57a8:	c97504e3          	beq	a0,s7,5430 <_printf_float+0xfc>
    57ac:	0a05                	addi	s4,s4,1
    57ae:	57e2                	lw	a5,56(sp)
    57b0:	17fd                	addi	a5,a5,-1
    57b2:	fefa46e3          	blt	s4,a5,579e <_printf_float+0x46a>
    57b6:	b7c5                	j	5796 <_printf_float+0x462>
    57b8:	4a01                	li	s4,0
    57ba:	01a40a93          	addi	s5,s0,26
    57be:	5bfd                	li	s7,-1
    57c0:	b7fd                	j	57ae <_printf_float+0x47a>
    57c2:	4685                	li	a3,1
    57c4:	8656                	mv	a2,s5
    57c6:	85ca                	mv	a1,s2
    57c8:	8526                	mv	a0,s1
    57ca:	9982                	jalr	s3
    57cc:	fd9515e3          	bne	a0,s9,5796 <_printf_float+0x462>
    57d0:	b185                	j	5430 <_printf_float+0xfc>
    57d2:	4685                	li	a3,1
    57d4:	8656                	mv	a2,s5
    57d6:	85ca                	mv	a1,s2
    57d8:	8526                	mv	a0,s1
    57da:	9982                	jalr	s3
    57dc:	c5650ae3          	beq	a0,s6,5430 <_printf_float+0xfc>
    57e0:	0a05                	addi	s4,s4,1
    57e2:	445c                	lw	a5,12(s0)
    57e4:	5772                	lw	a4,60(sp)
    57e6:	8f99                	sub	a5,a5,a4
    57e8:	fefa45e3          	blt	s4,a5,57d2 <_printf_float+0x49e>
    57ec:	bb6d                	j	55a6 <_printf_float+0x272>
    57ee:	4a01                	li	s4,0
    57f0:	01940a93          	addi	s5,s0,25
    57f4:	5b7d                	li	s6,-1
    57f6:	b7f5                	j	57e2 <_printf_float+0x4ae>

000057f8 <_printf_common>:
    57f8:	7179                	addi	sp,sp,-48
    57fa:	ca56                	sw	s5,20(sp)
    57fc:	499c                	lw	a5,16(a1)
    57fe:	8aba                	mv	s5,a4
    5800:	4598                	lw	a4,8(a1)
    5802:	d422                	sw	s0,40(sp)
    5804:	d226                	sw	s1,36(sp)
    5806:	ce4e                	sw	s3,28(sp)
    5808:	cc52                	sw	s4,24(sp)
    580a:	d606                	sw	ra,44(sp)
    580c:	d04a                	sw	s2,32(sp)
    580e:	c85a                	sw	s6,16(sp)
    5810:	c65e                	sw	s7,12(sp)
    5812:	89aa                	mv	s3,a0
    5814:	842e                	mv	s0,a1
    5816:	84b2                	mv	s1,a2
    5818:	8a36                	mv	s4,a3
    581a:	00e7d363          	bge	a5,a4,5820 <_printf_common+0x28>
    581e:	87ba                	mv	a5,a4
    5820:	c09c                	sw	a5,0(s1)
    5822:	04344703          	lbu	a4,67(s0)
    5826:	c319                	beqz	a4,582c <_printf_common+0x34>
    5828:	0785                	addi	a5,a5,1
    582a:	c09c                	sw	a5,0(s1)
    582c:	401c                	lw	a5,0(s0)
    582e:	0207f793          	andi	a5,a5,32
    5832:	c781                	beqz	a5,583a <_printf_common+0x42>
    5834:	409c                	lw	a5,0(s1)
    5836:	0789                	addi	a5,a5,2
    5838:	c09c                	sw	a5,0(s1)
    583a:	00042903          	lw	s2,0(s0)
    583e:	00697913          	andi	s2,s2,6
    5842:	00091a63          	bnez	s2,5856 <_printf_common+0x5e>
    5846:	01940b13          	addi	s6,s0,25
    584a:	5bfd                	li	s7,-1
    584c:	445c                	lw	a5,12(s0)
    584e:	4098                	lw	a4,0(s1)
    5850:	8f99                	sub	a5,a5,a4
    5852:	04f94c63          	blt	s2,a5,58aa <_printf_common+0xb2>
    5856:	401c                	lw	a5,0(s0)
    5858:	04344683          	lbu	a3,67(s0)
    585c:	0207f793          	andi	a5,a5,32
    5860:	00d036b3          	snez	a3,a3
    5864:	eba5                	bnez	a5,58d4 <_printf_common+0xdc>
    5866:	04340613          	addi	a2,s0,67
    586a:	85d2                	mv	a1,s4
    586c:	854e                	mv	a0,s3
    586e:	9a82                	jalr	s5
    5870:	57fd                	li	a5,-1
    5872:	04f50363          	beq	a0,a5,58b8 <_printf_common+0xc0>
    5876:	401c                	lw	a5,0(s0)
    5878:	4611                	li	a2,4
    587a:	4098                	lw	a4,0(s1)
    587c:	8b99                	andi	a5,a5,6
    587e:	4454                	lw	a3,12(s0)
    5880:	4481                	li	s1,0
    5882:	00c79763          	bne	a5,a2,5890 <_printf_common+0x98>
    5886:	40e684b3          	sub	s1,a3,a4
    588a:	0004d363          	bgez	s1,5890 <_printf_common+0x98>
    588e:	4481                	li	s1,0
    5890:	441c                	lw	a5,8(s0)
    5892:	4818                	lw	a4,16(s0)
    5894:	00f75463          	bge	a4,a5,589c <_printf_common+0xa4>
    5898:	8f99                	sub	a5,a5,a4
    589a:	94be                	add	s1,s1,a5
    589c:	4901                	li	s2,0
    589e:	0469                	addi	s0,s0,26
    58a0:	5b7d                	li	s6,-1
    58a2:	05249863          	bne	s1,s2,58f2 <_printf_common+0xfa>
    58a6:	4501                	li	a0,0
    58a8:	a809                	j	58ba <_printf_common+0xc2>
    58aa:	4685                	li	a3,1
    58ac:	865a                	mv	a2,s6
    58ae:	85d2                	mv	a1,s4
    58b0:	854e                	mv	a0,s3
    58b2:	9a82                	jalr	s5
    58b4:	01751e63          	bne	a0,s7,58d0 <_printf_common+0xd8>
    58b8:	557d                	li	a0,-1
    58ba:	50b2                	lw	ra,44(sp)
    58bc:	5422                	lw	s0,40(sp)
    58be:	5492                	lw	s1,36(sp)
    58c0:	5902                	lw	s2,32(sp)
    58c2:	49f2                	lw	s3,28(sp)
    58c4:	4a62                	lw	s4,24(sp)
    58c6:	4ad2                	lw	s5,20(sp)
    58c8:	4b42                	lw	s6,16(sp)
    58ca:	4bb2                	lw	s7,12(sp)
    58cc:	6145                	addi	sp,sp,48
    58ce:	8082                	ret
    58d0:	0905                	addi	s2,s2,1
    58d2:	bfad                	j	584c <_printf_common+0x54>
    58d4:	00d40733          	add	a4,s0,a3
    58d8:	03000613          	li	a2,48
    58dc:	04c701a3          	sb	a2,67(a4)
    58e0:	04544703          	lbu	a4,69(s0)
    58e4:	00168793          	addi	a5,a3,1
    58e8:	97a2                	add	a5,a5,s0
    58ea:	0689                	addi	a3,a3,2
    58ec:	04e781a3          	sb	a4,67(a5)
    58f0:	bf9d                	j	5866 <_printf_common+0x6e>
    58f2:	4685                	li	a3,1
    58f4:	8622                	mv	a2,s0
    58f6:	85d2                	mv	a1,s4
    58f8:	854e                	mv	a0,s3
    58fa:	9a82                	jalr	s5
    58fc:	fb650ee3          	beq	a0,s6,58b8 <_printf_common+0xc0>
    5900:	0905                	addi	s2,s2,1
    5902:	b745                	j	58a2 <_printf_common+0xaa>

00005904 <_printf_i>:
    5904:	7179                	addi	sp,sp,-48
    5906:	d422                	sw	s0,40(sp)
    5908:	d226                	sw	s1,36(sp)
    590a:	d04a                	sw	s2,32(sp)
    590c:	ce4e                	sw	s3,28(sp)
    590e:	d606                	sw	ra,44(sp)
    5910:	cc52                	sw	s4,24(sp)
    5912:	ca56                	sw	s5,20(sp)
    5914:	c85a                	sw	s6,16(sp)
    5916:	89b6                	mv	s3,a3
    5918:	2d94                	lbu	a3,24(a1)
    591a:	06900793          	li	a5,105
    591e:	8932                	mv	s2,a2
    5920:	84aa                	mv	s1,a0
    5922:	842e                	mv	s0,a1
    5924:	04358613          	addi	a2,a1,67
    5928:	02f68d63          	beq	a3,a5,5962 <_printf_i+0x5e>
    592c:	06d7e263          	bltu	a5,a3,5990 <_printf_i+0x8c>
    5930:	05800793          	li	a5,88
    5934:	18f68763          	beq	a3,a5,5ac2 <_printf_i+0x1be>
    5938:	00d7ed63          	bltu	a5,a3,5952 <_printf_i+0x4e>
    593c:	20068f63          	beqz	a3,5b5a <_printf_i+0x256>
    5940:	04300793          	li	a5,67
    5944:	0af68f63          	beq	a3,a5,5a02 <_printf_i+0xfe>
    5948:	04240a93          	addi	s5,s0,66
    594c:	04d40123          	sb	a3,66(s0)
    5950:	a0d1                	j	5a14 <_printf_i+0x110>
    5952:	06300793          	li	a5,99
    5956:	0af68663          	beq	a3,a5,5a02 <_printf_i+0xfe>
    595a:	06400793          	li	a5,100
    595e:	fef695e3          	bne	a3,a5,5948 <_printf_i+0x44>
    5962:	401c                	lw	a5,0(s0)
    5964:	4308                	lw	a0,0(a4)
    5966:	0807f693          	andi	a3,a5,128
    596a:	00450593          	addi	a1,a0,4
    596e:	c6cd                	beqz	a3,5a18 <_printf_i+0x114>
    5970:	411c                	lw	a5,0(a0)
    5972:	c30c                	sw	a1,0(a4)
    5974:	0007d863          	bgez	a5,5984 <_printf_i+0x80>
    5978:	02d00713          	li	a4,45
    597c:	40f007b3          	neg	a5,a5
    5980:	04e401a3          	sb	a4,67(s0)
    5984:	00009697          	auipc	a3,0x9
    5988:	24068693          	addi	a3,a3,576 # ebc4 <asc2_3216+0x17f0>
    598c:	4729                	li	a4,10
    598e:	a86d                	j	5a48 <_printf_i+0x144>
    5990:	07000793          	li	a5,112
    5994:	16f68363          	beq	a3,a5,5afa <_printf_i+0x1f6>
    5998:	02d7e563          	bltu	a5,a3,59c2 <_printf_i+0xbe>
    599c:	06e00793          	li	a5,110
    59a0:	18f68a63          	beq	a3,a5,5b34 <_printf_i+0x230>
    59a4:	06f00793          	li	a5,111
    59a8:	faf690e3          	bne	a3,a5,5948 <_printf_i+0x44>
    59ac:	400c                	lw	a1,0(s0)
    59ae:	431c                	lw	a5,0(a4)
    59b0:	0805f813          	andi	a6,a1,128
    59b4:	00478513          	addi	a0,a5,4
    59b8:	06080863          	beqz	a6,5a28 <_printf_i+0x124>
    59bc:	c308                	sw	a0,0(a4)
    59be:	439c                	lw	a5,0(a5)
    59c0:	a88d                	j	5a32 <_printf_i+0x12e>
    59c2:	07500793          	li	a5,117
    59c6:	fef683e3          	beq	a3,a5,59ac <_printf_i+0xa8>
    59ca:	07800793          	li	a5,120
    59ce:	12f68a63          	beq	a3,a5,5b02 <_printf_i+0x1fe>
    59d2:	07300793          	li	a5,115
    59d6:	f6f699e3          	bne	a3,a5,5948 <_printf_i+0x44>
    59da:	431c                	lw	a5,0(a4)
    59dc:	41d0                	lw	a2,4(a1)
    59de:	4581                	li	a1,0
    59e0:	00478693          	addi	a3,a5,4
    59e4:	c314                	sw	a3,0(a4)
    59e6:	0007aa83          	lw	s5,0(a5)
    59ea:	8556                	mv	a0,s5
    59ec:	43b020ef          	jal	ra,8626 <memchr>
    59f0:	c501                	beqz	a0,59f8 <_printf_i+0xf4>
    59f2:	41550533          	sub	a0,a0,s5
    59f6:	c048                	sw	a0,4(s0)
    59f8:	405c                	lw	a5,4(s0)
    59fa:	c81c                	sw	a5,16(s0)
    59fc:	040401a3          	sb	zero,67(s0)
    5a00:	a861                	j	5a98 <_printf_i+0x194>
    5a02:	431c                	lw	a5,0(a4)
    5a04:	04240a93          	addi	s5,s0,66
    5a08:	00478693          	addi	a3,a5,4
    5a0c:	439c                	lw	a5,0(a5)
    5a0e:	c314                	sw	a3,0(a4)
    5a10:	04f40123          	sb	a5,66(s0)
    5a14:	4785                	li	a5,1
    5a16:	b7d5                	j	59fa <_printf_i+0xf6>
    5a18:	0407f693          	andi	a3,a5,64
    5a1c:	411c                	lw	a5,0(a0)
    5a1e:	c30c                	sw	a1,0(a4)
    5a20:	dab1                	beqz	a3,5974 <_printf_i+0x70>
    5a22:	07c2                	slli	a5,a5,0x10
    5a24:	87c1                	srai	a5,a5,0x10
    5a26:	b7b9                	j	5974 <_printf_i+0x70>
    5a28:	0405f593          	andi	a1,a1,64
    5a2c:	c308                	sw	a0,0(a4)
    5a2e:	d9c1                	beqz	a1,59be <_printf_i+0xba>
    5a30:	239e                	lhu	a5,0(a5)
    5a32:	06f00713          	li	a4,111
    5a36:	0ee68763          	beq	a3,a4,5b24 <_printf_i+0x220>
    5a3a:	00009697          	auipc	a3,0x9
    5a3e:	18a68693          	addi	a3,a3,394 # ebc4 <asc2_3216+0x17f0>
    5a42:	4729                	li	a4,10
    5a44:	040401a3          	sb	zero,67(s0)
    5a48:	404c                	lw	a1,4(s0)
    5a4a:	c40c                	sw	a1,8(s0)
    5a4c:	0005c563          	bltz	a1,5a56 <_printf_i+0x152>
    5a50:	4008                	lw	a0,0(s0)
    5a52:	996d                	andi	a0,a0,-5
    5a54:	c008                	sw	a0,0(s0)
    5a56:	e399                	bnez	a5,5a5c <_printf_i+0x158>
    5a58:	8ab2                	mv	s5,a2
    5a5a:	cd89                	beqz	a1,5a74 <_printf_i+0x170>
    5a5c:	8ab2                	mv	s5,a2
    5a5e:	02e7f5b3          	remu	a1,a5,a4
    5a62:	1afd                	addi	s5,s5,-1
    5a64:	95b6                	add	a1,a1,a3
    5a66:	218c                	lbu	a1,0(a1)
    5a68:	00ba8023          	sb	a1,0(s5)
    5a6c:	02e7d5b3          	divu	a1,a5,a4
    5a70:	0ce7f063          	bgeu	a5,a4,5b30 <_printf_i+0x22c>
    5a74:	47a1                	li	a5,8
    5a76:	00f71e63          	bne	a4,a5,5a92 <_printf_i+0x18e>
    5a7a:	401c                	lw	a5,0(s0)
    5a7c:	8b85                	andi	a5,a5,1
    5a7e:	cb91                	beqz	a5,5a92 <_printf_i+0x18e>
    5a80:	4058                	lw	a4,4(s0)
    5a82:	481c                	lw	a5,16(s0)
    5a84:	00e7c763          	blt	a5,a4,5a92 <_printf_i+0x18e>
    5a88:	03000793          	li	a5,48
    5a8c:	fefa8fa3          	sb	a5,-1(s5)
    5a90:	1afd                	addi	s5,s5,-1
    5a92:	41560633          	sub	a2,a2,s5
    5a96:	c810                	sw	a2,16(s0)
    5a98:	874e                	mv	a4,s3
    5a9a:	86ca                	mv	a3,s2
    5a9c:	0070                	addi	a2,sp,12
    5a9e:	85a2                	mv	a1,s0
    5aa0:	8526                	mv	a0,s1
    5aa2:	d57ff0ef          	jal	ra,57f8 <_printf_common>
    5aa6:	5a7d                	li	s4,-1
    5aa8:	0b451d63          	bne	a0,s4,5b62 <_printf_i+0x25e>
    5aac:	557d                	li	a0,-1
    5aae:	50b2                	lw	ra,44(sp)
    5ab0:	5422                	lw	s0,40(sp)
    5ab2:	5492                	lw	s1,36(sp)
    5ab4:	5902                	lw	s2,32(sp)
    5ab6:	49f2                	lw	s3,28(sp)
    5ab8:	4a62                	lw	s4,24(sp)
    5aba:	4ad2                	lw	s5,20(sp)
    5abc:	4b42                	lw	s6,16(sp)
    5abe:	6145                	addi	sp,sp,48
    5ac0:	8082                	ret
    5ac2:	04d582a3          	sb	a3,69(a1)
    5ac6:	00009697          	auipc	a3,0x9
    5aca:	0fe68693          	addi	a3,a3,254 # ebc4 <asc2_3216+0x17f0>
    5ace:	400c                	lw	a1,0(s0)
    5ad0:	4308                	lw	a0,0(a4)
    5ad2:	0805f813          	andi	a6,a1,128
    5ad6:	411c                	lw	a5,0(a0)
    5ad8:	0511                	addi	a0,a0,4
    5ada:	02080d63          	beqz	a6,5b14 <_printf_i+0x210>
    5ade:	c308                	sw	a0,0(a4)
    5ae0:	0015f713          	andi	a4,a1,1
    5ae4:	c701                	beqz	a4,5aec <_printf_i+0x1e8>
    5ae6:	0205e593          	ori	a1,a1,32
    5aea:	c00c                	sw	a1,0(s0)
    5aec:	4741                	li	a4,16
    5aee:	fbb9                	bnez	a5,5a44 <_printf_i+0x140>
    5af0:	400c                	lw	a1,0(s0)
    5af2:	fdf5f593          	andi	a1,a1,-33
    5af6:	c00c                	sw	a1,0(s0)
    5af8:	b7b1                	j	5a44 <_printf_i+0x140>
    5afa:	419c                	lw	a5,0(a1)
    5afc:	0207e793          	ori	a5,a5,32
    5b00:	c19c                	sw	a5,0(a1)
    5b02:	07800793          	li	a5,120
    5b06:	04f402a3          	sb	a5,69(s0)
    5b0a:	00009697          	auipc	a3,0x9
    5b0e:	0ce68693          	addi	a3,a3,206 # ebd8 <asc2_3216+0x1804>
    5b12:	bf75                	j	5ace <_printf_i+0x1ca>
    5b14:	0405f813          	andi	a6,a1,64
    5b18:	c308                	sw	a0,0(a4)
    5b1a:	fc0803e3          	beqz	a6,5ae0 <_printf_i+0x1dc>
    5b1e:	07c2                	slli	a5,a5,0x10
    5b20:	83c1                	srli	a5,a5,0x10
    5b22:	bf7d                	j	5ae0 <_printf_i+0x1dc>
    5b24:	00009697          	auipc	a3,0x9
    5b28:	0a068693          	addi	a3,a3,160 # ebc4 <asc2_3216+0x17f0>
    5b2c:	4721                	li	a4,8
    5b2e:	bf19                	j	5a44 <_printf_i+0x140>
    5b30:	87ae                	mv	a5,a1
    5b32:	b735                	j	5a5e <_printf_i+0x15a>
    5b34:	4194                	lw	a3,0(a1)
    5b36:	431c                	lw	a5,0(a4)
    5b38:	49cc                	lw	a1,20(a1)
    5b3a:	0806f813          	andi	a6,a3,128
    5b3e:	00478513          	addi	a0,a5,4
    5b42:	00080663          	beqz	a6,5b4e <_printf_i+0x24a>
    5b46:	c308                	sw	a0,0(a4)
    5b48:	439c                	lw	a5,0(a5)
    5b4a:	c38c                	sw	a1,0(a5)
    5b4c:	a039                	j	5b5a <_printf_i+0x256>
    5b4e:	c308                	sw	a0,0(a4)
    5b50:	0406f693          	andi	a3,a3,64
    5b54:	439c                	lw	a5,0(a5)
    5b56:	daf5                	beqz	a3,5b4a <_printf_i+0x246>
    5b58:	a38e                	sh	a1,0(a5)
    5b5a:	00042823          	sw	zero,16(s0)
    5b5e:	8ab2                	mv	s5,a2
    5b60:	bf25                	j	5a98 <_printf_i+0x194>
    5b62:	4814                	lw	a3,16(s0)
    5b64:	8656                	mv	a2,s5
    5b66:	85ca                	mv	a1,s2
    5b68:	8526                	mv	a0,s1
    5b6a:	9982                	jalr	s3
    5b6c:	f54500e3          	beq	a0,s4,5aac <_printf_i+0x1a8>
    5b70:	401c                	lw	a5,0(s0)
    5b72:	8b89                	andi	a5,a5,2
    5b74:	e78d                	bnez	a5,5b9e <_printf_i+0x29a>
    5b76:	47b2                	lw	a5,12(sp)
    5b78:	4448                	lw	a0,12(s0)
    5b7a:	f2f55ae3          	bge	a0,a5,5aae <_printf_i+0x1aa>
    5b7e:	853e                	mv	a0,a5
    5b80:	b73d                	j	5aae <_printf_i+0x1aa>
    5b82:	4685                	li	a3,1
    5b84:	8656                	mv	a2,s5
    5b86:	85ca                	mv	a1,s2
    5b88:	8526                	mv	a0,s1
    5b8a:	9982                	jalr	s3
    5b8c:	f36500e3          	beq	a0,s6,5aac <_printf_i+0x1a8>
    5b90:	0a05                	addi	s4,s4,1
    5b92:	445c                	lw	a5,12(s0)
    5b94:	4732                	lw	a4,12(sp)
    5b96:	8f99                	sub	a5,a5,a4
    5b98:	fefa45e3          	blt	s4,a5,5b82 <_printf_i+0x27e>
    5b9c:	bfe9                	j	5b76 <_printf_i+0x272>
    5b9e:	4a01                	li	s4,0
    5ba0:	01940a93          	addi	s5,s0,25
    5ba4:	5b7d                	li	s6,-1
    5ba6:	b7f5                	j	5b92 <_printf_i+0x28e>

00005ba8 <iprintf>:
    5ba8:	7139                	addi	sp,sp,-64
    5baa:	da3e                	sw	a5,52(sp)
    5bac:	d22e                	sw	a1,36(sp)
    5bae:	d432                	sw	a2,40(sp)
    5bb0:	d636                	sw	a3,44(sp)
    5bb2:	d83a                	sw	a4,48(sp)
    5bb4:	dc42                	sw	a6,56(sp)
    5bb6:	de46                	sw	a7,60(sp)
    5bb8:	81418793          	addi	a5,gp,-2028 # 200001f4 <_impure_ptr>
    5bbc:	cc22                	sw	s0,24(sp)
    5bbe:	4380                	lw	s0,0(a5)
    5bc0:	ca26                	sw	s1,20(sp)
    5bc2:	ce06                	sw	ra,28(sp)
    5bc4:	84aa                	mv	s1,a0
    5bc6:	c411                	beqz	s0,5bd2 <iprintf+0x2a>
    5bc8:	4c1c                	lw	a5,24(s0)
    5bca:	e781                	bnez	a5,5bd2 <iprintf+0x2a>
    5bcc:	8522                	mv	a0,s0
    5bce:	09e020ef          	jal	ra,7c6c <__sinit>
    5bd2:	440c                	lw	a1,8(s0)
    5bd4:	1054                	addi	a3,sp,36
    5bd6:	8626                	mv	a2,s1
    5bd8:	8522                	mv	a0,s0
    5bda:	c636                	sw	a3,12(sp)
    5bdc:	482030ef          	jal	ra,905e <_vfiprintf_r>
    5be0:	40f2                	lw	ra,28(sp)
    5be2:	4462                	lw	s0,24(sp)
    5be4:	44d2                	lw	s1,20(sp)
    5be6:	6121                	addi	sp,sp,64
    5be8:	8082                	ret

00005bea <_puts_r>:
    5bea:	1101                	addi	sp,sp,-32
    5bec:	ca26                	sw	s1,20(sp)
    5bee:	c84a                	sw	s2,16(sp)
    5bf0:	ce06                	sw	ra,28(sp)
    5bf2:	cc22                	sw	s0,24(sp)
    5bf4:	c64e                	sw	s3,12(sp)
    5bf6:	c452                	sw	s4,8(sp)
    5bf8:	84aa                	mv	s1,a0
    5bfa:	892e                	mv	s2,a1
    5bfc:	c509                	beqz	a0,5c06 <_puts_r+0x1c>
    5bfe:	4d1c                	lw	a5,24(a0)
    5c00:	e399                	bnez	a5,5c06 <_puts_r+0x1c>
    5c02:	06a020ef          	jal	ra,7c6c <__sinit>
    5c06:	4c9c                	lw	a5,24(s1)
    5c08:	4480                	lw	s0,8(s1)
    5c0a:	e781                	bnez	a5,5c12 <_puts_r+0x28>
    5c0c:	8526                	mv	a0,s1
    5c0e:	05e020ef          	jal	ra,7c6c <__sinit>
    5c12:	00009797          	auipc	a5,0x9
    5c16:	1fe78793          	addi	a5,a5,510 # ee10 <__sf_fake_stdin>
    5c1a:	02f41c63          	bne	s0,a5,5c52 <_puts_r+0x68>
    5c1e:	40c0                	lw	s0,4(s1)
    5c20:	245e                	lhu	a5,12(s0)
    5c22:	8ba1                	andi	a5,a5,8
    5c24:	c7b9                	beqz	a5,5c72 <_puts_r+0x88>
    5c26:	481c                	lw	a5,16(s0)
    5c28:	c7a9                	beqz	a5,5c72 <_puts_r+0x88>
    5c2a:	59fd                	li	s3,-1
    5c2c:	4a29                	li	s4,10
    5c2e:	441c                	lw	a5,8(s0)
    5c30:	00094583          	lbu	a1,0(s2)
    5c34:	17fd                	addi	a5,a5,-1
    5c36:	eda1                	bnez	a1,5c8e <_puts_r+0xa4>
    5c38:	c41c                	sw	a5,8(s0)
    5c3a:	0807d063          	bgez	a5,5cba <_puts_r+0xd0>
    5c3e:	8622                	mv	a2,s0
    5c40:	45a9                	li	a1,10
    5c42:	8526                	mv	a0,s1
    5c44:	6a7000ef          	jal	ra,6aea <__swbuf_r>
    5c48:	57fd                	li	a5,-1
    5c4a:	02f50963          	beq	a0,a5,5c7c <_puts_r+0x92>
    5c4e:	4529                	li	a0,10
    5c50:	a03d                	j	5c7e <_puts_r+0x94>
    5c52:	00009797          	auipc	a5,0x9
    5c56:	1de78793          	addi	a5,a5,478 # ee30 <__sf_fake_stdout>
    5c5a:	00f41463          	bne	s0,a5,5c62 <_puts_r+0x78>
    5c5e:	4480                	lw	s0,8(s1)
    5c60:	b7c1                	j	5c20 <_puts_r+0x36>
    5c62:	00009797          	auipc	a5,0x9
    5c66:	18e78793          	addi	a5,a5,398 # edf0 <__sf_fake_stderr>
    5c6a:	faf41be3          	bne	s0,a5,5c20 <_puts_r+0x36>
    5c6e:	44c0                	lw	s0,12(s1)
    5c70:	bf45                	j	5c20 <_puts_r+0x36>
    5c72:	85a2                	mv	a1,s0
    5c74:	8526                	mv	a0,s1
    5c76:	755000ef          	jal	ra,6bca <__swsetup_r>
    5c7a:	d945                	beqz	a0,5c2a <_puts_r+0x40>
    5c7c:	557d                	li	a0,-1
    5c7e:	40f2                	lw	ra,28(sp)
    5c80:	4462                	lw	s0,24(sp)
    5c82:	44d2                	lw	s1,20(sp)
    5c84:	4942                	lw	s2,16(sp)
    5c86:	49b2                	lw	s3,12(sp)
    5c88:	4a22                	lw	s4,8(sp)
    5c8a:	6105                	addi	sp,sp,32
    5c8c:	8082                	ret
    5c8e:	c41c                	sw	a5,8(s0)
    5c90:	0905                	addi	s2,s2,1
    5c92:	0007d763          	bgez	a5,5ca0 <_puts_r+0xb6>
    5c96:	4c18                	lw	a4,24(s0)
    5c98:	00e7ca63          	blt	a5,a4,5cac <_puts_r+0xc2>
    5c9c:	01458863          	beq	a1,s4,5cac <_puts_r+0xc2>
    5ca0:	401c                	lw	a5,0(s0)
    5ca2:	00178713          	addi	a4,a5,1
    5ca6:	c018                	sw	a4,0(s0)
    5ca8:	a38c                	sb	a1,0(a5)
    5caa:	b751                	j	5c2e <_puts_r+0x44>
    5cac:	8622                	mv	a2,s0
    5cae:	8526                	mv	a0,s1
    5cb0:	63b000ef          	jal	ra,6aea <__swbuf_r>
    5cb4:	f7351de3          	bne	a0,s3,5c2e <_puts_r+0x44>
    5cb8:	b7d1                	j	5c7c <_puts_r+0x92>
    5cba:	401c                	lw	a5,0(s0)
    5cbc:	00178713          	addi	a4,a5,1
    5cc0:	c018                	sw	a4,0(s0)
    5cc2:	4729                	li	a4,10
    5cc4:	a398                	sb	a4,0(a5)
    5cc6:	b761                	j	5c4e <_puts_r+0x64>

00005cc8 <puts>:
    5cc8:	81418793          	addi	a5,gp,-2028 # 200001f4 <_impure_ptr>
    5ccc:	85aa                	mv	a1,a0
    5cce:	4388                	lw	a0,0(a5)
    5cd0:	f1bff06f          	j	5bea <_puts_r>

00005cd4 <_sbrk_r>:
    5cd4:	1141                	addi	sp,sp,-16
    5cd6:	c422                	sw	s0,8(sp)
    5cd8:	842a                	mv	s0,a0
    5cda:	852e                	mv	a0,a1
    5cdc:	1fffd797          	auipc	a5,0x1fffd
    5ce0:	7e07aa23          	sw	zero,2036(a5) # 200034d0 <errno>
    5ce4:	c606                	sw	ra,12(sp)
    5ce6:	1a9050ef          	jal	ra,b68e <_sbrk>
    5cea:	57fd                	li	a5,-1
    5cec:	00f51963          	bne	a0,a5,5cfe <_sbrk_r+0x2a>
    5cf0:	1fffd797          	auipc	a5,0x1fffd
    5cf4:	7e078793          	addi	a5,a5,2016 # 200034d0 <errno>
    5cf8:	439c                	lw	a5,0(a5)
    5cfa:	c391                	beqz	a5,5cfe <_sbrk_r+0x2a>
    5cfc:	c01c                	sw	a5,0(s0)
    5cfe:	40b2                	lw	ra,12(sp)
    5d00:	4422                	lw	s0,8(sp)
    5d02:	0141                	addi	sp,sp,16
    5d04:	8082                	ret

00005d06 <strlen>:
    5d06:	87aa                	mv	a5,a0
    5d08:	0785                	addi	a5,a5,1
    5d0a:	fff7c703          	lbu	a4,-1(a5)
    5d0e:	ff6d                	bnez	a4,5d08 <strlen+0x2>
    5d10:	40a78533          	sub	a0,a5,a0
    5d14:	157d                	addi	a0,a0,-1
    5d16:	8082                	ret

00005d18 <strstr>:
    5d18:	2118                	lbu	a4,0(a0)
    5d1a:	219c                	lbu	a5,0(a1)
    5d1c:	e701                	bnez	a4,5d24 <strstr+0xc>
    5d1e:	c391                	beqz	a5,5d22 <strstr+0xa>
    5d20:	4501                	li	a0,0
    5d22:	8082                	ret
    5d24:	4781                	li	a5,0
    5d26:	a039                	j	5d34 <strstr+0x1c>
    5d28:	311c                	lbu	a5,1(a0)
    5d2a:	00150713          	addi	a4,a0,1
    5d2e:	dbed                	beqz	a5,5d20 <strstr+0x8>
    5d30:	4781                	li	a5,0
    5d32:	853a                	mv	a0,a4
    5d34:	00f58733          	add	a4,a1,a5
    5d38:	2318                	lbu	a4,0(a4)
    5d3a:	d765                	beqz	a4,5d22 <strstr+0xa>
    5d3c:	00f506b3          	add	a3,a0,a5
    5d40:	2294                	lbu	a3,0(a3)
    5d42:	fee693e3          	bne	a3,a4,5d28 <strstr+0x10>
    5d46:	0785                	addi	a5,a5,1
    5d48:	872a                	mv	a4,a0
    5d4a:	b7e5                	j	5d32 <strstr+0x1a>

00005d4c <sulp>:
    5d4c:	1101                	addi	sp,sp,-32
    5d4e:	cc22                	sw	s0,24(sp)
    5d50:	872a                	mv	a4,a0
    5d52:	842e                	mv	s0,a1
    5d54:	853a                	mv	a0,a4
    5d56:	85a2                	mv	a1,s0
    5d58:	c632                	sw	a2,12(sp)
    5d5a:	ce06                	sw	ra,28(sp)
    5d5c:	7b3020ef          	jal	ra,8d0e <__ulp>
    5d60:	4632                	lw	a2,12(sp)
    5d62:	882a                	mv	a6,a0
    5d64:	88ae                	mv	a7,a1
    5d66:	c605                	beqz	a2,5d8e <sulp+0x42>
    5d68:	8051                	srli	s0,s0,0x14
    5d6a:	7ff47413          	andi	s0,s0,2047
    5d6e:	06b00793          	li	a5,107
    5d72:	8f81                	sub	a5,a5,s0
    5d74:	00f05d63          	blez	a5,5d8e <sulp+0x42>
    5d78:	07d2                	slli	a5,a5,0x14
    5d7a:	3ff00737          	lui	a4,0x3ff00
    5d7e:	4801                	li	a6,0
    5d80:	973e                	add	a4,a4,a5
    5d82:	8642                	mv	a2,a6
    5d84:	86ba                	mv	a3,a4
    5d86:	62e040ef          	jal	ra,a3b4 <__muldf3>
    5d8a:	882a                	mv	a6,a0
    5d8c:	88ae                	mv	a7,a1
    5d8e:	40f2                	lw	ra,28(sp)
    5d90:	4462                	lw	s0,24(sp)
    5d92:	8542                	mv	a0,a6
    5d94:	85c6                	mv	a1,a7
    5d96:	6105                	addi	sp,sp,32
    5d98:	8082                	ret

00005d9a <_strtod_l>:
    5d9a:	7135                	addi	sp,sp,-160
    5d9c:	c94a                	sw	s2,144(sp)
    5d9e:	892a                	mv	s2,a0
    5da0:	8536                	mv	a0,a3
    5da2:	d432                	sw	a2,40(sp)
    5da4:	c636                	sw	a3,12(sp)
    5da6:	cf06                	sw	ra,156(sp)
    5da8:	cd22                	sw	s0,152(sp)
    5daa:	cb26                	sw	s1,148(sp)
    5dac:	c74e                	sw	s3,140(sp)
    5dae:	d8ea                	sw	s10,112(sp)
    5db0:	d6ee                	sw	s11,108(sp)
    5db2:	8d2e                	mv	s10,a1
    5db4:	c552                	sw	s4,136(sp)
    5db6:	c356                	sw	s5,132(sp)
    5db8:	c15a                	sw	s6,128(sp)
    5dba:	dede                	sw	s7,124(sp)
    5dbc:	dce2                	sw	s8,120(sp)
    5dbe:	dae6                	sw	s9,116(sp)
    5dc0:	c882                	sw	zero,80(sp)
    5dc2:	75a020ef          	jal	ra,851c <__localeconv_l>
    5dc6:	8daa                	mv	s11,a0
    5dc8:	4108                	lw	a0,0(a0)
    5dca:	4481                	li	s1,0
    5dcc:	4401                	li	s0,0
    5dce:	f39ff0ef          	jal	ra,5d06 <strlen>
    5dd2:	46b2                	lw	a3,12(sp)
    5dd4:	89aa                	mv	s3,a0
    5dd6:	c6ea                	sw	s10,76(sp)
    5dd8:	4635                	li	a2,13
    5dda:	02b00593          	li	a1,43
    5dde:	02d00513          	li	a0,45
    5de2:	02000813          	li	a6,32
    5de6:	48a5                	li	a7,9
    5de8:	47b6                	lw	a5,76(sp)
    5dea:	2398                	lbu	a4,0(a5)
    5dec:	08e66b63          	bltu	a2,a4,5e82 <_strtod_l+0xe8>
    5df0:	09177f63          	bgeu	a4,a7,5e8e <_strtod_l+0xf4>
    5df4:	c755                	beqz	a4,5ea0 <_strtod_l+0x106>
    5df6:	c802                	sw	zero,16(sp)
    5df8:	4a36                	lw	s4,76(sp)
    5dfa:	03000793          	li	a5,48
    5dfe:	4a81                	li	s5,0
    5e00:	000a4703          	lbu	a4,0(s4)
    5e04:	12f71b63          	bne	a4,a5,5f3a <_strtod_l+0x1a0>
    5e08:	001a4783          	lbu	a5,1(s4)
    5e0c:	05800713          	li	a4,88
    5e10:	00e78863          	beq	a5,a4,5e20 <_strtod_l+0x86>
    5e14:	07800613          	li	a2,120
    5e18:	03000713          	li	a4,48
    5e1c:	10c79663          	bne	a5,a2,5f28 <_strtod_l+0x18e>
    5e20:	47c2                	lw	a5,16(sp)
    5e22:	8836                	mv	a6,a3
    5e24:	0898                	addi	a4,sp,80
    5e26:	08d4                	addi	a3,sp,84
    5e28:	00009617          	auipc	a2,0x9
    5e2c:	e2060613          	addi	a2,a2,-480 # ec48 <fpi.3395>
    5e30:	00ec                	addi	a1,sp,76
    5e32:	854a                	mv	a0,s2
    5e34:	064020ef          	jal	ra,7e98 <__gethex>
    5e38:	00757993          	andi	s3,a0,7
    5e3c:	8aaa                	mv	s5,a0
    5e3e:	00098863          	beqz	s3,5e4e <_strtod_l+0xb4>
    5e42:	4799                	li	a5,6
    5e44:	06f99763          	bne	s3,a5,5eb2 <_strtod_l+0x118>
    5e48:	0a05                	addi	s4,s4,1
    5e4a:	c6d2                	sw	s4,76(sp)
    5e4c:	c802                	sw	zero,16(sp)
    5e4e:	57a2                	lw	a5,40(sp)
    5e50:	c781                	beqz	a5,5e58 <_strtod_l+0xbe>
    5e52:	47b6                	lw	a5,76(sp)
    5e54:	5722                	lw	a4,40(sp)
    5e56:	c31c                	sw	a5,0(a4)
    5e58:	47c2                	lw	a5,16(sp)
    5e5a:	c7b9                	beqz	a5,5ea8 <_strtod_l+0x10e>
    5e5c:	800005b7          	lui	a1,0x80000
    5e60:	8da1                	xor	a1,a1,s0
    5e62:	40fa                	lw	ra,156(sp)
    5e64:	446a                	lw	s0,152(sp)
    5e66:	8526                	mv	a0,s1
    5e68:	494a                	lw	s2,144(sp)
    5e6a:	44da                	lw	s1,148(sp)
    5e6c:	49ba                	lw	s3,140(sp)
    5e6e:	4a2a                	lw	s4,136(sp)
    5e70:	4a9a                	lw	s5,132(sp)
    5e72:	4b0a                	lw	s6,128(sp)
    5e74:	5bf6                	lw	s7,124(sp)
    5e76:	5c66                	lw	s8,120(sp)
    5e78:	5cd6                	lw	s9,116(sp)
    5e7a:	5d46                	lw	s10,112(sp)
    5e7c:	5db6                	lw	s11,108(sp)
    5e7e:	610d                	addi	sp,sp,160
    5e80:	8082                	ret
    5e82:	00b70963          	beq	a4,a1,5e94 <_strtod_l+0xfa>
    5e86:	02a70363          	beq	a4,a0,5eac <_strtod_l+0x112>
    5e8a:	f70716e3          	bne	a4,a6,5df6 <_strtod_l+0x5c>
    5e8e:	0785                	addi	a5,a5,1
    5e90:	c6be                	sw	a5,76(sp)
    5e92:	bf99                	j	5de8 <_strtod_l+0x4e>
    5e94:	c802                	sw	zero,16(sp)
    5e96:	00178713          	addi	a4,a5,1
    5e9a:	c6ba                	sw	a4,76(sp)
    5e9c:	339c                	lbu	a5,1(a5)
    5e9e:	ffa9                	bnez	a5,5df8 <_strtod_l+0x5e>
    5ea0:	57a2                	lw	a5,40(sp)
    5ea2:	c6ea                	sw	s10,76(sp)
    5ea4:	c802                	sw	zero,16(sp)
    5ea6:	f7d5                	bnez	a5,5e52 <_strtod_l+0xb8>
    5ea8:	85a2                	mv	a1,s0
    5eaa:	bf65                	j	5e62 <_strtod_l+0xc8>
    5eac:	4705                	li	a4,1
    5eae:	c83a                	sw	a4,16(sp)
    5eb0:	b7dd                	j	5e96 <_strtod_l+0xfc>
    5eb2:	4646                	lw	a2,80(sp)
    5eb4:	ca11                	beqz	a2,5ec8 <_strtod_l+0x12e>
    5eb6:	03500593          	li	a1,53
    5eba:	08a8                	addi	a0,sp,88
    5ebc:	094030ef          	jal	ra,8f50 <__copybits>
    5ec0:	45c6                	lw	a1,80(sp)
    5ec2:	854a                	mv	a0,s2
    5ec4:	00b020ef          	jal	ra,86ce <_Bfree>
    5ec8:	19fd                	addi	s3,s3,-1
    5eca:	4791                	li	a5,4
    5ecc:	0137ee63          	bltu	a5,s3,5ee8 <_strtod_l+0x14e>
    5ed0:	00009717          	auipc	a4,0x9
    5ed4:	d1c70713          	addi	a4,a4,-740 # ebec <asc2_3216+0x1818>
    5ed8:	098a                	slli	s3,s3,0x2
    5eda:	99ba                	add	s3,s3,a4
    5edc:	0009a783          	lw	a5,0(s3)
    5ee0:	97ba                	add	a5,a5,a4
    5ee2:	8782                	jr	a5
    5ee4:	44e6                	lw	s1,88(sp)
    5ee6:	4476                	lw	s0,92(sp)
    5ee8:	008afa93          	andi	s5,s5,8
    5eec:	f60a81e3          	beqz	s5,5e4e <_strtod_l+0xb4>
    5ef0:	800007b7          	lui	a5,0x80000
    5ef4:	8c5d                	or	s0,s0,a5
    5ef6:	bfa1                	j	5e4e <_strtod_l+0xb4>
    5ef8:	45f6                	lw	a1,92(sp)
    5efa:	fff00437          	lui	s0,0xfff00
    5efe:	147d                	addi	s0,s0,-1
    5f00:	0085f7b3          	and	a5,a1,s0
    5f04:	4456                	lw	s0,84(sp)
    5f06:	44e6                	lw	s1,88(sp)
    5f08:	43340413          	addi	s0,s0,1075 # fff00433 <__freertos_irq_stack_top+0xdfef0433>
    5f0c:	01441593          	slli	a1,s0,0x14
    5f10:	00b7e433          	or	s0,a5,a1
    5f14:	bfd1                	j	5ee8 <_strtod_l+0x14e>
    5f16:	7ff00437          	lui	s0,0x7ff00
    5f1a:	b7f9                	j	5ee8 <_strtod_l+0x14e>
    5f1c:	800005b7          	lui	a1,0x80000
    5f20:	fff5c413          	not	s0,a1
    5f24:	54fd                	li	s1,-1
    5f26:	b7c9                	j	5ee8 <_strtod_l+0x14e>
    5f28:	47b6                	lw	a5,76(sp)
    5f2a:	00178693          	addi	a3,a5,1 # 80000001 <__freertos_irq_stack_top+0x5fff0001>
    5f2e:	c6b6                	sw	a3,76(sp)
    5f30:	339c                	lbu	a5,1(a5)
    5f32:	fee78be3          	beq	a5,a4,5f28 <_strtod_l+0x18e>
    5f36:	df81                	beqz	a5,5e4e <_strtod_l+0xb4>
    5f38:	4a85                	li	s5,1
    5f3a:	4cb6                	lw	s9,76(sp)
    5f3c:	4a01                	li	s4,0
    5f3e:	4b81                	li	s7,0
    5f40:	4c01                	li	s8,0
    5f42:	46a5                	li	a3,9
    5f44:	45a1                	li	a1,8
    5f46:	47a9                	li	a5,10
    5f48:	4536                	lw	a0,76(sp)
    5f4a:	00054b03          	lbu	s6,0(a0)
    5f4e:	fd0b0713          	addi	a4,s6,-48
    5f52:	0ff77613          	andi	a2,a4,255
    5f56:	04c6fd63          	bgeu	a3,a2,5fb0 <_strtod_l+0x216>
    5f5a:	000da583          	lw	a1,0(s11)
    5f5e:	864e                	mv	a2,s3
    5f60:	440030ef          	jal	ra,93a0 <strncmp>
    5f64:	c13d                	beqz	a0,5fca <_strtod_l+0x230>
    5f66:	87da                	mv	a5,s6
    5f68:	8de2                	mv	s11,s8
    5f6a:	4681                	li	a3,0
    5f6c:	4b01                	li	s6,0
    5f6e:	4501                	li	a0,0
    5f70:	06500713          	li	a4,101
    5f74:	00e78763          	beq	a5,a4,5f82 <_strtod_l+0x1e8>
    5f78:	04500713          	li	a4,69
    5f7c:	4981                	li	s3,0
    5f7e:	16e79563          	bne	a5,a4,60e8 <_strtod_l+0x34e>
    5f82:	000d9663          	bnez	s11,5f8e <_strtod_l+0x1f4>
    5f86:	0156e7b3          	or	a5,a3,s5
    5f8a:	db99                	beqz	a5,5ea0 <_strtod_l+0x106>
    5f8c:	4d81                	li	s11,0
    5f8e:	4d36                	lw	s10,76(sp)
    5f90:	02b00713          	li	a4,43
    5f94:	001d0793          	addi	a5,s10,1 # 10001 <_data_lma+0xf1d>
    5f98:	c6be                	sw	a5,76(sp)
    5f9a:	001d4783          	lbu	a5,1(s10)
    5f9e:	0ce78f63          	beq	a5,a4,607c <_strtod_l+0x2e2>
    5fa2:	02d00713          	li	a4,45
    5fa6:	4801                	li	a6,0
    5fa8:	0ee79063          	bne	a5,a4,6088 <_strtod_l+0x2ee>
    5fac:	4805                	li	a6,1
    5fae:	a8c1                	j	607e <_strtod_l+0x2e4>
    5fb0:	0185c963          	blt	a1,s8,5fc2 <_strtod_l+0x228>
    5fb4:	02fb8bb3          	mul	s7,s7,a5
    5fb8:	9bba                	add	s7,s7,a4
    5fba:	0505                	addi	a0,a0,1
    5fbc:	0c05                	addi	s8,s8,1
    5fbe:	c6aa                	sw	a0,76(sp)
    5fc0:	b761                	j	5f48 <_strtod_l+0x1ae>
    5fc2:	02fa0a33          	mul	s4,s4,a5
    5fc6:	9a3a                	add	s4,s4,a4
    5fc8:	bfcd                	j	5fba <_strtod_l+0x220>
    5fca:	4536                	lw	a0,76(sp)
    5fcc:	4681                	li	a3,0
    5fce:	954e                	add	a0,a0,s3
    5fd0:	c6aa                	sw	a0,76(sp)
    5fd2:	211c                	lbu	a5,0(a0)
    5fd4:	060c0b63          	beqz	s8,604a <_strtod_l+0x2b0>
    5fd8:	4b01                	li	s6,0
    5fda:	8de2                	mv	s11,s8
    5fdc:	fd078713          	addi	a4,a5,-48
    5fe0:	4625                	li	a2,9
    5fe2:	02e67563          	bgeu	a2,a4,600c <_strtod_l+0x272>
    5fe6:	4505                	li	a0,1
    5fe8:	b761                	j	5f70 <_strtod_l+0x1d6>
    5fea:	47b6                	lw	a5,76(sp)
    5fec:	0685                	addi	a3,a3,1
    5fee:	00178613          	addi	a2,a5,1
    5ff2:	c6b2                	sw	a2,76(sp)
    5ff4:	339c                	lbu	a5,1(a5)
    5ff6:	fee78ae3          	beq	a5,a4,5fea <_strtod_l+0x250>
    5ffa:	fcf78713          	addi	a4,a5,-49
    5ffe:	4621                	li	a2,8
    6000:	1ee666e3          	bltu	a2,a4,69ec <_strtod_l+0xc52>
    6004:	4cb6                	lw	s9,76(sp)
    6006:	8b36                	mv	s6,a3
    6008:	4d81                	li	s11,0
    600a:	4681                	li	a3,0
    600c:	fd078793          	addi	a5,a5,-48
    6010:	00168713          	addi	a4,a3,1
    6014:	c785                	beqz	a5,603c <_strtod_l+0x2a2>
    6016:	9b3a                	add	s6,s6,a4
    6018:	01b68533          	add	a0,a3,s11
    601c:	876e                	mv	a4,s11
    601e:	4821                	li	a6,8
    6020:	48c1                	li	a7,16
    6022:	4629                	li	a2,10
    6024:	02a71663          	bne	a4,a0,6050 <_strtod_l+0x2b6>
    6028:	0d85                	addi	s11,s11,1
    602a:	9db6                	add	s11,s11,a3
    602c:	46a1                	li	a3,8
    602e:	02e6ce63          	blt	a3,a4,606a <_strtod_l+0x2d0>
    6032:	4729                	li	a4,10
    6034:	02eb8bb3          	mul	s7,s7,a4
    6038:	4701                	li	a4,0
    603a:	9bbe                	add	s7,s7,a5
    603c:	47b6                	lw	a5,76(sp)
    603e:	00178693          	addi	a3,a5,1
    6042:	c6b6                	sw	a3,76(sp)
    6044:	339c                	lbu	a5,1(a5)
    6046:	86ba                	mv	a3,a4
    6048:	bf51                	j	5fdc <_strtod_l+0x242>
    604a:	03000713          	li	a4,48
    604e:	b765                	j	5ff6 <_strtod_l+0x25c>
    6050:	00170593          	addi	a1,a4,1
    6054:	00e84663          	blt	a6,a4,6060 <_strtod_l+0x2c6>
    6058:	02cb8bb3          	mul	s7,s7,a2
    605c:	872e                	mv	a4,a1
    605e:	b7d9                	j	6024 <_strtod_l+0x28a>
    6060:	feb8cee3          	blt	a7,a1,605c <_strtod_l+0x2c2>
    6064:	02ca0a33          	mul	s4,s4,a2
    6068:	bfd5                	j	605c <_strtod_l+0x2c2>
    606a:	46c1                	li	a3,16
    606c:	4701                	li	a4,0
    606e:	fdb6c7e3          	blt	a3,s11,603c <_strtod_l+0x2a2>
    6072:	46a9                	li	a3,10
    6074:	02da0a33          	mul	s4,s4,a3
    6078:	9a3e                	add	s4,s4,a5
    607a:	b7c9                	j	603c <_strtod_l+0x2a2>
    607c:	4801                	li	a6,0
    607e:	002d0793          	addi	a5,s10,2
    6082:	c6be                	sw	a5,76(sp)
    6084:	002d4783          	lbu	a5,2(s10)
    6088:	fd078713          	addi	a4,a5,-48
    608c:	4625                	li	a2,9
    608e:	0ce66563          	bltu	a2,a4,6158 <_strtod_l+0x3be>
    6092:	03000713          	li	a4,48
    6096:	0ae78563          	beq	a5,a4,6140 <_strtod_l+0x3a6>
    609a:	fcf78713          	addi	a4,a5,-49
    609e:	4621                	li	a2,8
    60a0:	4981                	li	s3,0
    60a2:	04e66363          	bltu	a2,a4,60e8 <_strtod_l+0x34e>
    60a6:	48b6                	lw	a7,76(sp)
    60a8:	fd078713          	addi	a4,a5,-48
    60ac:	4325                	li	t1,9
    60ae:	4e29                	li	t3,10
    60b0:	47b6                	lw	a5,76(sp)
    60b2:	00178613          	addi	a2,a5,1
    60b6:	c6b2                	sw	a2,76(sp)
    60b8:	339c                	lbu	a5,1(a5)
    60ba:	fd078593          	addi	a1,a5,-48
    60be:	0ff5f593          	andi	a1,a1,255
    60c2:	08b37563          	bgeu	t1,a1,614c <_strtod_l+0x3b2>
    60c6:	6995                	lui	s3,0x5
    60c8:	41160633          	sub	a2,a2,a7
    60cc:	e1f98993          	addi	s3,s3,-481 # 4e1f <LCD_Draw_Circle+0x3f>
    60d0:	48a1                	li	a7,8
    60d2:	85ce                	mv	a1,s3
    60d4:	00c8c663          	blt	a7,a2,60e0 <_strtod_l+0x346>
    60d8:	89ba                	mv	s3,a4
    60da:	00e5d363          	bge	a1,a4,60e0 <_strtod_l+0x346>
    60de:	89ae                	mv	s3,a1
    60e0:	00080463          	beqz	a6,60e8 <_strtod_l+0x34e>
    60e4:	413009b3          	neg	s3,s3
    60e8:	0c0d9663          	bnez	s11,61b4 <_strtod_l+0x41a>
    60ec:	00dae6b3          	or	a3,s5,a3
    60f0:	d4069fe3          	bnez	a3,5e4e <_strtod_l+0xb4>
    60f4:	da0516e3          	bnez	a0,5ea0 <_strtod_l+0x106>
    60f8:	04e00713          	li	a4,78
    60fc:	06e78963          	beq	a5,a4,616e <_strtod_l+0x3d4>
    6100:	04f74f63          	blt	a4,a5,615e <_strtod_l+0x3c4>
    6104:	04900713          	li	a4,73
    6108:	d8e79ce3          	bne	a5,a4,5ea0 <_strtod_l+0x106>
    610c:	00009597          	auipc	a1,0x9
    6110:	b2c58593          	addi	a1,a1,-1236 # ec38 <asc2_3216+0x1864>
    6114:	00e8                	addi	a0,sp,76
    6116:	27a020ef          	jal	ra,8390 <__match>
    611a:	d80503e3          	beqz	a0,5ea0 <_strtod_l+0x106>
    611e:	47b6                	lw	a5,76(sp)
    6120:	00009597          	auipc	a1,0x9
    6124:	b1c58593          	addi	a1,a1,-1252 # ec3c <asc2_3216+0x1868>
    6128:	00e8                	addi	a0,sp,76
    612a:	17fd                	addi	a5,a5,-1
    612c:	c6be                	sw	a5,76(sp)
    612e:	262020ef          	jal	ra,8390 <__match>
    6132:	e501                	bnez	a0,613a <_strtod_l+0x3a0>
    6134:	47b6                	lw	a5,76(sp)
    6136:	0785                	addi	a5,a5,1
    6138:	c6be                	sw	a5,76(sp)
    613a:	7ff00437          	lui	s0,0x7ff00
    613e:	bb01                	j	5e4e <_strtod_l+0xb4>
    6140:	47b6                	lw	a5,76(sp)
    6142:	00178613          	addi	a2,a5,1
    6146:	c6b2                	sw	a2,76(sp)
    6148:	339c                	lbu	a5,1(a5)
    614a:	b7b1                	j	6096 <_strtod_l+0x2fc>
    614c:	03c70733          	mul	a4,a4,t3
    6150:	97ba                	add	a5,a5,a4
    6152:	fd078713          	addi	a4,a5,-48
    6156:	bfa9                	j	60b0 <_strtod_l+0x316>
    6158:	c6ea                	sw	s10,76(sp)
    615a:	4981                	li	s3,0
    615c:	b771                	j	60e8 <_strtod_l+0x34e>
    615e:	06900713          	li	a4,105
    6162:	fae785e3          	beq	a5,a4,610c <_strtod_l+0x372>
    6166:	06e00713          	li	a4,110
    616a:	d2e79be3          	bne	a5,a4,5ea0 <_strtod_l+0x106>
    616e:	00009597          	auipc	a1,0x9
    6172:	ad658593          	addi	a1,a1,-1322 # ec44 <asc2_3216+0x1870>
    6176:	00e8                	addi	a0,sp,76
    6178:	218020ef          	jal	ra,8390 <__match>
    617c:	d20502e3          	beqz	a0,5ea0 <_strtod_l+0x106>
    6180:	47b6                	lw	a5,76(sp)
    6182:	2398                	lbu	a4,0(a5)
    6184:	02800793          	li	a5,40
    6188:	02f71363          	bne	a4,a5,61ae <_strtod_l+0x414>
    618c:	08b0                	addi	a2,sp,88
    618e:	00009597          	auipc	a1,0x9
    6192:	ace58593          	addi	a1,a1,-1330 # ec5c <fpinan.3431>
    6196:	00e8                	addi	a0,sp,76
    6198:	226020ef          	jal	ra,83be <__hexnan>
    619c:	4795                	li	a5,5
    619e:	00f51863          	bne	a0,a5,61ae <_strtod_l+0x414>
    61a2:	45f6                	lw	a1,92(sp)
    61a4:	7ff00437          	lui	s0,0x7ff00
    61a8:	44e6                	lw	s1,88(sp)
    61aa:	8c4d                	or	s0,s0,a1
    61ac:	b14d                	j	5e4e <_strtod_l+0xb4>
    61ae:	fff80437          	lui	s0,0xfff80
    61b2:	b971                	j	5e4e <_strtod_l+0xb4>
    61b4:	41698ab3          	sub	s5,s3,s6
    61b8:	000c1363          	bnez	s8,61be <_strtod_l+0x424>
    61bc:	8c6e                	mv	s8,s11
    61be:	47c1                	li	a5,16
    61c0:	8d6e                	mv	s10,s11
    61c2:	01b7d363          	bge	a5,s11,61c8 <_strtod_l+0x42e>
    61c6:	4d41                	li	s10,16
    61c8:	855e                	mv	a0,s7
    61ca:	751040ef          	jal	ra,b11a <__floatunsidf>
    61ce:	47a5                	li	a5,9
    61d0:	84aa                	mv	s1,a0
    61d2:	842e                	mv	s0,a1
    61d4:	03b7dc63          	bge	a5,s11,620c <_strtod_l+0x472>
    61d8:	ff7d0793          	addi	a5,s10,-9
    61dc:	00379713          	slli	a4,a5,0x3
    61e0:	00009797          	auipc	a5,0x9
    61e4:	c9878793          	addi	a5,a5,-872 # ee78 <__mprec_tens>
    61e8:	97ba                	add	a5,a5,a4
    61ea:	4390                	lw	a2,0(a5)
    61ec:	43d4                	lw	a3,4(a5)
    61ee:	1c6040ef          	jal	ra,a3b4 <__muldf3>
    61f2:	842a                	mv	s0,a0
    61f4:	8552                	mv	a0,s4
    61f6:	84ae                	mv	s1,a1
    61f8:	723040ef          	jal	ra,b11a <__floatunsidf>
    61fc:	862a                	mv	a2,a0
    61fe:	86ae                	mv	a3,a1
    6200:	8522                	mv	a0,s0
    6202:	85a6                	mv	a1,s1
    6204:	2fe030ef          	jal	ra,9502 <__adddf3>
    6208:	84aa                	mv	s1,a0
    620a:	842e                	mv	s0,a1
    620c:	47bd                	li	a5,15
    620e:	09b7cd63          	blt	a5,s11,62a8 <_strtod_l+0x50e>
    6212:	c20a8ee3          	beqz	s5,5e4e <_strtod_l+0xb4>
    6216:	07505463          	blez	s5,627e <_strtod_l+0x4e4>
    621a:	4759                	li	a4,22
    621c:	03574363          	blt	a4,s5,6242 <_strtod_l+0x4a8>
    6220:	0a8e                	slli	s5,s5,0x3
    6222:	00009797          	auipc	a5,0x9
    6226:	c5678793          	addi	a5,a5,-938 # ee78 <__mprec_tens>
    622a:	9abe                	add	s5,s5,a5
    622c:	000aa503          	lw	a0,0(s5)
    6230:	004aa583          	lw	a1,4(s5)
    6234:	8626                	mv	a2,s1
    6236:	86a2                	mv	a3,s0
    6238:	17c040ef          	jal	ra,a3b4 <__muldf3>
    623c:	84aa                	mv	s1,a0
    623e:	842e                	mv	s0,a1
    6240:	b139                	j	5e4e <_strtod_l+0xb4>
    6242:	02500713          	li	a4,37
    6246:	41b70733          	sub	a4,a4,s11
    624a:	05574f63          	blt	a4,s5,62a8 <_strtod_l+0x50e>
    624e:	41b78db3          	sub	s11,a5,s11
    6252:	00009917          	auipc	s2,0x9
    6256:	c2690913          	addi	s2,s2,-986 # ee78 <__mprec_tens>
    625a:	003d9793          	slli	a5,s11,0x3
    625e:	97ca                	add	a5,a5,s2
    6260:	4388                	lw	a0,0(a5)
    6262:	43cc                	lw	a1,4(a5)
    6264:	41ba8db3          	sub	s11,s5,s11
    6268:	8626                	mv	a2,s1
    626a:	86a2                	mv	a3,s0
    626c:	0d8e                	slli	s11,s11,0x3
    626e:	146040ef          	jal	ra,a3b4 <__muldf3>
    6272:	9dca                	add	s11,s11,s2
    6274:	000da603          	lw	a2,0(s11)
    6278:	004da683          	lw	a3,4(s11)
    627c:	bf75                	j	6238 <_strtod_l+0x49e>
    627e:	57a9                	li	a5,-22
    6280:	02fac463          	blt	s5,a5,62a8 <_strtod_l+0x50e>
    6284:	413b09b3          	sub	s3,s6,s3
    6288:	00399b13          	slli	s6,s3,0x3
    628c:	00009997          	auipc	s3,0x9
    6290:	bec98993          	addi	s3,s3,-1044 # ee78 <__mprec_tens>
    6294:	99da                	add	s3,s3,s6
    6296:	0009a603          	lw	a2,0(s3)
    629a:	0049a683          	lw	a3,4(s3)
    629e:	8526                	mv	a0,s1
    62a0:	85a2                	mv	a1,s0
    62a2:	191030ef          	jal	ra,9c32 <__divdf3>
    62a6:	bf59                	j	623c <_strtod_l+0x4a2>
    62a8:	41ad8d33          	sub	s10,s11,s10
    62ac:	9d56                	add	s10,s10,s5
    62ae:	11a05763          	blez	s10,63bc <_strtod_l+0x622>
    62b2:	00fd7793          	andi	a5,s10,15
    62b6:	cf99                	beqz	a5,62d4 <_strtod_l+0x53a>
    62b8:	00009717          	auipc	a4,0x9
    62bc:	bc070713          	addi	a4,a4,-1088 # ee78 <__mprec_tens>
    62c0:	078e                	slli	a5,a5,0x3
    62c2:	97ba                	add	a5,a5,a4
    62c4:	4388                	lw	a0,0(a5)
    62c6:	43cc                	lw	a1,4(a5)
    62c8:	8626                	mv	a2,s1
    62ca:	86a2                	mv	a3,s0
    62cc:	0e8040ef          	jal	ra,a3b4 <__muldf3>
    62d0:	84aa                	mv	s1,a0
    62d2:	842e                	mv	s0,a1
    62d4:	ff0d7d13          	andi	s10,s10,-16
    62d8:	0a0d0863          	beqz	s10,6388 <_strtod_l+0x5ee>
    62dc:	13400793          	li	a5,308
    62e0:	05a7d563          	bge	a5,s10,632a <_strtod_l+0x590>
    62e4:	4b01                	li	s6,0
    62e6:	4981                	li	s3,0
    62e8:	c602                	sw	zero,12(sp)
    62ea:	4b81                	li	s7,0
    62ec:	02200793          	li	a5,34
    62f0:	00f92023          	sw	a5,0(s2)
    62f4:	7ff00437          	lui	s0,0x7ff00
    62f8:	4481                	li	s1,0
    62fa:	47b2                	lw	a5,12(sp)
    62fc:	b40789e3          	beqz	a5,5e4e <_strtod_l+0xb4>
    6300:	45c6                	lw	a1,80(sp)
    6302:	854a                	mv	a0,s2
    6304:	3ca020ef          	jal	ra,86ce <_Bfree>
    6308:	85de                	mv	a1,s7
    630a:	854a                	mv	a0,s2
    630c:	3c2020ef          	jal	ra,86ce <_Bfree>
    6310:	85ce                	mv	a1,s3
    6312:	854a                	mv	a0,s2
    6314:	3ba020ef          	jal	ra,86ce <_Bfree>
    6318:	45b2                	lw	a1,12(sp)
    631a:	854a                	mv	a0,s2
    631c:	3b2020ef          	jal	ra,86ce <_Bfree>
    6320:	85da                	mv	a1,s6
    6322:	854a                	mv	a0,s2
    6324:	3aa020ef          	jal	ra,86ce <_Bfree>
    6328:	b61d                	j	5e4e <_strtod_l+0xb4>
    632a:	404d5d13          	srai	s10,s10,0x4
    632e:	8526                	mv	a0,s1
    6330:	85a2                	mv	a1,s0
    6332:	4781                	li	a5,0
    6334:	4a01                	li	s4,0
    6336:	4805                	li	a6,1
    6338:	00009897          	auipc	a7,0x9
    633c:	b1888893          	addi	a7,a7,-1256 # ee50 <__mprec_bigtens>
    6340:	05a84663          	blt	a6,s10,638c <_strtod_l+0x5f2>
    6344:	c399                	beqz	a5,634a <_strtod_l+0x5b0>
    6346:	84aa                	mv	s1,a0
    6348:	842e                	mv	s0,a1
    634a:	00009717          	auipc	a4,0x9
    634e:	b0670713          	addi	a4,a4,-1274 # ee50 <__mprec_bigtens>
    6352:	003a1793          	slli	a5,s4,0x3
    6356:	97ba                	add	a5,a5,a4
    6358:	4388                	lw	a0,0(a5)
    635a:	43cc                	lw	a1,4(a5)
    635c:	fcb00737          	lui	a4,0xfcb00
    6360:	9722                	add	a4,a4,s0
    6362:	8626                	mv	a2,s1
    6364:	86ba                	mv	a3,a4
    6366:	04e040ef          	jal	ra,a3b4 <__muldf3>
    636a:	7ff00437          	lui	s0,0x7ff00
    636e:	00b477b3          	and	a5,s0,a1
    6372:	7ca00737          	lui	a4,0x7ca00
    6376:	84aa                	mv	s1,a0
    6378:	f6f766e3          	bltu	a4,a5,62e4 <_strtod_l+0x54a>
    637c:	7c900737          	lui	a4,0x7c900
    6380:	02f77a63          	bgeu	a4,a5,63b4 <_strtod_l+0x61a>
    6384:	147d                	addi	s0,s0,-1
    6386:	54fd                	li	s1,-1
    6388:	4a01                	li	s4,0
    638a:	a8dd                	j	6480 <_strtod_l+0x6e6>
    638c:	001d7713          	andi	a4,s10,1
    6390:	cf11                	beqz	a4,63ac <_strtod_l+0x612>
    6392:	003a1713          	slli	a4,s4,0x3
    6396:	9746                	add	a4,a4,a7
    6398:	4310                	lw	a2,0(a4)
    639a:	4354                	lw	a3,4(a4)
    639c:	018040ef          	jal	ra,a3b4 <__muldf3>
    63a0:	4785                	li	a5,1
    63a2:	4805                	li	a6,1
    63a4:	00009897          	auipc	a7,0x9
    63a8:	aac88893          	addi	a7,a7,-1364 # ee50 <__mprec_bigtens>
    63ac:	0a05                	addi	s4,s4,1
    63ae:	401d5d13          	srai	s10,s10,0x1
    63b2:	b779                	j	6340 <_strtod_l+0x5a6>
    63b4:	03500437          	lui	s0,0x3500
    63b8:	942e                	add	s0,s0,a1
    63ba:	b7f9                	j	6388 <_strtod_l+0x5ee>
    63bc:	fc0d06e3          	beqz	s10,6388 <_strtod_l+0x5ee>
    63c0:	41a00d33          	neg	s10,s10
    63c4:	00fd7793          	andi	a5,s10,15
    63c8:	cf99                	beqz	a5,63e6 <_strtod_l+0x64c>
    63ca:	00009717          	auipc	a4,0x9
    63ce:	aae70713          	addi	a4,a4,-1362 # ee78 <__mprec_tens>
    63d2:	078e                	slli	a5,a5,0x3
    63d4:	97ba                	add	a5,a5,a4
    63d6:	4390                	lw	a2,0(a5)
    63d8:	43d4                	lw	a3,4(a5)
    63da:	8526                	mv	a0,s1
    63dc:	85a2                	mv	a1,s0
    63de:	055030ef          	jal	ra,9c32 <__divdf3>
    63e2:	84aa                	mv	s1,a0
    63e4:	842e                	mv	s0,a1
    63e6:	404d5d13          	srai	s10,s10,0x4
    63ea:	f80d0fe3          	beqz	s10,6388 <_strtod_l+0x5ee>
    63ee:	47fd                	li	a5,31
    63f0:	01a7dd63          	bge	a5,s10,640a <_strtod_l+0x670>
    63f4:	4b01                	li	s6,0
    63f6:	4981                	li	s3,0
    63f8:	c602                	sw	zero,12(sp)
    63fa:	4b81                	li	s7,0
    63fc:	02200793          	li	a5,34
    6400:	4481                	li	s1,0
    6402:	4401                	li	s0,0
    6404:	00f92023          	sw	a5,0(s2)
    6408:	bdcd                	j	62fa <_strtod_l+0x560>
    640a:	010d7a13          	andi	s4,s10,16
    640e:	000a0463          	beqz	s4,6416 <_strtod_l+0x67c>
    6412:	06a00a13          	li	s4,106
    6416:	8526                	mv	a0,s1
    6418:	85a2                	mv	a1,s0
    641a:	00009797          	auipc	a5,0x9
    641e:	85e78793          	addi	a5,a5,-1954 # ec78 <tinytens>
    6422:	4701                	li	a4,0
    6424:	001d7693          	andi	a3,s10,1
    6428:	ca81                	beqz	a3,6438 <_strtod_l+0x69e>
    642a:	4390                	lw	a2,0(a5)
    642c:	43d4                	lw	a3,4(a5)
    642e:	c63e                	sw	a5,12(sp)
    6430:	785030ef          	jal	ra,a3b4 <__muldf3>
    6434:	47b2                	lw	a5,12(sp)
    6436:	4705                	li	a4,1
    6438:	401d5d13          	srai	s10,s10,0x1
    643c:	07a1                	addi	a5,a5,8
    643e:	fe0d13e3          	bnez	s10,6424 <_strtod_l+0x68a>
    6442:	c319                	beqz	a4,6448 <_strtod_l+0x6ae>
    6444:	84aa                	mv	s1,a0
    6446:	842e                	mv	s0,a1
    6448:	020a0563          	beqz	s4,6472 <_strtod_l+0x6d8>
    644c:	01445793          	srli	a5,s0,0x14
    6450:	7ff7f713          	andi	a4,a5,2047
    6454:	06b00793          	li	a5,107
    6458:	8f99                	sub	a5,a5,a4
    645a:	00f05c63          	blez	a5,6472 <_strtod_l+0x6d8>
    645e:	477d                	li	a4,31
    6460:	22f75463          	bge	a4,a5,6688 <_strtod_l+0x8ee>
    6464:	03400713          	li	a4,52
    6468:	4481                	li	s1,0
    646a:	20f75963          	bge	a4,a5,667c <_strtod_l+0x8e2>
    646e:	03700437          	lui	s0,0x3700
    6472:	4601                	li	a2,0
    6474:	4681                	li	a3,0
    6476:	8526                	mv	a0,s1
    6478:	85a2                	mv	a1,s0
    647a:	56d030ef          	jal	ra,a1e6 <__eqdf2>
    647e:	d93d                	beqz	a0,63f4 <_strtod_l+0x65a>
    6480:	875e                	mv	a4,s7
    6482:	86ee                	mv	a3,s11
    6484:	8662                	mv	a2,s8
    6486:	85e6                	mv	a1,s9
    6488:	854a                	mv	a0,s2
    648a:	320020ef          	jal	ra,87aa <__s2b>
    648e:	c62a                	sw	a0,12(sp)
    6490:	e4050ae3          	beqz	a0,62e4 <_strtod_l+0x54a>
    6494:	41fad793          	srai	a5,s5,0x1f
    6498:	413b09b3          	sub	s3,s6,s3
    649c:	00f9f7b3          	and	a5,s3,a5
    64a0:	d03e                	sw	a5,32(sp)
    64a2:	ce56                	sw	s5,28(sp)
    64a4:	000ad363          	bgez	s5,64aa <_strtod_l+0x710>
    64a8:	ce02                	sw	zero,28(sp)
    64aa:	47b2                	lw	a5,12(sp)
    64ac:	4b01                	li	s6,0
    64ae:	4981                	li	s3,0
    64b0:	07b1                	addi	a5,a5,12
    64b2:	d83e                	sw	a5,48(sp)
    64b4:	001007b7          	lui	a5,0x100
    64b8:	17fd                	addi	a5,a5,-1
    64ba:	d63e                	sw	a5,44(sp)
    64bc:	47b2                	lw	a5,12(sp)
    64be:	854a                	mv	a0,s2
    64c0:	43cc                	lw	a1,4(a5)
    64c2:	180020ef          	jal	ra,8642 <_Balloc>
    64c6:	8baa                	mv	s7,a0
    64c8:	e20502e3          	beqz	a0,62ec <_strtod_l+0x552>
    64cc:	47b2                	lw	a5,12(sp)
    64ce:	55c2                	lw	a1,48(sp)
    64d0:	0531                	addi	a0,a0,12
    64d2:	4b90                	lw	a2,16(a5)
    64d4:	0609                	addi	a2,a2,2
    64d6:	060a                	slli	a2,a2,0x2
    64d8:	aa3fe0ef          	jal	ra,4f7a <memcpy>
    64dc:	08b8                	addi	a4,sp,88
    64de:	08d4                	addi	a3,sp,84
    64e0:	8622                	mv	a2,s0
    64e2:	85a6                	mv	a1,s1
    64e4:	854a                	mv	a0,s2
    64e6:	ca26                	sw	s1,20(sp)
    64e8:	cc22                	sw	s0,24(sp)
    64ea:	11f020ef          	jal	ra,8e08 <__d2b>
    64ee:	c8aa                	sw	a0,80(sp)
    64f0:	de050ee3          	beqz	a0,62ec <_strtod_l+0x552>
    64f4:	4585                	li	a1,1
    64f6:	854a                	mv	a0,s2
    64f8:	406020ef          	jal	ra,88fe <__i2b>
    64fc:	89aa                	mv	s3,a0
    64fe:	de0507e3          	beqz	a0,62ec <_strtod_l+0x552>
    6502:	47d6                	lw	a5,84(sp)
    6504:	1807c763          	bltz	a5,6692 <_strtod_l+0x8f8>
    6508:	5702                	lw	a4,32(sp)
    650a:	4c72                	lw	s8,28(sp)
    650c:	00e78d33          	add	s10,a5,a4
    6510:	4766                	lw	a4,88(sp)
    6512:	414787b3          	sub	a5,a5,s4
    6516:	03600693          	li	a3,54
    651a:	97ba                	add	a5,a5,a4
    651c:	17fd                	addi	a5,a5,-1
    651e:	c0200d93          	li	s11,-1022
    6522:	8e99                	sub	a3,a3,a4
    6524:	19b7d663          	bge	a5,s11,66b0 <_strtod_l+0x916>
    6528:	40fd8733          	sub	a4,s11,a5
    652c:	467d                	li	a2,31
    652e:	8e99                	sub	a3,a3,a4
    6530:	16e64663          	blt	a2,a4,669c <_strtod_l+0x902>
    6534:	4d85                	li	s11,1
    6536:	00ed97b3          	sll	a5,s11,a4
    653a:	d23e                	sw	a5,36(sp)
    653c:	4c81                	li	s9,0
    653e:	9c36                	add	s8,s8,a3
    6540:	00dd0db3          	add	s11,s10,a3
    6544:	9c52                	add	s8,s8,s4
    6546:	87ea                	mv	a5,s10
    6548:	01add363          	bge	s11,s10,654e <_strtod_l+0x7b4>
    654c:	87ee                	mv	a5,s11
    654e:	00fc5363          	bge	s8,a5,6554 <_strtod_l+0x7ba>
    6552:	87e2                	mv	a5,s8
    6554:	00f05863          	blez	a5,6564 <_strtod_l+0x7ca>
    6558:	40fd8db3          	sub	s11,s11,a5
    655c:	40fc0c33          	sub	s8,s8,a5
    6560:	40fd0d33          	sub	s10,s10,a5
    6564:	5782                	lw	a5,32(sp)
    6566:	02f05863          	blez	a5,6596 <_strtod_l+0x7fc>
    656a:	85ce                	mv	a1,s3
    656c:	863e                	mv	a2,a5
    656e:	854a                	mv	a0,s2
    6570:	4ee020ef          	jal	ra,8a5e <__pow5mult>
    6574:	89aa                	mv	s3,a0
    6576:	d6050be3          	beqz	a0,62ec <_strtod_l+0x552>
    657a:	4646                	lw	a2,80(sp)
    657c:	85aa                	mv	a1,a0
    657e:	854a                	mv	a0,s2
    6580:	39a020ef          	jal	ra,891a <__multiply>
    6584:	da2a                	sw	a0,52(sp)
    6586:	d60503e3          	beqz	a0,62ec <_strtod_l+0x552>
    658a:	45c6                	lw	a1,80(sp)
    658c:	854a                	mv	a0,s2
    658e:	140020ef          	jal	ra,86ce <_Bfree>
    6592:	57d2                	lw	a5,52(sp)
    6594:	c8be                	sw	a5,80(sp)
    6596:	11b04f63          	bgtz	s11,66b4 <_strtod_l+0x91a>
    659a:	01505a63          	blez	s5,65ae <_strtod_l+0x814>
    659e:	4672                	lw	a2,28(sp)
    65a0:	85de                	mv	a1,s7
    65a2:	854a                	mv	a0,s2
    65a4:	4ba020ef          	jal	ra,8a5e <__pow5mult>
    65a8:	8baa                	mv	s7,a0
    65aa:	d40501e3          	beqz	a0,62ec <_strtod_l+0x552>
    65ae:	01805a63          	blez	s8,65c2 <_strtod_l+0x828>
    65b2:	85de                	mv	a1,s7
    65b4:	8662                	mv	a2,s8
    65b6:	854a                	mv	a0,s2
    65b8:	564020ef          	jal	ra,8b1c <__lshift>
    65bc:	8baa                	mv	s7,a0
    65be:	d20507e3          	beqz	a0,62ec <_strtod_l+0x552>
    65c2:	01a05a63          	blez	s10,65d6 <_strtod_l+0x83c>
    65c6:	85ce                	mv	a1,s3
    65c8:	866a                	mv	a2,s10
    65ca:	854a                	mv	a0,s2
    65cc:	550020ef          	jal	ra,8b1c <__lshift>
    65d0:	89aa                	mv	s3,a0
    65d2:	d0050de3          	beqz	a0,62ec <_strtod_l+0x552>
    65d6:	45c6                	lw	a1,80(sp)
    65d8:	865e                	mv	a2,s7
    65da:	854a                	mv	a0,s2
    65dc:	640020ef          	jal	ra,8c1c <__mdiff>
    65e0:	8b2a                	mv	s6,a0
    65e2:	d00505e3          	beqz	a0,62ec <_strtod_l+0x552>
    65e6:	00c52c03          	lw	s8,12(a0)
    65ea:	85ce                	mv	a1,s3
    65ec:	00052623          	sw	zero,12(a0)
    65f0:	5fa020ef          	jal	ra,8bea <__mcmp>
    65f4:	0c055963          	bgez	a0,66c6 <_strtod_l+0x92c>
    65f8:	009c6c33          	or	s8,s8,s1
    65fc:	120c1163          	bnez	s8,671e <_strtod_l+0x984>
    6600:	00c41793          	slli	a5,s0,0xc
    6604:	10079d63          	bnez	a5,671e <_strtod_l+0x984>
    6608:	7ff007b7          	lui	a5,0x7ff00
    660c:	8fe1                	and	a5,a5,s0
    660e:	06b00737          	lui	a4,0x6b00
    6612:	10f77663          	bgeu	a4,a5,671e <_strtod_l+0x984>
    6616:	014b2783          	lw	a5,20(s6)
    661a:	e791                	bnez	a5,6626 <_strtod_l+0x88c>
    661c:	010b2703          	lw	a4,16(s6)
    6620:	4785                	li	a5,1
    6622:	0ee7de63          	bge	a5,a4,671e <_strtod_l+0x984>
    6626:	85da                	mv	a1,s6
    6628:	4605                	li	a2,1
    662a:	854a                	mv	a0,s2
    662c:	4f0020ef          	jal	ra,8b1c <__lshift>
    6630:	85ce                	mv	a1,s3
    6632:	8b2a                	mv	s6,a0
    6634:	5b6020ef          	jal	ra,8bea <__mcmp>
    6638:	0ea05363          	blez	a0,671e <_strtod_l+0x984>
    663c:	100a0c63          	beqz	s4,6754 <_strtod_l+0x9ba>
    6640:	7ff007b7          	lui	a5,0x7ff00
    6644:	8fe1                	and	a5,a5,s0
    6646:	06b00737          	lui	a4,0x6b00
    664a:	10f74563          	blt	a4,a5,6754 <_strtod_l+0x9ba>
    664e:	03700737          	lui	a4,0x3700
    6652:	daf755e3          	bge	a4,a5,63fc <_strtod_l+0x662>
    6656:	4701                	li	a4,0
    6658:	395007b7          	lui	a5,0x39500
    665c:	8526                	mv	a0,s1
    665e:	85a2                	mv	a1,s0
    6660:	863a                	mv	a2,a4
    6662:	86be                	mv	a3,a5
    6664:	551030ef          	jal	ra,a3b4 <__muldf3>
    6668:	842e                	mv	s0,a1
    666a:	8dc9                	or	a1,a1,a0
    666c:	84aa                	mv	s1,a0
    666e:	c80599e3          	bnez	a1,6300 <_strtod_l+0x566>
    6672:	02200793          	li	a5,34
    6676:	00f92023          	sw	a5,0(s2)
    667a:	b159                	j	6300 <_strtod_l+0x566>
    667c:	1781                	addi	a5,a5,-32
    667e:	577d                	li	a4,-1
    6680:	00f717b3          	sll	a5,a4,a5
    6684:	8c7d                	and	s0,s0,a5
    6686:	b3f5                	j	6472 <_strtod_l+0x6d8>
    6688:	577d                	li	a4,-1
    668a:	00f717b3          	sll	a5,a4,a5
    668e:	8cfd                	and	s1,s1,a5
    6690:	b3cd                	j	6472 <_strtod_l+0x6d8>
    6692:	4772                	lw	a4,28(sp)
    6694:	5d02                	lw	s10,32(sp)
    6696:	40f70c33          	sub	s8,a4,a5
    669a:	bd9d                	j	6510 <_strtod_l+0x776>
    669c:	be200c93          	li	s9,-1054
    66a0:	40fc87b3          	sub	a5,s9,a5
    66a4:	4c85                	li	s9,1
    66a6:	00fc9cb3          	sll	s9,s9,a5
    66aa:	4785                	li	a5,1
    66ac:	d23e                	sw	a5,36(sp)
    66ae:	bd41                	j	653e <_strtod_l+0x7a4>
    66b0:	4c81                	li	s9,0
    66b2:	bfe5                	j	66aa <_strtod_l+0x910>
    66b4:	45c6                	lw	a1,80(sp)
    66b6:	866e                	mv	a2,s11
    66b8:	854a                	mv	a0,s2
    66ba:	462020ef          	jal	ra,8b1c <__lshift>
    66be:	c8aa                	sw	a0,80(sp)
    66c0:	ec051de3          	bnez	a0,659a <_strtod_l+0x800>
    66c4:	b125                	j	62ec <_strtod_l+0x552>
    66c6:	e969                	bnez	a0,6798 <_strtod_l+0x9fe>
    66c8:	00100737          	lui	a4,0x100
    66cc:	177d                	addi	a4,a4,-1
    66ce:	00e477b3          	and	a5,s0,a4
    66d2:	040c0963          	beqz	s8,6724 <_strtod_l+0x98a>
    66d6:	04e79963          	bne	a5,a4,6728 <_strtod_l+0x98e>
    66da:	577d                	li	a4,-1
    66dc:	020a0063          	beqz	s4,66fc <_strtod_l+0x962>
    66e0:	7ff007b7          	lui	a5,0x7ff00
    66e4:	8fe1                	and	a5,a5,s0
    66e6:	06a006b7          	lui	a3,0x6a00
    66ea:	00f6e963          	bltu	a3,a5,66fc <_strtod_l+0x962>
    66ee:	83d1                	srli	a5,a5,0x14
    66f0:	06b00693          	li	a3,107
    66f4:	40f687b3          	sub	a5,a3,a5
    66f8:	00f71733          	sll	a4,a4,a5
    66fc:	02e49663          	bne	s1,a4,6728 <_strtod_l+0x98e>
    6700:	7ff007b7          	lui	a5,0x7ff00
    6704:	17fd                	addi	a5,a5,-1
    6706:	00f41563          	bne	s0,a5,6710 <_strtod_l+0x976>
    670a:	57fd                	li	a5,-1
    670c:	bef480e3          	beq	s1,a5,62ec <_strtod_l+0x552>
    6710:	7ff005b7          	lui	a1,0x7ff00
    6714:	8de1                	and	a1,a1,s0
    6716:	00100437          	lui	s0,0x100
    671a:	942e                	add	s0,s0,a1
    671c:	4481                	li	s1,0
    671e:	f20a1ce3          	bnez	s4,6656 <_strtod_l+0x8bc>
    6722:	bef9                	j	6300 <_strtod_l+0x566>
    6724:	8fc5                	or	a5,a5,s1
    6726:	db99                	beqz	a5,663c <_strtod_l+0x8a2>
    6728:	040c8263          	beqz	s9,676c <_strtod_l+0x9d2>
    672c:	008cfcb3          	and	s9,s9,s0
    6730:	fe0c87e3          	beqz	s9,671e <_strtod_l+0x984>
    6734:	8652                	mv	a2,s4
    6736:	8526                	mv	a0,s1
    6738:	85a2                	mv	a1,s0
    673a:	020c0f63          	beqz	s8,6778 <_strtod_l+0x9de>
    673e:	e0eff0ef          	jal	ra,5d4c <sulp>
    6742:	862a                	mv	a2,a0
    6744:	86ae                	mv	a3,a1
    6746:	4552                	lw	a0,20(sp)
    6748:	45e2                	lw	a1,24(sp)
    674a:	5b9020ef          	jal	ra,9502 <__adddf3>
    674e:	84aa                	mv	s1,a0
    6750:	842e                	mv	s0,a1
    6752:	b7f1                	j	671e <_strtod_l+0x984>
    6754:	7ff005b7          	lui	a1,0x7ff00
    6758:	8de1                	and	a1,a1,s0
    675a:	fff00437          	lui	s0,0xfff00
    675e:	95a2                	add	a1,a1,s0
    6760:	00100437          	lui	s0,0x100
    6764:	147d                	addi	s0,s0,-1
    6766:	8c4d                	or	s0,s0,a1
    6768:	54fd                	li	s1,-1
    676a:	bf55                	j	671e <_strtod_l+0x984>
    676c:	5792                	lw	a5,36(sp)
    676e:	0097fdb3          	and	s11,a5,s1
    6772:	fa0d86e3          	beqz	s11,671e <_strtod_l+0x984>
    6776:	bf7d                	j	6734 <_strtod_l+0x99a>
    6778:	dd4ff0ef          	jal	ra,5d4c <sulp>
    677c:	862a                	mv	a2,a0
    677e:	86ae                	mv	a3,a1
    6780:	4552                	lw	a0,20(sp)
    6782:	45e2                	lw	a1,24(sp)
    6784:	0e8040ef          	jal	ra,a86c <__subdf3>
    6788:	4601                	li	a2,0
    678a:	4681                	li	a3,0
    678c:	84aa                	mv	s1,a0
    678e:	842e                	mv	s0,a1
    6790:	257030ef          	jal	ra,a1e6 <__eqdf2>
    6794:	f549                	bnez	a0,671e <_strtod_l+0x984>
    6796:	b19d                	j	63fc <_strtod_l+0x662>
    6798:	85ce                	mv	a1,s3
    679a:	855a                	mv	a0,s6
    679c:	740020ef          	jal	ra,8edc <__ratio>
    67a0:	00008797          	auipc	a5,0x8
    67a4:	47078793          	addi	a5,a5,1136 # ec10 <asc2_3216+0x183c>
    67a8:	4390                	lw	a2,0(a5)
    67aa:	43d4                	lw	a3,4(a5)
    67ac:	8d2a                	mv	s10,a0
    67ae:	8dae                	mv	s11,a1
    67b0:	34f030ef          	jal	ra,a2fe <__ledf2>
    67b4:	10a04263          	bgtz	a0,68b8 <_strtod_l+0xb1e>
    67b8:	0a0c0163          	beqz	s8,685a <_strtod_l+0xac0>
    67bc:	4d81                	li	s11,0
    67be:	3ff00d37          	lui	s10,0x3ff00
    67c2:	4701                	li	a4,0
    67c4:	3ff007b7          	lui	a5,0x3ff00
    67c8:	7ff006b7          	lui	a3,0x7ff00
    67cc:	00d47cb3          	and	s9,s0,a3
    67d0:	7fe006b7          	lui	a3,0x7fe00
    67d4:	16dc9f63          	bne	s9,a3,6952 <_strtod_l+0xbb8>
    67d8:	d26a                	sw	s10,36(sp)
    67da:	fcb00d37          	lui	s10,0xfcb00
    67de:	9d22                	add	s10,s10,s0
    67e0:	8526                	mv	a0,s1
    67e2:	85ea                	mv	a1,s10
    67e4:	de3e                	sw	a5,60(sp)
    67e6:	dc3a                	sw	a4,56(sp)
    67e8:	da6e                	sw	s11,52(sp)
    67ea:	524020ef          	jal	ra,8d0e <__ulp>
    67ee:	58d2                	lw	a7,52(sp)
    67f0:	5812                	lw	a6,36(sp)
    67f2:	862a                	mv	a2,a0
    67f4:	86ae                	mv	a3,a1
    67f6:	8546                	mv	a0,a7
    67f8:	85c2                	mv	a1,a6
    67fa:	3bb030ef          	jal	ra,a3b4 <__muldf3>
    67fe:	8626                	mv	a2,s1
    6800:	86ea                	mv	a3,s10
    6802:	501020ef          	jal	ra,9502 <__adddf3>
    6806:	84aa                	mv	s1,a0
    6808:	7ff00537          	lui	a0,0x7ff00
    680c:	00b57633          	and	a2,a0,a1
    6810:	7ca006b7          	lui	a3,0x7ca00
    6814:	5762                	lw	a4,56(sp)
    6816:	57f2                	lw	a5,60(sp)
    6818:	0cd66563          	bltu	a2,a3,68e2 <_strtod_l+0xb48>
    681c:	4762                	lw	a4,24(sp)
    681e:	fff50793          	addi	a5,a0,-1 # 7fefffff <__freertos_irq_stack_top+0x5feeffff>
    6822:	00e79663          	bne	a5,a4,682e <_strtod_l+0xa94>
    6826:	4752                	lw	a4,20(sp)
    6828:	57fd                	li	a5,-1
    682a:	ace781e3          	beq	a5,a4,62ec <_strtod_l+0x552>
    682e:	7ff007b7          	lui	a5,0x7ff00
    6832:	fff78413          	addi	s0,a5,-1 # 7fefffff <__freertos_irq_stack_top+0x5feeffff>
    6836:	54fd                	li	s1,-1
    6838:	45c6                	lw	a1,80(sp)
    683a:	854a                	mv	a0,s2
    683c:	693010ef          	jal	ra,86ce <_Bfree>
    6840:	85de                	mv	a1,s7
    6842:	854a                	mv	a0,s2
    6844:	68b010ef          	jal	ra,86ce <_Bfree>
    6848:	85ce                	mv	a1,s3
    684a:	854a                	mv	a0,s2
    684c:	683010ef          	jal	ra,86ce <_Bfree>
    6850:	85da                	mv	a1,s6
    6852:	854a                	mv	a0,s2
    6854:	67b010ef          	jal	ra,86ce <_Bfree>
    6858:	b195                	j	64bc <_strtod_l+0x722>
    685a:	e0b1                	bnez	s1,689e <_strtod_l+0xb04>
    685c:	57b2                	lw	a5,44(sp)
    685e:	8fe1                	and	a5,a5,s0
    6860:	e7a1                	bnez	a5,68a8 <_strtod_l+0xb0e>
    6862:	00008797          	auipc	a5,0x8
    6866:	3a678793          	addi	a5,a5,934 # ec08 <asc2_3216+0x1834>
    686a:	4390                	lw	a2,0(a5)
    686c:	43d4                	lw	a3,4(a5)
    686e:	856a                	mv	a0,s10
    6870:	85ee                	mv	a1,s11
    6872:	28d030ef          	jal	ra,a2fe <__ledf2>
    6876:	02054d63          	bltz	a0,68b0 <_strtod_l+0xb16>
    687a:	00008797          	auipc	a5,0x8
    687e:	38678793          	addi	a5,a5,902 # ec00 <asc2_3216+0x182c>
    6882:	4390                	lw	a2,0(a5)
    6884:	43d4                	lw	a3,4(a5)
    6886:	856a                	mv	a0,s10
    6888:	85ee                	mv	a1,s11
    688a:	32b030ef          	jal	ra,a3b4 <__muldf3>
    688e:	872a                	mv	a4,a0
    6890:	87ae                	mv	a5,a1
    6892:	80000d37          	lui	s10,0x80000
    6896:	8dba                	mv	s11,a4
    6898:	00fd4d33          	xor	s10,s10,a5
    689c:	b735                	j	67c8 <_strtod_l+0xa2e>
    689e:	4785                	li	a5,1
    68a0:	00f49463          	bne	s1,a5,68a8 <_strtod_l+0xb0e>
    68a4:	b4040ce3          	beqz	s0,63fc <_strtod_l+0x662>
    68a8:	4d81                	li	s11,0
    68aa:	bff00d37          	lui	s10,0xbff00
    68ae:	bf11                	j	67c2 <_strtod_l+0xa28>
    68b0:	4701                	li	a4,0
    68b2:	3fe007b7          	lui	a5,0x3fe00
    68b6:	bff1                	j	6892 <_strtod_l+0xaf8>
    68b8:	00008797          	auipc	a5,0x8
    68bc:	34878793          	addi	a5,a5,840 # ec00 <asc2_3216+0x182c>
    68c0:	4390                	lw	a2,0(a5)
    68c2:	43d4                	lw	a3,4(a5)
    68c4:	856a                	mv	a0,s10
    68c6:	85ee                	mv	a1,s11
    68c8:	2ed030ef          	jal	ra,a3b4 <__muldf3>
    68cc:	872a                	mv	a4,a0
    68ce:	87ae                	mv	a5,a1
    68d0:	8d2e                	mv	s10,a1
    68d2:	000c1663          	bnez	s8,68de <_strtod_l+0xb44>
    68d6:	80000d37          	lui	s10,0x80000
    68da:	00bd4d33          	xor	s10,s10,a1
    68de:	8daa                	mv	s11,a0
    68e0:	b5e5                	j	67c8 <_strtod_l+0xa2e>
    68e2:	03500437          	lui	s0,0x3500
    68e6:	942e                	add	s0,s0,a1
    68e8:	f40a18e3          	bnez	s4,6838 <_strtod_l+0xa9e>
    68ec:	7ff006b7          	lui	a3,0x7ff00
    68f0:	8ee1                	and	a3,a3,s0
    68f2:	f4dc93e3          	bne	s9,a3,6838 <_strtod_l+0xa9e>
    68f6:	85be                	mv	a1,a5
    68f8:	853a                	mv	a0,a4
    68fa:	8d3a                	mv	s10,a4
    68fc:	8cbe                	mv	s9,a5
    68fe:	6e8040ef          	jal	ra,afe6 <__fixdfsi>
    6902:	7a8040ef          	jal	ra,b0aa <__floatsidf>
    6906:	862a                	mv	a2,a0
    6908:	86ae                	mv	a3,a1
    690a:	856a                	mv	a0,s10
    690c:	85e6                	mv	a1,s9
    690e:	75f030ef          	jal	ra,a86c <__subdf3>
    6912:	57b2                	lw	a5,44(sp)
    6914:	8d2a                	mv	s10,a0
    6916:	8dae                	mv	s11,a1
    6918:	8fe1                	and	a5,a5,s0
    691a:	8fc5                	or	a5,a5,s1
    691c:	0187ec33          	or	s8,a5,s8
    6920:	0a0c0b63          	beqz	s8,69d6 <_strtod_l+0xc3c>
    6924:	00008797          	auipc	a5,0x8
    6928:	2fc78793          	addi	a5,a5,764 # ec20 <asc2_3216+0x184c>
    692c:	4390                	lw	a2,0(a5)
    692e:	43d4                	lw	a3,4(a5)
    6930:	1cf030ef          	jal	ra,a2fe <__ledf2>
    6934:	9c0546e3          	bltz	a0,6300 <_strtod_l+0x566>
    6938:	00008797          	auipc	a5,0x8
    693c:	2f078793          	addi	a5,a5,752 # ec28 <asc2_3216+0x1854>
    6940:	4390                	lw	a2,0(a5)
    6942:	43d4                	lw	a3,4(a5)
    6944:	856a                	mv	a0,s10
    6946:	85ee                	mv	a1,s11
    6948:	109030ef          	jal	ra,a250 <__gedf2>
    694c:	eea056e3          	blez	a0,6838 <_strtod_l+0xa9e>
    6950:	ba45                	j	6300 <_strtod_l+0x566>
    6952:	040a0d63          	beqz	s4,69ac <_strtod_l+0xc12>
    6956:	06a006b7          	lui	a3,0x6a00
    695a:	0596e963          	bltu	a3,s9,69ac <_strtod_l+0xc12>
    695e:	00008697          	auipc	a3,0x8
    6962:	2ba68693          	addi	a3,a3,698 # ec18 <asc2_3216+0x1844>
    6966:	4290                	lw	a2,0(a3)
    6968:	42d4                	lw	a3,4(a3)
    696a:	853a                	mv	a0,a4
    696c:	85be                	mv	a1,a5
    696e:	da3a                	sw	a4,52(sp)
    6970:	d23e                	sw	a5,36(sp)
    6972:	18d030ef          	jal	ra,a2fe <__ledf2>
    6976:	5792                	lw	a5,36(sp)
    6978:	5752                	lw	a4,52(sp)
    697a:	02a04463          	bgtz	a0,69a2 <_strtod_l+0xc08>
    697e:	853a                	mv	a0,a4
    6980:	85be                	mv	a1,a5
    6982:	6cc040ef          	jal	ra,b04e <__fixunsdfsi>
    6986:	e111                	bnez	a0,698a <_strtod_l+0xbf0>
    6988:	4505                	li	a0,1
    698a:	790040ef          	jal	ra,b11a <__floatunsidf>
    698e:	872a                	mv	a4,a0
    6990:	87ae                	mv	a5,a1
    6992:	8d2e                	mv	s10,a1
    6994:	000c1663          	bnez	s8,69a0 <_strtod_l+0xc06>
    6998:	80000d37          	lui	s10,0x80000
    699c:	00bd4d33          	xor	s10,s10,a1
    69a0:	8daa                	mv	s11,a0
    69a2:	06b005b7          	lui	a1,0x6b00
    69a6:	9d2e                	add	s10,s10,a1
    69a8:	419d0d33          	sub	s10,s10,s9
    69ac:	4552                	lw	a0,20(sp)
    69ae:	45e2                	lw	a1,24(sp)
    69b0:	da3e                	sw	a5,52(sp)
    69b2:	d23a                	sw	a4,36(sp)
    69b4:	35a020ef          	jal	ra,8d0e <__ulp>
    69b8:	862a                	mv	a2,a0
    69ba:	86ae                	mv	a3,a1
    69bc:	856e                	mv	a0,s11
    69be:	85ea                	mv	a1,s10
    69c0:	1f5030ef          	jal	ra,a3b4 <__muldf3>
    69c4:	4652                	lw	a2,20(sp)
    69c6:	46e2                	lw	a3,24(sp)
    69c8:	33b020ef          	jal	ra,9502 <__adddf3>
    69cc:	84aa                	mv	s1,a0
    69ce:	842e                	mv	s0,a1
    69d0:	57d2                	lw	a5,52(sp)
    69d2:	5712                	lw	a4,36(sp)
    69d4:	bf11                	j	68e8 <_strtod_l+0xb4e>
    69d6:	00008797          	auipc	a5,0x8
    69da:	25a78793          	addi	a5,a5,602 # ec30 <asc2_3216+0x185c>
    69de:	4390                	lw	a2,0(a5)
    69e0:	43d4                	lw	a3,4(a5)
    69e2:	11d030ef          	jal	ra,a2fe <__ledf2>
    69e6:	e40559e3          	bgez	a0,6838 <_strtod_l+0xa9e>
    69ea:	ba19                	j	6300 <_strtod_l+0x566>
    69ec:	06500713          	li	a4,101
    69f0:	00e78763          	beq	a5,a4,69fe <_strtod_l+0xc64>
    69f4:	04500713          	li	a4,69
    69f8:	4505                	li	a0,1
    69fa:	eee79963          	bne	a5,a4,60ec <_strtod_l+0x352>
    69fe:	4b01                	li	s6,0
    6a00:	4505                	li	a0,1
    6a02:	d84ff06f          	j	5f86 <_strtod_l+0x1ec>

00006a06 <strtof>:
    6a06:	1101                	addi	sp,sp,-32
    6a08:	c84a                	sw	s2,16(sp)
    6a0a:	81418913          	addi	s2,gp,-2028 # 200001f4 <_impure_ptr>
    6a0e:	00092783          	lw	a5,0(s2)
    6a12:	ce06                	sw	ra,28(sp)
    6a14:	cc22                	sw	s0,24(sp)
    6a16:	5394                	lw	a3,32(a5)
    6a18:	ca26                	sw	s1,20(sp)
    6a1a:	c64e                	sw	s3,12(sp)
    6a1c:	c452                	sw	s4,8(sp)
    6a1e:	c25a                	sw	s6,4(sp)
    6a20:	c05e                	sw	s7,0(sp)
    6a22:	862e                	mv	a2,a1
    6a24:	e689                	bnez	a3,6a2e <strtof+0x28>
    6a26:	1fff9697          	auipc	a3,0x1fff9
    6a2a:	64a68693          	addi	a3,a3,1610 # 20000070 <__global_locale>
    6a2e:	85aa                	mv	a1,a0
    6a30:	853e                	mv	a0,a5
    6a32:	b68ff0ef          	jal	ra,5d9a <_strtod_l>
    6a36:	84aa                	mv	s1,a0
    6a38:	842e                	mv	s0,a1
    6a3a:	862a                	mv	a2,a0
    6a3c:	86ae                	mv	a3,a1
    6a3e:	8526                	mv	a0,s1
    6a40:	85a2                	mv	a1,s0
    6a42:	568040ef          	jal	ra,afaa <__unorddf2>
    6a46:	cd09                	beqz	a0,6a60 <strtof+0x5a>
    6a48:	4462                	lw	s0,24(sp)
    6a4a:	40f2                	lw	ra,28(sp)
    6a4c:	44d2                	lw	s1,20(sp)
    6a4e:	4942                	lw	s2,16(sp)
    6a50:	49b2                	lw	s3,12(sp)
    6a52:	4a22                	lw	s4,8(sp)
    6a54:	4b12                	lw	s6,4(sp)
    6a56:	4b82                	lw	s7,0(sp)
    6a58:	4501                	li	a0,0
    6a5a:	6105                	addi	sp,sp,32
    6a5c:	08f0206f          	j	92ea <nanf>
    6a60:	85a2                	mv	a1,s0
    6a62:	8526                	mv	a0,s1
    6a64:	7e4040ef          	jal	ra,b248 <__truncdfsf2>
    6a68:	00008797          	auipc	a5,0x8
    6a6c:	20878793          	addi	a5,a5,520 # ec70 <fpinan.3431+0x14>
    6a70:	800009b7          	lui	s3,0x80000
    6a74:	0007ab83          	lw	s7,0(a5)
    6a78:	fff9c993          	not	s3,s3
    6a7c:	01357b33          	and	s6,a0,s3
    6a80:	8a2a                	mv	s4,a0
    6a82:	85de                	mv	a1,s7
    6a84:	855a                	mv	a0,s6
    6a86:	786040ef          	jal	ra,b20c <__unordsf2>
    6a8a:	e529                	bnez	a0,6ad4 <strtof+0xce>
    6a8c:	85de                	mv	a1,s7
    6a8e:	855a                	mv	a0,s6
    6a90:	6f0040ef          	jal	ra,b180 <__lesf2>
    6a94:	04a05063          	blez	a0,6ad4 <strtof+0xce>
    6a98:	00008797          	auipc	a5,0x8
    6a9c:	11078793          	addi	a5,a5,272 # eba8 <asc2_3216+0x17d4>
    6aa0:	0007ab03          	lw	s6,0(a5)
    6aa4:	0047ab83          	lw	s7,4(a5)
    6aa8:	01347433          	and	s0,s0,s3
    6aac:	865a                	mv	a2,s6
    6aae:	86de                	mv	a3,s7
    6ab0:	8526                	mv	a0,s1
    6ab2:	85a2                	mv	a1,s0
    6ab4:	4f6040ef          	jal	ra,afaa <__unorddf2>
    6ab8:	e909                	bnez	a0,6aca <strtof+0xc4>
    6aba:	865a                	mv	a2,s6
    6abc:	86de                	mv	a3,s7
    6abe:	8526                	mv	a0,s1
    6ac0:	85a2                	mv	a1,s0
    6ac2:	03d030ef          	jal	ra,a2fe <__ledf2>
    6ac6:	00a04763          	bgtz	a0,6ad4 <strtof+0xce>
    6aca:	00092783          	lw	a5,0(s2)
    6ace:	02200713          	li	a4,34
    6ad2:	c398                	sw	a4,0(a5)
    6ad4:	40f2                	lw	ra,28(sp)
    6ad6:	4462                	lw	s0,24(sp)
    6ad8:	8552                	mv	a0,s4
    6ada:	44d2                	lw	s1,20(sp)
    6adc:	4942                	lw	s2,16(sp)
    6ade:	49b2                	lw	s3,12(sp)
    6ae0:	4a22                	lw	s4,8(sp)
    6ae2:	4b12                	lw	s6,4(sp)
    6ae4:	4b82                	lw	s7,0(sp)
    6ae6:	6105                	addi	sp,sp,32
    6ae8:	8082                	ret

00006aea <__swbuf_r>:
    6aea:	1101                	addi	sp,sp,-32
    6aec:	cc22                	sw	s0,24(sp)
    6aee:	ca26                	sw	s1,20(sp)
    6af0:	c84a                	sw	s2,16(sp)
    6af2:	ce06                	sw	ra,28(sp)
    6af4:	c64e                	sw	s3,12(sp)
    6af6:	84aa                	mv	s1,a0
    6af8:	892e                	mv	s2,a1
    6afa:	8432                	mv	s0,a2
    6afc:	c509                	beqz	a0,6b06 <__swbuf_r+0x1c>
    6afe:	4d1c                	lw	a5,24(a0)
    6b00:	e399                	bnez	a5,6b06 <__swbuf_r+0x1c>
    6b02:	16a010ef          	jal	ra,7c6c <__sinit>
    6b06:	00008797          	auipc	a5,0x8
    6b0a:	30a78793          	addi	a5,a5,778 # ee10 <__sf_fake_stdin>
    6b0e:	06f41963          	bne	s0,a5,6b80 <__swbuf_r+0x96>
    6b12:	40c0                	lw	s0,4(s1)
    6b14:	4c1c                	lw	a5,24(s0)
    6b16:	c41c                	sw	a5,8(s0)
    6b18:	245e                	lhu	a5,12(s0)
    6b1a:	8ba1                	andi	a5,a5,8
    6b1c:	c3d1                	beqz	a5,6ba0 <__swbuf_r+0xb6>
    6b1e:	481c                	lw	a5,16(s0)
    6b20:	c3c1                	beqz	a5,6ba0 <__swbuf_r+0xb6>
    6b22:	481c                	lw	a5,16(s0)
    6b24:	4008                	lw	a0,0(s0)
    6b26:	0ff97993          	andi	s3,s2,255
    6b2a:	0ff97913          	andi	s2,s2,255
    6b2e:	8d1d                	sub	a0,a0,a5
    6b30:	485c                	lw	a5,20(s0)
    6b32:	00f54763          	blt	a0,a5,6b40 <__swbuf_r+0x56>
    6b36:	85a2                	mv	a1,s0
    6b38:	8526                	mv	a0,s1
    6b3a:	014010ef          	jal	ra,7b4e <_fflush_r>
    6b3e:	e52d                	bnez	a0,6ba8 <__swbuf_r+0xbe>
    6b40:	441c                	lw	a5,8(s0)
    6b42:	0505                	addi	a0,a0,1
    6b44:	17fd                	addi	a5,a5,-1
    6b46:	c41c                	sw	a5,8(s0)
    6b48:	401c                	lw	a5,0(s0)
    6b4a:	00178713          	addi	a4,a5,1
    6b4e:	c018                	sw	a4,0(s0)
    6b50:	01378023          	sb	s3,0(a5)
    6b54:	485c                	lw	a5,20(s0)
    6b56:	00a78863          	beq	a5,a0,6b66 <__swbuf_r+0x7c>
    6b5a:	245e                	lhu	a5,12(s0)
    6b5c:	8b85                	andi	a5,a5,1
    6b5e:	cb89                	beqz	a5,6b70 <__swbuf_r+0x86>
    6b60:	47a9                	li	a5,10
    6b62:	00f91763          	bne	s2,a5,6b70 <__swbuf_r+0x86>
    6b66:	85a2                	mv	a1,s0
    6b68:	8526                	mv	a0,s1
    6b6a:	7e5000ef          	jal	ra,7b4e <_fflush_r>
    6b6e:	ed0d                	bnez	a0,6ba8 <__swbuf_r+0xbe>
    6b70:	40f2                	lw	ra,28(sp)
    6b72:	4462                	lw	s0,24(sp)
    6b74:	854a                	mv	a0,s2
    6b76:	44d2                	lw	s1,20(sp)
    6b78:	4942                	lw	s2,16(sp)
    6b7a:	49b2                	lw	s3,12(sp)
    6b7c:	6105                	addi	sp,sp,32
    6b7e:	8082                	ret
    6b80:	00008797          	auipc	a5,0x8
    6b84:	2b078793          	addi	a5,a5,688 # ee30 <__sf_fake_stdout>
    6b88:	00f41463          	bne	s0,a5,6b90 <__swbuf_r+0xa6>
    6b8c:	4480                	lw	s0,8(s1)
    6b8e:	b759                	j	6b14 <__swbuf_r+0x2a>
    6b90:	00008797          	auipc	a5,0x8
    6b94:	26078793          	addi	a5,a5,608 # edf0 <__sf_fake_stderr>
    6b98:	f6f41ee3          	bne	s0,a5,6b14 <__swbuf_r+0x2a>
    6b9c:	44c0                	lw	s0,12(s1)
    6b9e:	bf9d                	j	6b14 <__swbuf_r+0x2a>
    6ba0:	85a2                	mv	a1,s0
    6ba2:	8526                	mv	a0,s1
    6ba4:	201d                	jal	6bca <__swsetup_r>
    6ba6:	dd35                	beqz	a0,6b22 <__swbuf_r+0x38>
    6ba8:	597d                	li	s2,-1
    6baa:	b7d9                	j	6b70 <__swbuf_r+0x86>

00006bac <__ascii_wctomb>:
    6bac:	cd89                	beqz	a1,6bc6 <__ascii_wctomb+0x1a>
    6bae:	0ff00793          	li	a5,255
    6bb2:	00c7f763          	bgeu	a5,a2,6bc0 <__ascii_wctomb+0x14>
    6bb6:	08a00793          	li	a5,138
    6bba:	c11c                	sw	a5,0(a0)
    6bbc:	557d                	li	a0,-1
    6bbe:	8082                	ret
    6bc0:	a190                	sb	a2,0(a1)
    6bc2:	4505                	li	a0,1
    6bc4:	8082                	ret
    6bc6:	4501                	li	a0,0
    6bc8:	8082                	ret

00006bca <__swsetup_r>:
    6bca:	1141                	addi	sp,sp,-16
    6bcc:	81418793          	addi	a5,gp,-2028 # 200001f4 <_impure_ptr>
    6bd0:	c226                	sw	s1,4(sp)
    6bd2:	4384                	lw	s1,0(a5)
    6bd4:	c422                	sw	s0,8(sp)
    6bd6:	c04a                	sw	s2,0(sp)
    6bd8:	c606                	sw	ra,12(sp)
    6bda:	892a                	mv	s2,a0
    6bdc:	842e                	mv	s0,a1
    6bde:	c491                	beqz	s1,6bea <__swsetup_r+0x20>
    6be0:	4c9c                	lw	a5,24(s1)
    6be2:	e781                	bnez	a5,6bea <__swsetup_r+0x20>
    6be4:	8526                	mv	a0,s1
    6be6:	086010ef          	jal	ra,7c6c <__sinit>
    6bea:	00008797          	auipc	a5,0x8
    6bee:	22678793          	addi	a5,a5,550 # ee10 <__sf_fake_stdin>
    6bf2:	02f41b63          	bne	s0,a5,6c28 <__swsetup_r+0x5e>
    6bf6:	40c0                	lw	s0,4(s1)
    6bf8:	00c41703          	lh	a4,12(s0) # 350000c <_data_lma+0x34f0f28>
    6bfc:	01071793          	slli	a5,a4,0x10
    6c00:	83c1                	srli	a5,a5,0x10
    6c02:	0087f693          	andi	a3,a5,8
    6c06:	eab5                	bnez	a3,6c7a <__swsetup_r+0xb0>
    6c08:	0107f693          	andi	a3,a5,16
    6c0c:	ee95                	bnez	a3,6c48 <__swsetup_r+0x7e>
    6c0e:	47a5                	li	a5,9
    6c10:	00f92023          	sw	a5,0(s2)
    6c14:	04076713          	ori	a4,a4,64
    6c18:	a45a                	sh	a4,12(s0)
    6c1a:	557d                	li	a0,-1
    6c1c:	40b2                	lw	ra,12(sp)
    6c1e:	4422                	lw	s0,8(sp)
    6c20:	4492                	lw	s1,4(sp)
    6c22:	4902                	lw	s2,0(sp)
    6c24:	0141                	addi	sp,sp,16
    6c26:	8082                	ret
    6c28:	00008797          	auipc	a5,0x8
    6c2c:	20878793          	addi	a5,a5,520 # ee30 <__sf_fake_stdout>
    6c30:	00f41463          	bne	s0,a5,6c38 <__swsetup_r+0x6e>
    6c34:	4480                	lw	s0,8(s1)
    6c36:	b7c9                	j	6bf8 <__swsetup_r+0x2e>
    6c38:	00008797          	auipc	a5,0x8
    6c3c:	1b878793          	addi	a5,a5,440 # edf0 <__sf_fake_stderr>
    6c40:	faf41ce3          	bne	s0,a5,6bf8 <__swsetup_r+0x2e>
    6c44:	44c0                	lw	s0,12(s1)
    6c46:	bf4d                	j	6bf8 <__swsetup_r+0x2e>
    6c48:	8b91                	andi	a5,a5,4
    6c4a:	c785                	beqz	a5,6c72 <__swsetup_r+0xa8>
    6c4c:	584c                	lw	a1,52(s0)
    6c4e:	c991                	beqz	a1,6c62 <__swsetup_r+0x98>
    6c50:	04440793          	addi	a5,s0,68
    6c54:	00f58563          	beq	a1,a5,6c5e <__swsetup_r+0x94>
    6c58:	854a                	mv	a0,s2
    6c5a:	bd2fe0ef          	jal	ra,502c <_free_r>
    6c5e:	02042a23          	sw	zero,52(s0)
    6c62:	245e                	lhu	a5,12(s0)
    6c64:	00042223          	sw	zero,4(s0)
    6c68:	fdb7f793          	andi	a5,a5,-37
    6c6c:	a45e                	sh	a5,12(s0)
    6c6e:	481c                	lw	a5,16(s0)
    6c70:	c01c                	sw	a5,0(s0)
    6c72:	245e                	lhu	a5,12(s0)
    6c74:	0087e793          	ori	a5,a5,8
    6c78:	a45e                	sh	a5,12(s0)
    6c7a:	481c                	lw	a5,16(s0)
    6c7c:	ef81                	bnez	a5,6c94 <__swsetup_r+0xca>
    6c7e:	245e                	lhu	a5,12(s0)
    6c80:	20000713          	li	a4,512
    6c84:	2807f793          	andi	a5,a5,640
    6c88:	00e78663          	beq	a5,a4,6c94 <__swsetup_r+0xca>
    6c8c:	85a2                	mv	a1,s0
    6c8e:	854a                	mv	a0,s2
    6c90:	103010ef          	jal	ra,8592 <__smakebuf_r>
    6c94:	245e                	lhu	a5,12(s0)
    6c96:	0017f713          	andi	a4,a5,1
    6c9a:	c31d                	beqz	a4,6cc0 <__swsetup_r+0xf6>
    6c9c:	485c                	lw	a5,20(s0)
    6c9e:	00042423          	sw	zero,8(s0)
    6ca2:	40f007b3          	neg	a5,a5
    6ca6:	cc1c                	sw	a5,24(s0)
    6ca8:	481c                	lw	a5,16(s0)
    6caa:	4501                	li	a0,0
    6cac:	fba5                	bnez	a5,6c1c <__swsetup_r+0x52>
    6cae:	00c41783          	lh	a5,12(s0)
    6cb2:	0807f713          	andi	a4,a5,128
    6cb6:	d33d                	beqz	a4,6c1c <__swsetup_r+0x52>
    6cb8:	0407e793          	ori	a5,a5,64
    6cbc:	a45e                	sh	a5,12(s0)
    6cbe:	bfb1                	j	6c1a <__swsetup_r+0x50>
    6cc0:	8b89                	andi	a5,a5,2
    6cc2:	4701                	li	a4,0
    6cc4:	e391                	bnez	a5,6cc8 <__swsetup_r+0xfe>
    6cc6:	4858                	lw	a4,20(s0)
    6cc8:	c418                	sw	a4,8(s0)
    6cca:	bff9                	j	6ca8 <__swsetup_r+0xde>

00006ccc <quorem>:
    6ccc:	1101                	addi	sp,sp,-32
    6cce:	cc22                	sw	s0,24(sp)
    6cd0:	491c                	lw	a5,16(a0)
    6cd2:	4980                	lw	s0,16(a1)
    6cd4:	ce06                	sw	ra,28(sp)
    6cd6:	ca26                	sw	s1,20(sp)
    6cd8:	c84a                	sw	s2,16(sp)
    6cda:	c64e                	sw	s3,12(sp)
    6cdc:	c452                	sw	s4,8(sp)
    6cde:	c256                	sw	s5,4(sp)
    6ce0:	1287c163          	blt	a5,s0,6e02 <quorem+0x136>
    6ce4:	147d                	addi	s0,s0,-1
    6ce6:	00241813          	slli	a6,s0,0x2
    6cea:	01458993          	addi	s3,a1,20 # 6b00014 <_data_lma+0x6af0f30>
    6cee:	01098a33          	add	s4,s3,a6
    6cf2:	01450913          	addi	s2,a0,20
    6cf6:	984a                	add	a6,a6,s2
    6cf8:	000a2783          	lw	a5,0(s4)
    6cfc:	00082703          	lw	a4,0(a6)
    6d00:	0785                	addi	a5,a5,1
    6d02:	02f754b3          	divu	s1,a4,a5
    6d06:	06f76663          	bltu	a4,a5,6d72 <quorem+0xa6>
    6d0a:	68c1                	lui	a7,0x10
    6d0c:	834e                	mv	t1,s3
    6d0e:	8e4a                	mv	t3,s2
    6d10:	4e81                	li	t4,0
    6d12:	4f01                	li	t5,0
    6d14:	18fd                	addi	a7,a7,-1
    6d16:	0311                	addi	t1,t1,4
    6d18:	ffc32603          	lw	a2,-4(t1)
    6d1c:	0e11                	addi	t3,t3,4
    6d1e:	01167733          	and	a4,a2,a7
    6d22:	8241                	srli	a2,a2,0x10
    6d24:	02970733          	mul	a4,a4,s1
    6d28:	02960633          	mul	a2,a2,s1
    6d2c:	9776                	add	a4,a4,t4
    6d2e:	01075693          	srli	a3,a4,0x10
    6d32:	011777b3          	and	a5,a4,a7
    6d36:	40ff07b3          	sub	a5,t5,a5
    6d3a:	9636                	add	a2,a2,a3
    6d3c:	ffce2683          	lw	a3,-4(t3)
    6d40:	01065e93          	srli	t4,a2,0x10
    6d44:	01167633          	and	a2,a2,a7
    6d48:	0116f733          	and	a4,a3,a7
    6d4c:	97ba                	add	a5,a5,a4
    6d4e:	82c1                	srli	a3,a3,0x10
    6d50:	4107d713          	srai	a4,a5,0x10
    6d54:	8e91                	sub	a3,a3,a2
    6d56:	96ba                	add	a3,a3,a4
    6d58:	4106df13          	srai	t5,a3,0x10
    6d5c:	0117f7b3          	and	a5,a5,a7
    6d60:	06c2                	slli	a3,a3,0x10
    6d62:	8fd5                	or	a5,a5,a3
    6d64:	fefe2e23          	sw	a5,-4(t3)
    6d68:	fa6a77e3          	bgeu	s4,t1,6d16 <quorem+0x4a>
    6d6c:	00082783          	lw	a5,0(a6)
    6d70:	cbbd                	beqz	a5,6de6 <quorem+0x11a>
    6d72:	8aaa                	mv	s5,a0
    6d74:	677010ef          	jal	ra,8bea <__mcmp>
    6d78:	04054963          	bltz	a0,6dca <quorem+0xfe>
    6d7c:	6641                	lui	a2,0x10
    6d7e:	0485                	addi	s1,s1,1
    6d80:	85ca                	mv	a1,s2
    6d82:	4501                	li	a0,0
    6d84:	167d                	addi	a2,a2,-1
    6d86:	0991                	addi	s3,s3,4
    6d88:	ffc9a803          	lw	a6,-4(s3) # 7ffffffc <__freertos_irq_stack_top+0x5ffefffc>
    6d8c:	4198                	lw	a4,0(a1)
    6d8e:	0591                	addi	a1,a1,4
    6d90:	00c876b3          	and	a3,a6,a2
    6d94:	8d15                	sub	a0,a0,a3
    6d96:	00c776b3          	and	a3,a4,a2
    6d9a:	96aa                	add	a3,a3,a0
    6d9c:	01075793          	srli	a5,a4,0x10
    6da0:	01085813          	srli	a6,a6,0x10
    6da4:	4106d713          	srai	a4,a3,0x10
    6da8:	410787b3          	sub	a5,a5,a6
    6dac:	97ba                	add	a5,a5,a4
    6dae:	4107d513          	srai	a0,a5,0x10
    6db2:	8ef1                	and	a3,a3,a2
    6db4:	07c2                	slli	a5,a5,0x10
    6db6:	8fd5                	or	a5,a5,a3
    6db8:	fef5ae23          	sw	a5,-4(a1)
    6dbc:	fd3a75e3          	bgeu	s4,s3,6d86 <quorem+0xba>
    6dc0:	00241793          	slli	a5,s0,0x2
    6dc4:	97ca                	add	a5,a5,s2
    6dc6:	4398                	lw	a4,0(a5)
    6dc8:	c71d                	beqz	a4,6df6 <quorem+0x12a>
    6dca:	8526                	mv	a0,s1
    6dcc:	40f2                	lw	ra,28(sp)
    6dce:	4462                	lw	s0,24(sp)
    6dd0:	44d2                	lw	s1,20(sp)
    6dd2:	4942                	lw	s2,16(sp)
    6dd4:	49b2                	lw	s3,12(sp)
    6dd6:	4a22                	lw	s4,8(sp)
    6dd8:	4a92                	lw	s5,4(sp)
    6dda:	6105                	addi	sp,sp,32
    6ddc:	8082                	ret
    6dde:	00082783          	lw	a5,0(a6)
    6de2:	e789                	bnez	a5,6dec <quorem+0x120>
    6de4:	147d                	addi	s0,s0,-1
    6de6:	1871                	addi	a6,a6,-4
    6de8:	ff096be3          	bltu	s2,a6,6dde <quorem+0x112>
    6dec:	c900                	sw	s0,16(a0)
    6dee:	b751                	j	6d72 <quorem+0xa6>
    6df0:	4398                	lw	a4,0(a5)
    6df2:	e709                	bnez	a4,6dfc <quorem+0x130>
    6df4:	147d                	addi	s0,s0,-1
    6df6:	17f1                	addi	a5,a5,-4
    6df8:	fef96ce3          	bltu	s2,a5,6df0 <quorem+0x124>
    6dfc:	008aa823          	sw	s0,16(s5)
    6e00:	b7e9                	j	6dca <quorem+0xfe>
    6e02:	4501                	li	a0,0
    6e04:	b7e1                	j	6dcc <quorem+0x100>

00006e06 <_dtoa_r>:
    6e06:	7175                	addi	sp,sp,-144
    6e08:	d83e                	sw	a5,48(sp)
    6e0a:	515c                	lw	a5,36(a0)
    6e0c:	c522                	sw	s0,136(sp)
    6e0e:	c326                	sw	s1,132(sp)
    6e10:	c14a                	sw	s2,128(sp)
    6e12:	dece                	sw	s3,124(sp)
    6e14:	dcd2                	sw	s4,120(sp)
    6e16:	d4e2                	sw	s8,104(sp)
    6e18:	c706                	sw	ra,140(sp)
    6e1a:	dad6                	sw	s5,116(sp)
    6e1c:	d8da                	sw	s6,112(sp)
    6e1e:	d6de                	sw	s7,108(sp)
    6e20:	d2e6                	sw	s9,100(sp)
    6e22:	d0ea                	sw	s10,96(sp)
    6e24:	ceee                	sw	s11,92(sp)
    6e26:	c236                	sw	a3,4(sp)
    6e28:	c63a                	sw	a4,12(sp)
    6e2a:	ca46                	sw	a7,20(sp)
    6e2c:	84aa                	mv	s1,a0
    6e2e:	842e                	mv	s0,a1
    6e30:	8932                	mv	s2,a2
    6e32:	89c2                	mv	s3,a6
    6e34:	8a2e                	mv	s4,a1
    6e36:	8c32                	mv	s8,a2
    6e38:	ef89                	bnez	a5,6e52 <_dtoa_r+0x4c>
    6e3a:	4541                	li	a0,16
    6e3c:	902fe0ef          	jal	ra,4f3e <malloc>
    6e40:	d0c8                	sw	a0,36(s1)
    6e42:	00052223          	sw	zero,4(a0)
    6e46:	00052423          	sw	zero,8(a0)
    6e4a:	00052023          	sw	zero,0(a0)
    6e4e:	00052623          	sw	zero,12(a0)
    6e52:	50dc                	lw	a5,36(s1)
    6e54:	438c                	lw	a1,0(a5)
    6e56:	cd89                	beqz	a1,6e70 <_dtoa_r+0x6a>
    6e58:	43d8                	lw	a4,4(a5)
    6e5a:	4785                	li	a5,1
    6e5c:	8526                	mv	a0,s1
    6e5e:	00e797b3          	sll	a5,a5,a4
    6e62:	c59c                	sw	a5,8(a1)
    6e64:	c1d8                	sw	a4,4(a1)
    6e66:	069010ef          	jal	ra,86ce <_Bfree>
    6e6a:	50dc                	lw	a5,36(s1)
    6e6c:	0007a023          	sw	zero,0(a5)
    6e70:	04095363          	bgez	s2,6eb6 <_dtoa_r+0xb0>
    6e74:	4785                	li	a5,1
    6e76:	00191c13          	slli	s8,s2,0x1
    6e7a:	00f9a023          	sw	a5,0(s3)
    6e7e:	001c5c13          	srli	s8,s8,0x1
    6e82:	7ff007b7          	lui	a5,0x7ff00
    6e86:	00fc7733          	and	a4,s8,a5
    6e8a:	06f71463          	bne	a4,a5,6ef2 <_dtoa_r+0xec>
    6e8e:	5742                	lw	a4,48(sp)
    6e90:	6789                	lui	a5,0x2
    6e92:	0c32                	slli	s8,s8,0xc
    6e94:	70f78793          	addi	a5,a5,1807 # 270f <prvInsertTimerInActiveList+0x5>
    6e98:	00cc5c13          	srli	s8,s8,0xc
    6e9c:	c31c                	sw	a5,0(a4)
    6e9e:	008c6c33          	or	s8,s8,s0
    6ea2:	320c00e3          	beqz	s8,79c2 <_dtoa_r+0xbbc>
    6ea6:	47d2                	lw	a5,20(sp)
    6ea8:	eb91                	bnez	a5,6ebc <_dtoa_r+0xb6>
    6eaa:	00008797          	auipc	a5,0x8
    6eae:	f4278793          	addi	a5,a5,-190 # edec <_ctype_+0x14c>
    6eb2:	c03e                	sw	a5,0(sp)
    6eb4:	a839                	j	6ed2 <_dtoa_r+0xcc>
    6eb6:	0009a023          	sw	zero,0(s3)
    6eba:	b7e1                	j	6e82 <_dtoa_r+0x7c>
    6ebc:	00008797          	auipc	a5,0x8
    6ec0:	f3078793          	addi	a5,a5,-208 # edec <_ctype_+0x14c>
    6ec4:	c03e                	sw	a5,0(sp)
    6ec6:	00008797          	auipc	a5,0x8
    6eca:	f2978793          	addi	a5,a5,-215 # edef <_ctype_+0x14f>
    6ece:	4752                	lw	a4,20(sp)
    6ed0:	c31c                	sw	a5,0(a4)
    6ed2:	40ba                	lw	ra,140(sp)
    6ed4:	442a                	lw	s0,136(sp)
    6ed6:	4502                	lw	a0,0(sp)
    6ed8:	449a                	lw	s1,132(sp)
    6eda:	490a                	lw	s2,128(sp)
    6edc:	59f6                	lw	s3,124(sp)
    6ede:	5a66                	lw	s4,120(sp)
    6ee0:	5ad6                	lw	s5,116(sp)
    6ee2:	5b46                	lw	s6,112(sp)
    6ee4:	5bb6                	lw	s7,108(sp)
    6ee6:	5c26                	lw	s8,104(sp)
    6ee8:	5c96                	lw	s9,100(sp)
    6eea:	5d06                	lw	s10,96(sp)
    6eec:	4df6                	lw	s11,92(sp)
    6eee:	6149                	addi	sp,sp,144
    6ef0:	8082                	ret
    6ef2:	4601                	li	a2,0
    6ef4:	4681                	li	a3,0
    6ef6:	8522                	mv	a0,s0
    6ef8:	85e2                	mv	a1,s8
    6efa:	ce22                	sw	s0,28(sp)
    6efc:	d462                	sw	s8,40(sp)
    6efe:	2e8030ef          	jal	ra,a1e6 <__eqdf2>
    6f02:	e105                	bnez	a0,6f22 <_dtoa_r+0x11c>
    6f04:	5742                	lw	a4,48(sp)
    6f06:	4785                	li	a5,1
    6f08:	c31c                	sw	a5,0(a4)
    6f0a:	00008797          	auipc	a5,0x8
    6f0e:	cb678793          	addi	a5,a5,-842 # ebc0 <asc2_3216+0x17ec>
    6f12:	c03e                	sw	a5,0(sp)
    6f14:	47d2                	lw	a5,20(sp)
    6f16:	dfd5                	beqz	a5,6ed2 <_dtoa_r+0xcc>
    6f18:	00008797          	auipc	a5,0x8
    6f1c:	ca978793          	addi	a5,a5,-855 # ebc1 <asc2_3216+0x17ed>
    6f20:	b77d                	j	6ece <_dtoa_r+0xc8>
    6f22:	00b8                	addi	a4,sp,72
    6f24:	00f4                	addi	a3,sp,76
    6f26:	8662                	mv	a2,s8
    6f28:	85a2                	mv	a1,s0
    6f2a:	8526                	mv	a0,s1
    6f2c:	014c5913          	srli	s2,s8,0x14
    6f30:	6d9010ef          	jal	ra,8e08 <__d2b>
    6f34:	7ff97913          	andi	s2,s2,2047
    6f38:	89aa                	mv	s3,a0
    6f3a:	4aa6                	lw	s5,72(sp)
    6f3c:	10090d63          	beqz	s2,7056 <_dtoa_r+0x250>
    6f40:	57a2                	lw	a5,40(sp)
    6f42:	4572                	lw	a0,28(sp)
    6f44:	c0190913          	addi	s2,s2,-1023
    6f48:	00c79593          	slli	a1,a5,0xc
    6f4c:	81b1                	srli	a1,a1,0xc
    6f4e:	3ff007b7          	lui	a5,0x3ff00
    6f52:	8ddd                	or	a1,a1,a5
    6f54:	dc02                	sw	zero,56(sp)
    6f56:	00008797          	auipc	a5,0x8
    6f5a:	e5278793          	addi	a5,a5,-430 # eda8 <_ctype_+0x108>
    6f5e:	4390                	lw	a2,0(a5)
    6f60:	43d4                	lw	a3,4(a5)
    6f62:	10b030ef          	jal	ra,a86c <__subdf3>
    6f66:	00008797          	auipc	a5,0x8
    6f6a:	e4a78793          	addi	a5,a5,-438 # edb0 <_ctype_+0x110>
    6f6e:	4390                	lw	a2,0(a5)
    6f70:	43d4                	lw	a3,4(a5)
    6f72:	442030ef          	jal	ra,a3b4 <__muldf3>
    6f76:	00008797          	auipc	a5,0x8
    6f7a:	e4278793          	addi	a5,a5,-446 # edb8 <_ctype_+0x118>
    6f7e:	4390                	lw	a2,0(a5)
    6f80:	43d4                	lw	a3,4(a5)
    6f82:	580020ef          	jal	ra,9502 <__adddf3>
    6f86:	8b2a                	mv	s6,a0
    6f88:	854a                	mv	a0,s2
    6f8a:	8bae                	mv	s7,a1
    6f8c:	11e040ef          	jal	ra,b0aa <__floatsidf>
    6f90:	00008797          	auipc	a5,0x8
    6f94:	e3078793          	addi	a5,a5,-464 # edc0 <_ctype_+0x120>
    6f98:	4390                	lw	a2,0(a5)
    6f9a:	43d4                	lw	a3,4(a5)
    6f9c:	418030ef          	jal	ra,a3b4 <__muldf3>
    6fa0:	862a                	mv	a2,a0
    6fa2:	86ae                	mv	a3,a1
    6fa4:	855a                	mv	a0,s6
    6fa6:	85de                	mv	a1,s7
    6fa8:	55a020ef          	jal	ra,9502 <__adddf3>
    6fac:	8b2a                	mv	s6,a0
    6fae:	8bae                	mv	s7,a1
    6fb0:	036040ef          	jal	ra,afe6 <__fixdfsi>
    6fb4:	842a                	mv	s0,a0
    6fb6:	4601                	li	a2,0
    6fb8:	4681                	li	a3,0
    6fba:	855a                	mv	a0,s6
    6fbc:	85de                	mv	a1,s7
    6fbe:	340030ef          	jal	ra,a2fe <__ledf2>
    6fc2:	00055b63          	bgez	a0,6fd8 <_dtoa_r+0x1d2>
    6fc6:	8522                	mv	a0,s0
    6fc8:	0e2040ef          	jal	ra,b0aa <__floatsidf>
    6fcc:	865a                	mv	a2,s6
    6fce:	86de                	mv	a3,s7
    6fd0:	216030ef          	jal	ra,a1e6 <__eqdf2>
    6fd4:	c111                	beqz	a0,6fd8 <_dtoa_r+0x1d2>
    6fd6:	147d                	addi	s0,s0,-1
    6fd8:	4705                	li	a4,1
    6fda:	47d9                	li	a5,22
    6fdc:	d63a                	sw	a4,44(sp)
    6fde:	0287e363          	bltu	a5,s0,7004 <_dtoa_r+0x1fe>
    6fe2:	00341713          	slli	a4,s0,0x3
    6fe6:	00008797          	auipc	a5,0x8
    6fea:	e9278793          	addi	a5,a5,-366 # ee78 <__mprec_tens>
    6fee:	97ba                	add	a5,a5,a4
    6ff0:	4390                	lw	a2,0(a5)
    6ff2:	43d4                	lw	a3,4(a5)
    6ff4:	4572                	lw	a0,28(sp)
    6ff6:	55a2                	lw	a1,40(sp)
    6ff8:	306030ef          	jal	ra,a2fe <__ledf2>
    6ffc:	00055363          	bgez	a0,7002 <_dtoa_r+0x1fc>
    7000:	147d                	addi	s0,s0,-1
    7002:	d602                	sw	zero,44(sp)
    7004:	412a8933          	sub	s2,s5,s2
    7008:	fff90b93          	addi	s7,s2,-1
    700c:	4b01                	li	s6,0
    700e:	000bd663          	bgez	s7,701a <_dtoa_r+0x214>
    7012:	4b05                	li	s6,1
    7014:	412b0b33          	sub	s6,s6,s2
    7018:	4b81                	li	s7,0
    701a:	06044e63          	bltz	s0,7096 <_dtoa_r+0x290>
    701e:	9ba2                	add	s7,s7,s0
    7020:	cc22                	sw	s0,24(sp)
    7022:	4a81                	li	s5,0
    7024:	4712                	lw	a4,4(sp)
    7026:	47a5                	li	a5,9
    7028:	14e7e563          	bltu	a5,a4,7172 <_dtoa_r+0x36c>
    702c:	4795                	li	a5,5
    702e:	4c85                	li	s9,1
    7030:	00e7d663          	bge	a5,a4,703c <_dtoa_r+0x236>
    7034:	ffc70793          	addi	a5,a4,-4 # ffffc <_data_lma+0xf0f18>
    7038:	c23e                	sw	a5,4(sp)
    703a:	4c81                	li	s9,0
    703c:	4712                	lw	a4,4(sp)
    703e:	478d                	li	a5,3
    7040:	10f70e63          	beq	a4,a5,715c <_dtoa_r+0x356>
    7044:	04e7cf63          	blt	a5,a4,70a2 <_dtoa_r+0x29c>
    7048:	4789                	li	a5,2
    704a:	c802                	sw	zero,16(sp)
    704c:	06f70d63          	beq	a4,a5,70c6 <_dtoa_r+0x2c0>
    7050:	4785                	li	a5,1
    7052:	c83e                	sw	a5,16(sp)
    7054:	a08d                	j	70b6 <_dtoa_r+0x2b0>
    7056:	4936                	lw	s2,76(sp)
    7058:	02000793          	li	a5,32
    705c:	9956                	add	s2,s2,s5
    705e:	43290713          	addi	a4,s2,1074
    7062:	02e7d563          	bge	a5,a4,708c <_dtoa_r+0x286>
    7066:	04000513          	li	a0,64
    706a:	8d19                	sub	a0,a0,a4
    706c:	41290793          	addi	a5,s2,1042
    7070:	00ac1533          	sll	a0,s8,a0
    7074:	00f45433          	srl	s0,s0,a5
    7078:	8d41                	or	a0,a0,s0
    707a:	0a0040ef          	jal	ra,b11a <__floatunsidf>
    707e:	fe1007b7          	lui	a5,0xfe100
    7082:	95be                	add	a1,a1,a5
    7084:	4785                	li	a5,1
    7086:	197d                	addi	s2,s2,-1
    7088:	dc3e                	sw	a5,56(sp)
    708a:	b5f1                	j	6f56 <_dtoa_r+0x150>
    708c:	40e78533          	sub	a0,a5,a4
    7090:	00a41533          	sll	a0,s0,a0
    7094:	b7dd                	j	707a <_dtoa_r+0x274>
    7096:	408b0b33          	sub	s6,s6,s0
    709a:	40800ab3          	neg	s5,s0
    709e:	cc02                	sw	zero,24(sp)
    70a0:	b751                	j	7024 <_dtoa_r+0x21e>
    70a2:	4712                	lw	a4,4(sp)
    70a4:	4791                	li	a5,4
    70a6:	00f70e63          	beq	a4,a5,70c2 <_dtoa_r+0x2bc>
    70aa:	4705                	li	a4,1
    70ac:	c83a                	sw	a4,16(sp)
    70ae:	4712                	lw	a4,4(sp)
    70b0:	4795                	li	a5,5
    70b2:	0af70663          	beq	a4,a5,715e <_dtoa_r+0x358>
    70b6:	57fd                	li	a5,-1
    70b8:	c43e                	sw	a5,8(sp)
    70ba:	5dfd                	li	s11,-1
    70bc:	47c9                	li	a5,18
    70be:	c602                	sw	zero,12(sp)
    70c0:	a819                	j	70d6 <_dtoa_r+0x2d0>
    70c2:	4785                	li	a5,1
    70c4:	c83e                	sw	a5,16(sp)
    70c6:	47b2                	lw	a5,12(sp)
    70c8:	0af04863          	bgtz	a5,7178 <_dtoa_r+0x372>
    70cc:	4785                	li	a5,1
    70ce:	4705                	li	a4,1
    70d0:	c43e                	sw	a5,8(sp)
    70d2:	4d85                	li	s11,1
    70d4:	c63a                	sw	a4,12(sp)
    70d6:	0244a903          	lw	s2,36(s1)
    70da:	4711                	li	a4,4
    70dc:	00092223          	sw	zero,4(s2)
    70e0:	01470693          	addi	a3,a4,20
    70e4:	00492583          	lw	a1,4(s2)
    70e8:	08d7fc63          	bgeu	a5,a3,7180 <_dtoa_r+0x37a>
    70ec:	8526                	mv	a0,s1
    70ee:	554010ef          	jal	ra,8642 <_Balloc>
    70f2:	50dc                	lw	a5,36(s1)
    70f4:	00a92023          	sw	a0,0(s2)
    70f8:	439c                	lw	a5,0(a5)
    70fa:	c03e                	sw	a5,0(sp)
    70fc:	47b9                	li	a5,14
    70fe:	1db7e663          	bltu	a5,s11,72ca <_dtoa_r+0x4c4>
    7102:	1c0c8463          	beqz	s9,72ca <_dtoa_r+0x4c4>
    7106:	0a805e63          	blez	s0,71c2 <_dtoa_r+0x3bc>
    710a:	00f47793          	andi	a5,s0,15
    710e:	00379713          	slli	a4,a5,0x3
    7112:	40445c93          	srai	s9,s0,0x4
    7116:	00008797          	auipc	a5,0x8
    711a:	d6278793          	addi	a5,a5,-670 # ee78 <__mprec_tens>
    711e:	97ba                	add	a5,a5,a4
    7120:	010cf693          	andi	a3,s9,16
    7124:	4398                	lw	a4,0(a5)
    7126:	4909                	li	s2,2
    7128:	43dc                	lw	a5,4(a5)
    712a:	c685                	beqz	a3,7152 <_dtoa_r+0x34c>
    712c:	00008697          	auipc	a3,0x8
    7130:	d2468693          	addi	a3,a3,-732 # ee50 <__mprec_bigtens>
    7134:	5290                	lw	a2,32(a3)
    7136:	4572                	lw	a0,28(sp)
    7138:	52d4                	lw	a3,36(a3)
    713a:	55a2                	lw	a1,40(sp)
    713c:	d03a                	sw	a4,32(sp)
    713e:	d23e                	sw	a5,36(sp)
    7140:	2f3020ef          	jal	ra,9c32 <__divdf3>
    7144:	5702                	lw	a4,32(sp)
    7146:	5792                	lw	a5,36(sp)
    7148:	00fcfc93          	andi	s9,s9,15
    714c:	8a2a                	mv	s4,a0
    714e:	8c2e                	mv	s8,a1
    7150:	490d                	li	s2,3
    7152:	00008d17          	auipc	s10,0x8
    7156:	cfed0d13          	addi	s10,s10,-770 # ee50 <__mprec_bigtens>
    715a:	a889                	j	71ac <_dtoa_r+0x3a6>
    715c:	c802                	sw	zero,16(sp)
    715e:	47b2                	lw	a5,12(sp)
    7160:	97a2                	add	a5,a5,s0
    7162:	c43e                	sw	a5,8(sp)
    7164:	00178d93          	addi	s11,a5,1
    7168:	87ee                	mv	a5,s11
    716a:	f7b046e3          	bgtz	s11,70d6 <_dtoa_r+0x2d0>
    716e:	4785                	li	a5,1
    7170:	b79d                	j	70d6 <_dtoa_r+0x2d0>
    7172:	4c85                	li	s9,1
    7174:	c202                	sw	zero,4(sp)
    7176:	bde9                	j	7050 <_dtoa_r+0x24a>
    7178:	47b2                	lw	a5,12(sp)
    717a:	c43e                	sw	a5,8(sp)
    717c:	8dbe                	mv	s11,a5
    717e:	bfa1                	j	70d6 <_dtoa_r+0x2d0>
    7180:	0585                	addi	a1,a1,1
    7182:	00b92223          	sw	a1,4(s2)
    7186:	0706                	slli	a4,a4,0x1
    7188:	bfa1                	j	70e0 <_dtoa_r+0x2da>
    718a:	001cf693          	andi	a3,s9,1
    718e:	ce81                	beqz	a3,71a6 <_dtoa_r+0x3a0>
    7190:	000d2603          	lw	a2,0(s10)
    7194:	004d2683          	lw	a3,4(s10)
    7198:	853a                	mv	a0,a4
    719a:	85be                	mv	a1,a5
    719c:	218030ef          	jal	ra,a3b4 <__muldf3>
    71a0:	0905                	addi	s2,s2,1
    71a2:	872a                	mv	a4,a0
    71a4:	87ae                	mv	a5,a1
    71a6:	401cdc93          	srai	s9,s9,0x1
    71aa:	0d21                	addi	s10,s10,8
    71ac:	fc0c9fe3          	bnez	s9,718a <_dtoa_r+0x384>
    71b0:	863a                	mv	a2,a4
    71b2:	86be                	mv	a3,a5
    71b4:	8552                	mv	a0,s4
    71b6:	85e2                	mv	a1,s8
    71b8:	27b020ef          	jal	ra,9c32 <__divdf3>
    71bc:	8a2a                	mv	s4,a0
    71be:	8c2e                	mv	s8,a1
    71c0:	a081                	j	7200 <_dtoa_r+0x3fa>
    71c2:	4909                	li	s2,2
    71c4:	cc15                	beqz	s0,7200 <_dtoa_r+0x3fa>
    71c6:	40800cb3          	neg	s9,s0
    71ca:	00fcf793          	andi	a5,s9,15
    71ce:	00379713          	slli	a4,a5,0x3
    71d2:	00008797          	auipc	a5,0x8
    71d6:	ca678793          	addi	a5,a5,-858 # ee78 <__mprec_tens>
    71da:	97ba                	add	a5,a5,a4
    71dc:	4390                	lw	a2,0(a5)
    71de:	43d4                	lw	a3,4(a5)
    71e0:	4572                	lw	a0,28(sp)
    71e2:	55a2                	lw	a1,40(sp)
    71e4:	404cdc93          	srai	s9,s9,0x4
    71e8:	00008d17          	auipc	s10,0x8
    71ec:	c68d0d13          	addi	s10,s10,-920 # ee50 <__mprec_bigtens>
    71f0:	1c4030ef          	jal	ra,a3b4 <__muldf3>
    71f4:	8a2a                	mv	s4,a0
    71f6:	8c2e                	mv	s8,a1
    71f8:	4781                	li	a5,0
    71fa:	120c9b63          	bnez	s9,7330 <_dtoa_r+0x52a>
    71fe:	ffdd                	bnez	a5,71bc <_dtoa_r+0x3b6>
    7200:	57b2                	lw	a5,44(sp)
    7202:	14078663          	beqz	a5,734e <_dtoa_r+0x548>
    7206:	00008717          	auipc	a4,0x8
    720a:	a0270713          	addi	a4,a4,-1534 # ec08 <asc2_3216+0x1834>
    720e:	4310                	lw	a2,0(a4)
    7210:	4354                	lw	a3,4(a4)
    7212:	8552                	mv	a0,s4
    7214:	85e2                	mv	a1,s8
    7216:	d052                	sw	s4,32(sp)
    7218:	0e6030ef          	jal	ra,a2fe <__ledf2>
    721c:	12055963          	bgez	a0,734e <_dtoa_r+0x548>
    7220:	120d8a63          	beqz	s11,7354 <_dtoa_r+0x54e>
    7224:	47a2                	lw	a5,8(sp)
    7226:	0af05063          	blez	a5,72c6 <_dtoa_r+0x4c0>
    722a:	00008717          	auipc	a4,0x8
    722e:	b9e70713          	addi	a4,a4,-1122 # edc8 <_ctype_+0x128>
    7232:	5782                	lw	a5,32(sp)
    7234:	4310                	lw	a2,0(a4)
    7236:	4354                	lw	a3,4(a4)
    7238:	853e                	mv	a0,a5
    723a:	85e2                	mv	a1,s8
    723c:	178030ef          	jal	ra,a3b4 <__muldf3>
    7240:	47a2                	lw	a5,8(sp)
    7242:	fff40d13          	addi	s10,s0,-1
    7246:	8a2a                	mv	s4,a0
    7248:	8c2e                	mv	s8,a1
    724a:	0905                	addi	s2,s2,1
    724c:	8762                	mv	a4,s8
    724e:	854a                	mv	a0,s2
    7250:	de3e                	sw	a5,60(sp)
    7252:	da52                	sw	s4,52(sp)
    7254:	8cba                	mv	s9,a4
    7256:	d03a                	sw	a4,32(sp)
    7258:	653030ef          	jal	ra,b0aa <__floatsidf>
    725c:	5852                	lw	a6,52(sp)
    725e:	5702                	lw	a4,32(sp)
    7260:	fcc00937          	lui	s2,0xfcc00
    7264:	8642                	mv	a2,a6
    7266:	86ba                	mv	a3,a4
    7268:	14c030ef          	jal	ra,a3b4 <__muldf3>
    726c:	00008697          	auipc	a3,0x8
    7270:	b6468693          	addi	a3,a3,-1180 # edd0 <_ctype_+0x130>
    7274:	4290                	lw	a2,0(a3)
    7276:	42d4                	lw	a3,4(a3)
    7278:	8c52                	mv	s8,s4
    727a:	288020ef          	jal	ra,9502 <__adddf3>
    727e:	57f2                	lw	a5,60(sp)
    7280:	8a2a                	mv	s4,a0
    7282:	992e                	add	s2,s2,a1
    7284:	ebf9                	bnez	a5,735a <_dtoa_r+0x554>
    7286:	00008797          	auipc	a5,0x8
    728a:	b5278793          	addi	a5,a5,-1198 # edd8 <_ctype_+0x138>
    728e:	5852                	lw	a6,52(sp)
    7290:	5702                	lw	a4,32(sp)
    7292:	4390                	lw	a2,0(a5)
    7294:	43d4                	lw	a3,4(a5)
    7296:	8542                	mv	a0,a6
    7298:	85ba                	mv	a1,a4
    729a:	5d2030ef          	jal	ra,a86c <__subdf3>
    729e:	8652                	mv	a2,s4
    72a0:	86ca                	mv	a3,s2
    72a2:	8c2a                	mv	s8,a0
    72a4:	8cae                	mv	s9,a1
    72a6:	7ab020ef          	jal	ra,a250 <__gedf2>
    72aa:	54a04663          	bgtz	a0,77f6 <_dtoa_r+0x9f0>
    72ae:	800007b7          	lui	a5,0x80000
    72b2:	0127c7b3          	xor	a5,a5,s2
    72b6:	8652                	mv	a2,s4
    72b8:	86be                	mv	a3,a5
    72ba:	8562                	mv	a0,s8
    72bc:	85e6                	mv	a1,s9
    72be:	040030ef          	jal	ra,a2fe <__ledf2>
    72c2:	52054763          	bltz	a0,77f0 <_dtoa_r+0x9ea>
    72c6:	4a72                	lw	s4,28(sp)
    72c8:	5c22                	lw	s8,40(sp)
    72ca:	47b6                	lw	a5,76(sp)
    72cc:	3007c363          	bltz	a5,75d2 <_dtoa_r+0x7cc>
    72d0:	4739                	li	a4,14
    72d2:	30874063          	blt	a4,s0,75d2 <_dtoa_r+0x7cc>
    72d6:	00341713          	slli	a4,s0,0x3
    72da:	00008797          	auipc	a5,0x8
    72de:	b9e78793          	addi	a5,a5,-1122 # ee78 <__mprec_tens>
    72e2:	97ba                	add	a5,a5,a4
    72e4:	0007ab03          	lw	s6,0(a5)
    72e8:	0047ab83          	lw	s7,4(a5)
    72ec:	47b2                	lw	a5,12(sp)
    72ee:	2007d163          	bgez	a5,74f0 <_dtoa_r+0x6ea>
    72f2:	1fb04f63          	bgtz	s11,74f0 <_dtoa_r+0x6ea>
    72f6:	4e0d9d63          	bnez	s11,77f0 <_dtoa_r+0x9ea>
    72fa:	00008797          	auipc	a5,0x8
    72fe:	ade78793          	addi	a5,a5,-1314 # edd8 <_ctype_+0x138>
    7302:	4390                	lw	a2,0(a5)
    7304:	43d4                	lw	a3,4(a5)
    7306:	855a                	mv	a0,s6
    7308:	85de                	mv	a1,s7
    730a:	0aa030ef          	jal	ra,a3b4 <__muldf3>
    730e:	8652                	mv	a2,s4
    7310:	86e2                	mv	a3,s8
    7312:	73f020ef          	jal	ra,a250 <__gedf2>
    7316:	4a81                	li	s5,0
    7318:	4901                	li	s2,0
    731a:	4a055363          	bgez	a0,77c0 <_dtoa_r+0x9ba>
    731e:	4782                	lw	a5,0(sp)
    7320:	4702                	lw	a4,0(sp)
    7322:	0405                	addi	s0,s0,1
    7324:	00178a13          	addi	s4,a5,1
    7328:	03100793          	li	a5,49
    732c:	a31c                	sb	a5,0(a4)
    732e:	a969                	j	77c8 <_dtoa_r+0x9c2>
    7330:	001cf713          	andi	a4,s9,1
    7334:	cb09                	beqz	a4,7346 <_dtoa_r+0x540>
    7336:	000d2603          	lw	a2,0(s10)
    733a:	004d2683          	lw	a3,4(s10)
    733e:	0905                	addi	s2,s2,1
    7340:	074030ef          	jal	ra,a3b4 <__muldf3>
    7344:	4785                	li	a5,1
    7346:	401cdc93          	srai	s9,s9,0x1
    734a:	0d21                	addi	s10,s10,8
    734c:	b57d                	j	71fa <_dtoa_r+0x3f4>
    734e:	8d22                	mv	s10,s0
    7350:	87ee                	mv	a5,s11
    7352:	bded                	j	724c <_dtoa_r+0x446>
    7354:	8d22                	mv	s10,s0
    7356:	4781                	li	a5,0
    7358:	bdd5                	j	724c <_dtoa_r+0x446>
    735a:	fff78693          	addi	a3,a5,-1
    735e:	00369613          	slli	a2,a3,0x3
    7362:	00008697          	auipc	a3,0x8
    7366:	b1668693          	addi	a3,a3,-1258 # ee78 <__mprec_tens>
    736a:	96b2                	add	a3,a3,a2
    736c:	4288                	lw	a0,0(a3)
    736e:	42cc                	lw	a1,4(a3)
    7370:	4682                	lw	a3,0(sp)
    7372:	97b6                	add	a5,a5,a3
    7374:	da3e                	sw	a5,52(sp)
    7376:	47c2                	lw	a5,16(sp)
    7378:	c3e9                	beqz	a5,743a <_dtoa_r+0x634>
    737a:	00008797          	auipc	a5,0x8
    737e:	88678793          	addi	a5,a5,-1914 # ec00 <asc2_3216+0x182c>
    7382:	862a                	mv	a2,a0
    7384:	86ae                	mv	a3,a1
    7386:	4388                	lw	a0,0(a5)
    7388:	43cc                	lw	a1,4(a5)
    738a:	de4a                	sw	s2,60(sp)
    738c:	d052                	sw	s4,32(sp)
    738e:	0a5020ef          	jal	ra,9c32 <__divdf3>
    7392:	5802                	lw	a6,32(sp)
    7394:	5772                	lw	a4,60(sp)
    7396:	00008917          	auipc	s2,0x8
    739a:	a3290913          	addi	s2,s2,-1486 # edc8 <_ctype_+0x128>
    739e:	8642                	mv	a2,a6
    73a0:	86ba                	mv	a3,a4
    73a2:	4ca030ef          	jal	ra,a86c <__subdf3>
    73a6:	4a02                	lw	s4,0(sp)
    73a8:	d02a                	sw	a0,32(sp)
    73aa:	d22e                	sw	a1,36(sp)
    73ac:	85e6                	mv	a1,s9
    73ae:	8562                	mv	a0,s8
    73b0:	437030ef          	jal	ra,afe6 <__fixdfsi>
    73b4:	de2a                	sw	a0,60(sp)
    73b6:	4f5030ef          	jal	ra,b0aa <__floatsidf>
    73ba:	862a                	mv	a2,a0
    73bc:	86ae                	mv	a3,a1
    73be:	8562                	mv	a0,s8
    73c0:	85e6                	mv	a1,s9
    73c2:	4aa030ef          	jal	ra,a86c <__subdf3>
    73c6:	57f2                	lw	a5,60(sp)
    73c8:	8c2a                	mv	s8,a0
    73ca:	8cae                	mv	s9,a1
    73cc:	862a                	mv	a2,a0
    73ce:	86ae                	mv	a3,a1
    73d0:	5502                	lw	a0,32(sp)
    73d2:	5592                	lw	a1,36(sp)
    73d4:	0a05                	addi	s4,s4,1
    73d6:	03078793          	addi	a5,a5,48
    73da:	fefa0fa3          	sb	a5,-1(s4)
    73de:	673020ef          	jal	ra,a250 <__gedf2>
    73e2:	0ea04863          	bgtz	a0,74d2 <_dtoa_r+0x6cc>
    73e6:	00008797          	auipc	a5,0x8
    73ea:	82278793          	addi	a5,a5,-2014 # ec08 <asc2_3216+0x1834>
    73ee:	4388                	lw	a0,0(a5)
    73f0:	43cc                	lw	a1,4(a5)
    73f2:	8662                	mv	a2,s8
    73f4:	86e6                	mv	a3,s9
    73f6:	476030ef          	jal	ra,a86c <__subdf3>
    73fa:	862a                	mv	a2,a0
    73fc:	86ae                	mv	a3,a1
    73fe:	5502                	lw	a0,32(sp)
    7400:	5592                	lw	a1,36(sp)
    7402:	64f020ef          	jal	ra,a250 <__gedf2>
    7406:	18a04263          	bgtz	a0,758a <_dtoa_r+0x784>
    740a:	57d2                	lw	a5,52(sp)
    740c:	eafa0de3          	beq	s4,a5,72c6 <_dtoa_r+0x4c0>
    7410:	00092603          	lw	a2,0(s2)
    7414:	00492683          	lw	a3,4(s2)
    7418:	5502                	lw	a0,32(sp)
    741a:	5592                	lw	a1,36(sp)
    741c:	799020ef          	jal	ra,a3b4 <__muldf3>
    7420:	00092603          	lw	a2,0(s2)
    7424:	00492683          	lw	a3,4(s2)
    7428:	d02a                	sw	a0,32(sp)
    742a:	d22e                	sw	a1,36(sp)
    742c:	8562                	mv	a0,s8
    742e:	85e6                	mv	a1,s9
    7430:	785020ef          	jal	ra,a3b4 <__muldf3>
    7434:	8c2a                	mv	s8,a0
    7436:	8cae                	mv	s9,a1
    7438:	bf95                	j	73ac <_dtoa_r+0x5a6>
    743a:	8652                	mv	a2,s4
    743c:	86ca                	mv	a3,s2
    743e:	777020ef          	jal	ra,a3b4 <__muldf3>
    7442:	5a52                	lw	s4,52(sp)
    7444:	4902                	lw	s2,0(sp)
    7446:	d02a                	sw	a0,32(sp)
    7448:	d22e                	sw	a1,36(sp)
    744a:	85e6                	mv	a1,s9
    744c:	8562                	mv	a0,s8
    744e:	399030ef          	jal	ra,afe6 <__fixdfsi>
    7452:	de2a                	sw	a0,60(sp)
    7454:	457030ef          	jal	ra,b0aa <__floatsidf>
    7458:	862a                	mv	a2,a0
    745a:	86ae                	mv	a3,a1
    745c:	8562                	mv	a0,s8
    745e:	85e6                	mv	a1,s9
    7460:	40c030ef          	jal	ra,a86c <__subdf3>
    7464:	5772                	lw	a4,60(sp)
    7466:	57d2                	lw	a5,52(sp)
    7468:	0905                	addi	s2,s2,1
    746a:	03070713          	addi	a4,a4,48
    746e:	fee90fa3          	sb	a4,-1(s2)
    7472:	8c2a                	mv	s8,a0
    7474:	8cae                	mv	s9,a1
    7476:	06f91263          	bne	s2,a5,74da <_dtoa_r+0x6d4>
    747a:	00007917          	auipc	s2,0x7
    747e:	78690913          	addi	s2,s2,1926 # ec00 <asc2_3216+0x182c>
    7482:	00092603          	lw	a2,0(s2)
    7486:	00492683          	lw	a3,4(s2)
    748a:	5502                	lw	a0,32(sp)
    748c:	5592                	lw	a1,36(sp)
    748e:	074020ef          	jal	ra,9502 <__adddf3>
    7492:	862a                	mv	a2,a0
    7494:	86ae                	mv	a3,a1
    7496:	8562                	mv	a0,s8
    7498:	85e6                	mv	a1,s9
    749a:	5b7020ef          	jal	ra,a250 <__gedf2>
    749e:	0ea04663          	bgtz	a0,758a <_dtoa_r+0x784>
    74a2:	5602                	lw	a2,32(sp)
    74a4:	5692                	lw	a3,36(sp)
    74a6:	00092503          	lw	a0,0(s2)
    74aa:	00492583          	lw	a1,4(s2)
    74ae:	3be030ef          	jal	ra,a86c <__subdf3>
    74b2:	862a                	mv	a2,a0
    74b4:	86ae                	mv	a3,a1
    74b6:	8562                	mv	a0,s8
    74b8:	85e6                	mv	a1,s9
    74ba:	645020ef          	jal	ra,a2fe <__ledf2>
    74be:	03000793          	li	a5,48
    74c2:	e00552e3          	bgez	a0,72c6 <_dtoa_r+0x4c0>
    74c6:	fffa4703          	lbu	a4,-1(s4)
    74ca:	fffa0693          	addi	a3,s4,-1
    74ce:	00f70463          	beq	a4,a5,74d6 <_dtoa_r+0x6d0>
    74d2:	846a                	mv	s0,s10
    74d4:	a859                	j	756a <_dtoa_r+0x764>
    74d6:	8a36                	mv	s4,a3
    74d8:	b7fd                	j	74c6 <_dtoa_r+0x6c0>
    74da:	00008797          	auipc	a5,0x8
    74de:	8ee78793          	addi	a5,a5,-1810 # edc8 <_ctype_+0x128>
    74e2:	4390                	lw	a2,0(a5)
    74e4:	43d4                	lw	a3,4(a5)
    74e6:	6cf020ef          	jal	ra,a3b4 <__muldf3>
    74ea:	8c2a                	mv	s8,a0
    74ec:	8cae                	mv	s9,a1
    74ee:	bfb1                	j	744a <_dtoa_r+0x644>
    74f0:	87e2                	mv	a5,s8
    74f2:	8cbe                	mv	s9,a5
    74f4:	4782                	lw	a5,0(sp)
    74f6:	8c52                	mv	s8,s4
    74f8:	00008a97          	auipc	s5,0x8
    74fc:	8d0a8a93          	addi	s5,s5,-1840 # edc8 <_ctype_+0x128>
    7500:	00178913          	addi	s2,a5,1
    7504:	9dbe                	add	s11,s11,a5
    7506:	865a                	mv	a2,s6
    7508:	86de                	mv	a3,s7
    750a:	8562                	mv	a0,s8
    750c:	85e6                	mv	a1,s9
    750e:	724020ef          	jal	ra,9c32 <__divdf3>
    7512:	2d5030ef          	jal	ra,afe6 <__fixdfsi>
    7516:	8d2a                	mv	s10,a0
    7518:	393030ef          	jal	ra,b0aa <__floatsidf>
    751c:	865a                	mv	a2,s6
    751e:	86de                	mv	a3,s7
    7520:	695020ef          	jal	ra,a3b4 <__muldf3>
    7524:	862a                	mv	a2,a0
    7526:	86ae                	mv	a3,a1
    7528:	8562                	mv	a0,s8
    752a:	85e6                	mv	a1,s9
    752c:	340030ef          	jal	ra,a86c <__subdf3>
    7530:	030d0793          	addi	a5,s10,48
    7534:	fef90fa3          	sb	a5,-1(s2)
    7538:	862a                	mv	a2,a0
    753a:	86ae                	mv	a3,a1
    753c:	8a4a                	mv	s4,s2
    753e:	072d9b63          	bne	s11,s2,75b4 <_dtoa_r+0x7ae>
    7542:	7c1010ef          	jal	ra,9502 <__adddf3>
    7546:	865a                	mv	a2,s6
    7548:	86de                	mv	a3,s7
    754a:	8c2a                	mv	s8,a0
    754c:	8cae                	mv	s9,a1
    754e:	503020ef          	jal	ra,a250 <__gedf2>
    7552:	02a04b63          	bgtz	a0,7588 <_dtoa_r+0x782>
    7556:	865a                	mv	a2,s6
    7558:	86de                	mv	a3,s7
    755a:	8562                	mv	a0,s8
    755c:	85e6                	mv	a1,s9
    755e:	489020ef          	jal	ra,a1e6 <__eqdf2>
    7562:	e501                	bnez	a0,756a <_dtoa_r+0x764>
    7564:	001d7793          	andi	a5,s10,1
    7568:	e385                	bnez	a5,7588 <_dtoa_r+0x782>
    756a:	85ce                	mv	a1,s3
    756c:	8526                	mv	a0,s1
    756e:	160010ef          	jal	ra,86ce <_Bfree>
    7572:	57c2                	lw	a5,48(sp)
    7574:	000a0023          	sb	zero,0(s4)
    7578:	0405                	addi	s0,s0,1
    757a:	c380                	sw	s0,0(a5)
    757c:	47d2                	lw	a5,20(sp)
    757e:	94078ae3          	beqz	a5,6ed2 <_dtoa_r+0xcc>
    7582:	0147a023          	sw	s4,0(a5)
    7586:	b2b1                	j	6ed2 <_dtoa_r+0xcc>
    7588:	8d22                	mv	s10,s0
    758a:	03900713          	li	a4,57
    758e:	fffa4683          	lbu	a3,-1(s4)
    7592:	fffa0793          	addi	a5,s4,-1
    7596:	00e69963          	bne	a3,a4,75a8 <_dtoa_r+0x7a2>
    759a:	4682                	lw	a3,0(sp)
    759c:	00f69a63          	bne	a3,a5,75b0 <_dtoa_r+0x7aa>
    75a0:	03000713          	li	a4,48
    75a4:	0d05                	addi	s10,s10,1
    75a6:	a298                	sb	a4,0(a3)
    75a8:	2398                	lbu	a4,0(a5)
    75aa:	0705                	addi	a4,a4,1
    75ac:	a398                	sb	a4,0(a5)
    75ae:	b715                	j	74d2 <_dtoa_r+0x6cc>
    75b0:	8a3e                	mv	s4,a5
    75b2:	bff1                	j	758e <_dtoa_r+0x788>
    75b4:	000aa603          	lw	a2,0(s5)
    75b8:	004aa683          	lw	a3,4(s5)
    75bc:	0905                	addi	s2,s2,1
    75be:	5f7020ef          	jal	ra,a3b4 <__muldf3>
    75c2:	4601                	li	a2,0
    75c4:	4681                	li	a3,0
    75c6:	8c2a                	mv	s8,a0
    75c8:	8cae                	mv	s9,a1
    75ca:	41d020ef          	jal	ra,a1e6 <__eqdf2>
    75ce:	fd05                	bnez	a0,7506 <_dtoa_r+0x700>
    75d0:	bf69                	j	756a <_dtoa_r+0x764>
    75d2:	4742                	lw	a4,16(sp)
    75d4:	10070063          	beqz	a4,76d4 <_dtoa_r+0x8ce>
    75d8:	4692                	lw	a3,4(sp)
    75da:	4705                	li	a4,1
    75dc:	0cd74563          	blt	a4,a3,76a6 <_dtoa_r+0x8a0>
    75e0:	5762                	lw	a4,56(sp)
    75e2:	43378793          	addi	a5,a5,1075
    75e6:	e709                	bnez	a4,75f0 <_dtoa_r+0x7ea>
    75e8:	4726                	lw	a4,72(sp)
    75ea:	03600793          	li	a5,54
    75ee:	8f99                	sub	a5,a5,a4
    75f0:	8d56                	mv	s10,s5
    75f2:	8cda                	mv	s9,s6
    75f4:	4585                	li	a1,1
    75f6:	8526                	mv	a0,s1
    75f8:	9b3e                	add	s6,s6,a5
    75fa:	9bbe                	add	s7,s7,a5
    75fc:	302010ef          	jal	ra,88fe <__i2b>
    7600:	892a                	mv	s2,a0
    7602:	01905e63          	blez	s9,761e <_dtoa_r+0x818>
    7606:	01705c63          	blez	s7,761e <_dtoa_r+0x818>
    760a:	87e6                	mv	a5,s9
    760c:	019bd363          	bge	s7,s9,7612 <_dtoa_r+0x80c>
    7610:	87de                	mv	a5,s7
    7612:	40fb0b33          	sub	s6,s6,a5
    7616:	40fc8cb3          	sub	s9,s9,a5
    761a:	40fb8bb3          	sub	s7,s7,a5
    761e:	040a8063          	beqz	s5,765e <_dtoa_r+0x858>
    7622:	47c2                	lw	a5,16(sp)
    7624:	cfc5                	beqz	a5,76dc <_dtoa_r+0x8d6>
    7626:	03a05463          	blez	s10,764e <_dtoa_r+0x848>
    762a:	85ca                	mv	a1,s2
    762c:	866a                	mv	a2,s10
    762e:	8526                	mv	a0,s1
    7630:	42e010ef          	jal	ra,8a5e <__pow5mult>
    7634:	864e                	mv	a2,s3
    7636:	85aa                	mv	a1,a0
    7638:	892a                	mv	s2,a0
    763a:	8526                	mv	a0,s1
    763c:	2de010ef          	jal	ra,891a <__multiply>
    7640:	ce2a                	sw	a0,28(sp)
    7642:	85ce                	mv	a1,s3
    7644:	8526                	mv	a0,s1
    7646:	088010ef          	jal	ra,86ce <_Bfree>
    764a:	47f2                	lw	a5,28(sp)
    764c:	89be                	mv	s3,a5
    764e:	41aa8633          	sub	a2,s5,s10
    7652:	c611                	beqz	a2,765e <_dtoa_r+0x858>
    7654:	85ce                	mv	a1,s3
    7656:	8526                	mv	a0,s1
    7658:	406010ef          	jal	ra,8a5e <__pow5mult>
    765c:	89aa                	mv	s3,a0
    765e:	4585                	li	a1,1
    7660:	8526                	mv	a0,s1
    7662:	29c010ef          	jal	ra,88fe <__i2b>
    7666:	47e2                	lw	a5,24(sp)
    7668:	8aaa                	mv	s5,a0
    766a:	06f05b63          	blez	a5,76e0 <_dtoa_r+0x8da>
    766e:	863e                	mv	a2,a5
    7670:	85aa                	mv	a1,a0
    7672:	8526                	mv	a0,s1
    7674:	3ea010ef          	jal	ra,8a5e <__pow5mult>
    7678:	4712                	lw	a4,4(sp)
    767a:	4785                	li	a5,1
    767c:	8aaa                	mv	s5,a0
    767e:	4d01                	li	s10,0
    7680:	06e7c863          	blt	a5,a4,76f0 <_dtoa_r+0x8ea>
    7684:	4d01                	li	s10,0
    7686:	060a1263          	bnez	s4,76ea <_dtoa_r+0x8e4>
    768a:	00cc1793          	slli	a5,s8,0xc
    768e:	8d52                	mv	s10,s4
    7690:	efa9                	bnez	a5,76ea <_dtoa_r+0x8e4>
    7692:	7ff005b7          	lui	a1,0x7ff00
    7696:	00bc7c33          	and	s8,s8,a1
    769a:	040c0863          	beqz	s8,76ea <_dtoa_r+0x8e4>
    769e:	0b05                	addi	s6,s6,1
    76a0:	0b85                	addi	s7,s7,1
    76a2:	4d05                	li	s10,1
    76a4:	a099                	j	76ea <_dtoa_r+0x8e4>
    76a6:	fffd8d13          	addi	s10,s11,-1
    76aa:	01aaca63          	blt	s5,s10,76be <_dtoa_r+0x8b8>
    76ae:	41aa8d33          	sub	s10,s5,s10
    76b2:	000dde63          	bgez	s11,76ce <_dtoa_r+0x8c8>
    76b6:	41bb0cb3          	sub	s9,s6,s11
    76ba:	4781                	li	a5,0
    76bc:	bf25                	j	75f4 <_dtoa_r+0x7ee>
    76be:	47e2                	lw	a5,24(sp)
    76c0:	415d0ab3          	sub	s5,s10,s5
    76c4:	97d6                	add	a5,a5,s5
    76c6:	cc3e                	sw	a5,24(sp)
    76c8:	8aea                	mv	s5,s10
    76ca:	4d01                	li	s10,0
    76cc:	b7dd                	j	76b2 <_dtoa_r+0x8ac>
    76ce:	8cda                	mv	s9,s6
    76d0:	87ee                	mv	a5,s11
    76d2:	b70d                	j	75f4 <_dtoa_r+0x7ee>
    76d4:	8d56                	mv	s10,s5
    76d6:	8cda                	mv	s9,s6
    76d8:	4901                	li	s2,0
    76da:	b725                	j	7602 <_dtoa_r+0x7fc>
    76dc:	8656                	mv	a2,s5
    76de:	bf9d                	j	7654 <_dtoa_r+0x84e>
    76e0:	4712                	lw	a4,4(sp)
    76e2:	4785                	li	a5,1
    76e4:	4d01                	li	s10,0
    76e6:	f8e7dfe3          	bge	a5,a4,7684 <_dtoa_r+0x87e>
    76ea:	47e2                	lw	a5,24(sp)
    76ec:	4505                	li	a0,1
    76ee:	cf89                	beqz	a5,7708 <_dtoa_r+0x902>
    76f0:	010aa783          	lw	a5,16(s5)
    76f4:	078d                	addi	a5,a5,3
    76f6:	078a                	slli	a5,a5,0x2
    76f8:	97d6                	add	a5,a5,s5
    76fa:	43c8                	lw	a0,4(a5)
    76fc:	152010ef          	jal	ra,884e <__hi0bits>
    7700:	02000793          	li	a5,32
    7704:	40a78533          	sub	a0,a5,a0
    7708:	955e                	add	a0,a0,s7
    770a:	897d                	andi	a0,a0,31
    770c:	c151                	beqz	a0,7790 <_dtoa_r+0x98a>
    770e:	02000793          	li	a5,32
    7712:	8f89                	sub	a5,a5,a0
    7714:	4711                	li	a4,4
    7716:	06f75a63          	bge	a4,a5,778a <_dtoa_r+0x984>
    771a:	47f1                	li	a5,28
    771c:	40a78533          	sub	a0,a5,a0
    7720:	9b2a                	add	s6,s6,a0
    7722:	9caa                	add	s9,s9,a0
    7724:	9baa                	add	s7,s7,a0
    7726:	01605863          	blez	s6,7736 <_dtoa_r+0x930>
    772a:	85ce                	mv	a1,s3
    772c:	865a                	mv	a2,s6
    772e:	8526                	mv	a0,s1
    7730:	3ec010ef          	jal	ra,8b1c <__lshift>
    7734:	89aa                	mv	s3,a0
    7736:	01705863          	blez	s7,7746 <_dtoa_r+0x940>
    773a:	85d6                	mv	a1,s5
    773c:	865e                	mv	a2,s7
    773e:	8526                	mv	a0,s1
    7740:	3dc010ef          	jal	ra,8b1c <__lshift>
    7744:	8aaa                	mv	s5,a0
    7746:	57b2                	lw	a5,44(sp)
    7748:	c7b1                	beqz	a5,7794 <_dtoa_r+0x98e>
    774a:	85d6                	mv	a1,s5
    774c:	854e                	mv	a0,s3
    774e:	49c010ef          	jal	ra,8bea <__mcmp>
    7752:	04055163          	bgez	a0,7794 <_dtoa_r+0x98e>
    7756:	85ce                	mv	a1,s3
    7758:	4681                	li	a3,0
    775a:	4629                	li	a2,10
    775c:	8526                	mv	a0,s1
    775e:	7b5000ef          	jal	ra,8712 <__multadd>
    7762:	47c2                	lw	a5,16(sp)
    7764:	147d                	addi	s0,s0,-1
    7766:	89aa                	mv	s3,a0
    7768:	26078b63          	beqz	a5,79de <_dtoa_r+0xbd8>
    776c:	85ca                	mv	a1,s2
    776e:	4681                	li	a3,0
    7770:	4629                	li	a2,10
    7772:	8526                	mv	a0,s1
    7774:	79f000ef          	jal	ra,8712 <__multadd>
    7778:	47a2                	lw	a5,8(sp)
    777a:	892a                	mv	s2,a0
    777c:	08f04563          	bgtz	a5,7806 <_dtoa_r+0xa00>
    7780:	4712                	lw	a4,4(sp)
    7782:	4789                	li	a5,2
    7784:	08e7d163          	bge	a5,a4,7806 <_dtoa_r+0xa00>
    7788:	a829                	j	77a2 <_dtoa_r+0x99c>
    778a:	f8e78ee3          	beq	a5,a4,7726 <_dtoa_r+0x920>
    778e:	853e                	mv	a0,a5
    7790:	0571                	addi	a0,a0,28
    7792:	b779                	j	7720 <_dtoa_r+0x91a>
    7794:	07b04563          	bgtz	s11,77fe <_dtoa_r+0x9f8>
    7798:	4712                	lw	a4,4(sp)
    779a:	4789                	li	a5,2
    779c:	06e7d163          	bge	a5,a4,77fe <_dtoa_r+0x9f8>
    77a0:	c46e                	sw	s11,8(sp)
    77a2:	47a2                	lw	a5,8(sp)
    77a4:	ef91                	bnez	a5,77c0 <_dtoa_r+0x9ba>
    77a6:	85d6                	mv	a1,s5
    77a8:	4681                	li	a3,0
    77aa:	4615                	li	a2,5
    77ac:	8526                	mv	a0,s1
    77ae:	765000ef          	jal	ra,8712 <__multadd>
    77b2:	8aaa                	mv	s5,a0
    77b4:	85aa                	mv	a1,a0
    77b6:	854e                	mv	a0,s3
    77b8:	432010ef          	jal	ra,8bea <__mcmp>
    77bc:	b6a041e3          	bgtz	a0,731e <_dtoa_r+0x518>
    77c0:	47b2                	lw	a5,12(sp)
    77c2:	4a02                	lw	s4,0(sp)
    77c4:	fff7c413          	not	s0,a5
    77c8:	4b01                	li	s6,0
    77ca:	85d6                	mv	a1,s5
    77cc:	8526                	mv	a0,s1
    77ce:	701000ef          	jal	ra,86ce <_Bfree>
    77d2:	d8090ce3          	beqz	s2,756a <_dtoa_r+0x764>
    77d6:	000b0863          	beqz	s6,77e6 <_dtoa_r+0x9e0>
    77da:	012b0663          	beq	s6,s2,77e6 <_dtoa_r+0x9e0>
    77de:	85da                	mv	a1,s6
    77e0:	8526                	mv	a0,s1
    77e2:	6ed000ef          	jal	ra,86ce <_Bfree>
    77e6:	85ca                	mv	a1,s2
    77e8:	8526                	mv	a0,s1
    77ea:	6e5000ef          	jal	ra,86ce <_Bfree>
    77ee:	bbb5                	j	756a <_dtoa_r+0x764>
    77f0:	4a81                	li	s5,0
    77f2:	4901                	li	s2,0
    77f4:	b7f1                	j	77c0 <_dtoa_r+0x9ba>
    77f6:	846a                	mv	s0,s10
    77f8:	4a81                	li	s5,0
    77fa:	4901                	li	s2,0
    77fc:	b60d                	j	731e <_dtoa_r+0x518>
    77fe:	47c2                	lw	a5,16(sp)
    7800:	c46e                	sw	s11,8(sp)
    7802:	1e078563          	beqz	a5,79ec <_dtoa_r+0xbe6>
    7806:	01905863          	blez	s9,7816 <_dtoa_r+0xa10>
    780a:	85ca                	mv	a1,s2
    780c:	8666                	mv	a2,s9
    780e:	8526                	mv	a0,s1
    7810:	30c010ef          	jal	ra,8b1c <__lshift>
    7814:	892a                	mv	s2,a0
    7816:	854a                	mv	a0,s2
    7818:	020d0663          	beqz	s10,7844 <_dtoa_r+0xa3e>
    781c:	00492583          	lw	a1,4(s2)
    7820:	8526                	mv	a0,s1
    7822:	621000ef          	jal	ra,8642 <_Balloc>
    7826:	01092603          	lw	a2,16(s2)
    782a:	8b2a                	mv	s6,a0
    782c:	00c90593          	addi	a1,s2,12
    7830:	0609                	addi	a2,a2,2
    7832:	060a                	slli	a2,a2,0x2
    7834:	0531                	addi	a0,a0,12
    7836:	f44fd0ef          	jal	ra,4f7a <memcpy>
    783a:	4605                	li	a2,1
    783c:	85da                	mv	a1,s6
    783e:	8526                	mv	a0,s1
    7840:	2dc010ef          	jal	ra,8b1c <__lshift>
    7844:	4782                	lw	a5,0(sp)
    7846:	4722                	lw	a4,8(sp)
    7848:	8b4a                	mv	s6,s2
    784a:	00178c13          	addi	s8,a5,1
    784e:	97ba                	add	a5,a5,a4
    7850:	c63e                	sw	a5,12(sp)
    7852:	001a7793          	andi	a5,s4,1
    7856:	892a                	mv	s2,a0
    7858:	c43e                	sw	a5,8(sp)
    785a:	85d6                	mv	a1,s5
    785c:	854e                	mv	a0,s3
    785e:	c6eff0ef          	jal	ra,6ccc <quorem>
    7862:	85da                	mv	a1,s6
    7864:	8d2a                	mv	s10,a0
    7866:	03050d93          	addi	s11,a0,48
    786a:	854e                	mv	a0,s3
    786c:	37e010ef          	jal	ra,8bea <__mcmp>
    7870:	864a                	mv	a2,s2
    7872:	8baa                	mv	s7,a0
    7874:	85d6                	mv	a1,s5
    7876:	8526                	mv	a0,s1
    7878:	3a4010ef          	jal	ra,8c1c <__mdiff>
    787c:	4550                	lw	a2,12(a0)
    787e:	fffc0c93          	addi	s9,s8,-1
    7882:	8a2a                	mv	s4,a0
    7884:	4705                	li	a4,1
    7886:	e611                	bnez	a2,7892 <_dtoa_r+0xa8c>
    7888:	85aa                	mv	a1,a0
    788a:	854e                	mv	a0,s3
    788c:	35e010ef          	jal	ra,8bea <__mcmp>
    7890:	872a                	mv	a4,a0
    7892:	85d2                	mv	a1,s4
    7894:	8526                	mv	a0,s1
    7896:	c83a                	sw	a4,16(sp)
    7898:	637000ef          	jal	ra,86ce <_Bfree>
    789c:	4792                	lw	a5,4(sp)
    789e:	4742                	lw	a4,16(sp)
    78a0:	8a62                	mv	s4,s8
    78a2:	00e7e6b3          	or	a3,a5,a4
    78a6:	47a2                	lw	a5,8(sp)
    78a8:	8edd                	or	a3,a3,a5
    78aa:	ee81                	bnez	a3,78c2 <_dtoa_r+0xabc>
    78ac:	03900713          	li	a4,57
    78b0:	04ed8863          	beq	s11,a4,7900 <_dtoa_r+0xafa>
    78b4:	01705463          	blez	s7,78bc <_dtoa_r+0xab6>
    78b8:	031d0d93          	addi	s11,s10,49
    78bc:	01bc8023          	sb	s11,0(s9)
    78c0:	b729                	j	77ca <_dtoa_r+0x9c4>
    78c2:	000bca63          	bltz	s7,78d6 <_dtoa_r+0xad0>
    78c6:	4792                	lw	a5,4(sp)
    78c8:	0177ebb3          	or	s7,a5,s7
    78cc:	47a2                	lw	a5,8(sp)
    78ce:	00fbebb3          	or	s7,s7,a5
    78d2:	040b9563          	bnez	s7,791c <_dtoa_r+0xb16>
    78d6:	fee053e3          	blez	a4,78bc <_dtoa_r+0xab6>
    78da:	85ce                	mv	a1,s3
    78dc:	4605                	li	a2,1
    78de:	8526                	mv	a0,s1
    78e0:	23c010ef          	jal	ra,8b1c <__lshift>
    78e4:	85d6                	mv	a1,s5
    78e6:	89aa                	mv	s3,a0
    78e8:	302010ef          	jal	ra,8bea <__mcmp>
    78ec:	00a04663          	bgtz	a0,78f8 <_dtoa_r+0xaf2>
    78f0:	f571                	bnez	a0,78bc <_dtoa_r+0xab6>
    78f2:	001df713          	andi	a4,s11,1
    78f6:	d379                	beqz	a4,78bc <_dtoa_r+0xab6>
    78f8:	03900713          	li	a4,57
    78fc:	faed9ee3          	bne	s11,a4,78b8 <_dtoa_r+0xab2>
    7900:	03900793          	li	a5,57
    7904:	00fc8023          	sb	a5,0(s9)
    7908:	03900693          	li	a3,57
    790c:	fffa4783          	lbu	a5,-1(s4)
    7910:	fffa0713          	addi	a4,s4,-1
    7914:	08d78c63          	beq	a5,a3,79ac <_dtoa_r+0xba6>
    7918:	0785                	addi	a5,a5,1
    791a:	a045                	j	79ba <_dtoa_r+0xbb4>
    791c:	00e05b63          	blez	a4,7932 <_dtoa_r+0xb2c>
    7920:	03900713          	li	a4,57
    7924:	fced8ee3          	beq	s11,a4,7900 <_dtoa_r+0xafa>
    7928:	001d8793          	addi	a5,s11,1
    792c:	00fc8023          	sb	a5,0(s9)
    7930:	bd69                	j	77ca <_dtoa_r+0x9c4>
    7932:	47b2                	lw	a5,12(sp)
    7934:	ffbc0fa3          	sb	s11,-1(s8)
    7938:	05878163          	beq	a5,s8,797a <_dtoa_r+0xb74>
    793c:	85ce                	mv	a1,s3
    793e:	4681                	li	a3,0
    7940:	4629                	li	a2,10
    7942:	8526                	mv	a0,s1
    7944:	5cf000ef          	jal	ra,8712 <__multadd>
    7948:	89aa                	mv	s3,a0
    794a:	4681                	li	a3,0
    794c:	4629                	li	a2,10
    794e:	85da                	mv	a1,s6
    7950:	8526                	mv	a0,s1
    7952:	012b1863          	bne	s6,s2,7962 <_dtoa_r+0xb5c>
    7956:	5bd000ef          	jal	ra,8712 <__multadd>
    795a:	8b2a                	mv	s6,a0
    795c:	892a                	mv	s2,a0
    795e:	0c05                	addi	s8,s8,1
    7960:	bded                	j	785a <_dtoa_r+0xa54>
    7962:	5b1000ef          	jal	ra,8712 <__multadd>
    7966:	85ca                	mv	a1,s2
    7968:	8b2a                	mv	s6,a0
    796a:	4681                	li	a3,0
    796c:	4629                	li	a2,10
    796e:	8526                	mv	a0,s1
    7970:	5a3000ef          	jal	ra,8712 <__multadd>
    7974:	892a                	mv	s2,a0
    7976:	b7e5                	j	795e <_dtoa_r+0xb58>
    7978:	4b01                	li	s6,0
    797a:	85ce                	mv	a1,s3
    797c:	4605                	li	a2,1
    797e:	8526                	mv	a0,s1
    7980:	19c010ef          	jal	ra,8b1c <__lshift>
    7984:	85d6                	mv	a1,s5
    7986:	89aa                	mv	s3,a0
    7988:	262010ef          	jal	ra,8bea <__mcmp>
    798c:	f6a04ee3          	bgtz	a0,7908 <_dtoa_r+0xb02>
    7990:	e501                	bnez	a0,7998 <_dtoa_r+0xb92>
    7992:	001df793          	andi	a5,s11,1
    7996:	fbad                	bnez	a5,7908 <_dtoa_r+0xb02>
    7998:	03000793          	li	a5,48
    799c:	fffa4703          	lbu	a4,-1(s4)
    79a0:	fffa0693          	addi	a3,s4,-1
    79a4:	e2f713e3          	bne	a4,a5,77ca <_dtoa_r+0x9c4>
    79a8:	8a36                	mv	s4,a3
    79aa:	bfcd                	j	799c <_dtoa_r+0xb96>
    79ac:	4782                	lw	a5,0(sp)
    79ae:	00e79863          	bne	a5,a4,79be <_dtoa_r+0xbb8>
    79b2:	4702                	lw	a4,0(sp)
    79b4:	0405                	addi	s0,s0,1
    79b6:	03100793          	li	a5,49
    79ba:	a31c                	sb	a5,0(a4)
    79bc:	b539                	j	77ca <_dtoa_r+0x9c4>
    79be:	8a3a                	mv	s4,a4
    79c0:	b7b1                	j	790c <_dtoa_r+0xb06>
    79c2:	4752                	lw	a4,20(sp)
    79c4:	00007797          	auipc	a5,0x7
    79c8:	41c78793          	addi	a5,a5,1052 # ede0 <_ctype_+0x140>
    79cc:	c03e                	sw	a5,0(sp)
    79ce:	00007797          	auipc	a5,0x7
    79d2:	41a78793          	addi	a5,a5,1050 # ede8 <_ctype_+0x148>
    79d6:	ce071c63          	bnez	a4,6ece <_dtoa_r+0xc8>
    79da:	cf8ff06f          	j	6ed2 <_dtoa_r+0xcc>
    79de:	47a2                	lw	a5,8(sp)
    79e0:	00f04663          	bgtz	a5,79ec <_dtoa_r+0xbe6>
    79e4:	4712                	lw	a4,4(sp)
    79e6:	4789                	li	a5,2
    79e8:	dae7cde3          	blt	a5,a4,77a2 <_dtoa_r+0x99c>
    79ec:	4a02                	lw	s4,0(sp)
    79ee:	85d6                	mv	a1,s5
    79f0:	854e                	mv	a0,s3
    79f2:	adaff0ef          	jal	ra,6ccc <quorem>
    79f6:	4782                	lw	a5,0(sp)
    79f8:	0a05                	addi	s4,s4,1
    79fa:	03050d93          	addi	s11,a0,48
    79fe:	40fa0733          	sub	a4,s4,a5
    7a02:	47a2                	lw	a5,8(sp)
    7a04:	ffba0fa3          	sb	s11,-1(s4)
    7a08:	f6f758e3          	bge	a4,a5,7978 <_dtoa_r+0xb72>
    7a0c:	85ce                	mv	a1,s3
    7a0e:	4681                	li	a3,0
    7a10:	4629                	li	a2,10
    7a12:	8526                	mv	a0,s1
    7a14:	4ff000ef          	jal	ra,8712 <__multadd>
    7a18:	89aa                	mv	s3,a0
    7a1a:	bfd1                	j	79ee <_dtoa_r+0xbe8>

00007a1c <__sflush_r>:
    7a1c:	25de                	lhu	a5,12(a1)
    7a1e:	1101                	addi	sp,sp,-32
    7a20:	cc22                	sw	s0,24(sp)
    7a22:	ca26                	sw	s1,20(sp)
    7a24:	ce06                	sw	ra,28(sp)
    7a26:	c84a                	sw	s2,16(sp)
    7a28:	c64e                	sw	s3,12(sp)
    7a2a:	0087f713          	andi	a4,a5,8
    7a2e:	84aa                	mv	s1,a0
    7a30:	842e                	mv	s0,a1
    7a32:	ef61                	bnez	a4,7b0a <__sflush_r+0xee>
    7a34:	41d8                	lw	a4,4(a1)
    7a36:	00e04d63          	bgtz	a4,7a50 <__sflush_r+0x34>
    7a3a:	41b8                	lw	a4,64(a1)
    7a3c:	00e04a63          	bgtz	a4,7a50 <__sflush_r+0x34>
    7a40:	4501                	li	a0,0
    7a42:	40f2                	lw	ra,28(sp)
    7a44:	4462                	lw	s0,24(sp)
    7a46:	44d2                	lw	s1,20(sp)
    7a48:	4942                	lw	s2,16(sp)
    7a4a:	49b2                	lw	s3,12(sp)
    7a4c:	6105                	addi	sp,sp,32
    7a4e:	8082                	ret
    7a50:	5458                	lw	a4,44(s0)
    7a52:	d77d                	beqz	a4,7a40 <__sflush_r+0x24>
    7a54:	0004a903          	lw	s2,0(s1)
    7a58:	01379693          	slli	a3,a5,0x13
    7a5c:	0004a023          	sw	zero,0(s1)
    7a60:	0606dc63          	bgez	a3,7ad8 <__sflush_r+0xbc>
    7a64:	4870                	lw	a2,84(s0)
    7a66:	245e                	lhu	a5,12(s0)
    7a68:	8b91                	andi	a5,a5,4
    7a6a:	c799                	beqz	a5,7a78 <__sflush_r+0x5c>
    7a6c:	405c                	lw	a5,4(s0)
    7a6e:	8e1d                	sub	a2,a2,a5
    7a70:	585c                	lw	a5,52(s0)
    7a72:	c399                	beqz	a5,7a78 <__sflush_r+0x5c>
    7a74:	403c                	lw	a5,64(s0)
    7a76:	8e1d                	sub	a2,a2,a5
    7a78:	545c                	lw	a5,44(s0)
    7a7a:	500c                	lw	a1,32(s0)
    7a7c:	4681                	li	a3,0
    7a7e:	8526                	mv	a0,s1
    7a80:	9782                	jalr	a5
    7a82:	57fd                	li	a5,-1
    7a84:	245a                	lhu	a4,12(s0)
    7a86:	00f51d63          	bne	a0,a5,7aa0 <__sflush_r+0x84>
    7a8a:	4094                	lw	a3,0(s1)
    7a8c:	47f5                	li	a5,29
    7a8e:	06d7e963          	bltu	a5,a3,7b00 <__sflush_r+0xe4>
    7a92:	204007b7          	lui	a5,0x20400
    7a96:	0785                	addi	a5,a5,1
    7a98:	00d7d7b3          	srl	a5,a5,a3
    7a9c:	8b85                	andi	a5,a5,1
    7a9e:	c3ad                	beqz	a5,7b00 <__sflush_r+0xe4>
    7aa0:	481c                	lw	a5,16(s0)
    7aa2:	00042223          	sw	zero,4(s0)
    7aa6:	c01c                	sw	a5,0(s0)
    7aa8:	01371793          	slli	a5,a4,0x13
    7aac:	0007d863          	bgez	a5,7abc <__sflush_r+0xa0>
    7ab0:	57fd                	li	a5,-1
    7ab2:	00f51463          	bne	a0,a5,7aba <__sflush_r+0x9e>
    7ab6:	409c                	lw	a5,0(s1)
    7ab8:	e391                	bnez	a5,7abc <__sflush_r+0xa0>
    7aba:	c868                	sw	a0,84(s0)
    7abc:	584c                	lw	a1,52(s0)
    7abe:	0124a023          	sw	s2,0(s1)
    7ac2:	ddbd                	beqz	a1,7a40 <__sflush_r+0x24>
    7ac4:	04440793          	addi	a5,s0,68
    7ac8:	00f58563          	beq	a1,a5,7ad2 <__sflush_r+0xb6>
    7acc:	8526                	mv	a0,s1
    7ace:	d5efd0ef          	jal	ra,502c <_free_r>
    7ad2:	02042a23          	sw	zero,52(s0)
    7ad6:	b7ad                	j	7a40 <__sflush_r+0x24>
    7ad8:	500c                	lw	a1,32(s0)
    7ada:	4601                	li	a2,0
    7adc:	4685                	li	a3,1
    7ade:	8526                	mv	a0,s1
    7ae0:	9702                	jalr	a4
    7ae2:	57fd                	li	a5,-1
    7ae4:	862a                	mv	a2,a0
    7ae6:	f8f510e3          	bne	a0,a5,7a66 <__sflush_r+0x4a>
    7aea:	409c                	lw	a5,0(s1)
    7aec:	dfad                	beqz	a5,7a66 <__sflush_r+0x4a>
    7aee:	4775                	li	a4,29
    7af0:	00e78563          	beq	a5,a4,7afa <__sflush_r+0xde>
    7af4:	4759                	li	a4,22
    7af6:	04e79363          	bne	a5,a4,7b3c <__sflush_r+0x120>
    7afa:	0124a023          	sw	s2,0(s1)
    7afe:	b789                	j	7a40 <__sflush_r+0x24>
    7b00:	04076713          	ori	a4,a4,64
    7b04:	a45a                	sh	a4,12(s0)
    7b06:	557d                	li	a0,-1
    7b08:	bf2d                	j	7a42 <__sflush_r+0x26>
    7b0a:	0105a983          	lw	s3,16(a1) # 7ff00010 <__freertos_irq_stack_top+0x5fef0010>
    7b0e:	f20989e3          	beqz	s3,7a40 <__sflush_r+0x24>
    7b12:	0005a903          	lw	s2,0(a1)
    7b16:	8b8d                	andi	a5,a5,3
    7b18:	0135a023          	sw	s3,0(a1)
    7b1c:	41390933          	sub	s2,s2,s3
    7b20:	4701                	li	a4,0
    7b22:	e391                	bnez	a5,7b26 <__sflush_r+0x10a>
    7b24:	49d8                	lw	a4,20(a1)
    7b26:	c418                	sw	a4,8(s0)
    7b28:	f1205ce3          	blez	s2,7a40 <__sflush_r+0x24>
    7b2c:	541c                	lw	a5,40(s0)
    7b2e:	500c                	lw	a1,32(s0)
    7b30:	86ca                	mv	a3,s2
    7b32:	864e                	mv	a2,s3
    7b34:	8526                	mv	a0,s1
    7b36:	9782                	jalr	a5
    7b38:	00a04763          	bgtz	a0,7b46 <__sflush_r+0x12a>
    7b3c:	245e                	lhu	a5,12(s0)
    7b3e:	0407e793          	ori	a5,a5,64
    7b42:	a45e                	sh	a5,12(s0)
    7b44:	b7c9                	j	7b06 <__sflush_r+0xea>
    7b46:	99aa                	add	s3,s3,a0
    7b48:	40a90933          	sub	s2,s2,a0
    7b4c:	bff1                	j	7b28 <__sflush_r+0x10c>

00007b4e <_fflush_r>:
    7b4e:	499c                	lw	a5,16(a1)
    7b50:	c3a5                	beqz	a5,7bb0 <_fflush_r+0x62>
    7b52:	1101                	addi	sp,sp,-32
    7b54:	cc22                	sw	s0,24(sp)
    7b56:	ce06                	sw	ra,28(sp)
    7b58:	842a                	mv	s0,a0
    7b5a:	c511                	beqz	a0,7b66 <_fflush_r+0x18>
    7b5c:	4d1c                	lw	a5,24(a0)
    7b5e:	e781                	bnez	a5,7b66 <_fflush_r+0x18>
    7b60:	c62e                	sw	a1,12(sp)
    7b62:	2229                	jal	7c6c <__sinit>
    7b64:	45b2                	lw	a1,12(sp)
    7b66:	00007797          	auipc	a5,0x7
    7b6a:	2aa78793          	addi	a5,a5,682 # ee10 <__sf_fake_stdin>
    7b6e:	00f59c63          	bne	a1,a5,7b86 <_fflush_r+0x38>
    7b72:	404c                	lw	a1,4(s0)
    7b74:	00c59783          	lh	a5,12(a1)
    7b78:	c79d                	beqz	a5,7ba6 <_fflush_r+0x58>
    7b7a:	8522                	mv	a0,s0
    7b7c:	4462                	lw	s0,24(sp)
    7b7e:	40f2                	lw	ra,28(sp)
    7b80:	6105                	addi	sp,sp,32
    7b82:	e9bff06f          	j	7a1c <__sflush_r>
    7b86:	00007797          	auipc	a5,0x7
    7b8a:	2aa78793          	addi	a5,a5,682 # ee30 <__sf_fake_stdout>
    7b8e:	00f59463          	bne	a1,a5,7b96 <_fflush_r+0x48>
    7b92:	440c                	lw	a1,8(s0)
    7b94:	b7c5                	j	7b74 <_fflush_r+0x26>
    7b96:	00007797          	auipc	a5,0x7
    7b9a:	25a78793          	addi	a5,a5,602 # edf0 <__sf_fake_stderr>
    7b9e:	fcf59be3          	bne	a1,a5,7b74 <_fflush_r+0x26>
    7ba2:	444c                	lw	a1,12(s0)
    7ba4:	bfc1                	j	7b74 <_fflush_r+0x26>
    7ba6:	40f2                	lw	ra,28(sp)
    7ba8:	4462                	lw	s0,24(sp)
    7baa:	4501                	li	a0,0
    7bac:	6105                	addi	sp,sp,32
    7bae:	8082                	ret
    7bb0:	4501                	li	a0,0
    7bb2:	8082                	ret

00007bb4 <std>:
    7bb4:	1141                	addi	sp,sp,-16
    7bb6:	c422                	sw	s0,8(sp)
    7bb8:	c606                	sw	ra,12(sp)
    7bba:	842a                	mv	s0,a0
    7bbc:	a54e                	sh	a1,12(a0)
    7bbe:	a572                	sh	a2,14(a0)
    7bc0:	00052023          	sw	zero,0(a0)
    7bc4:	00052223          	sw	zero,4(a0)
    7bc8:	00052423          	sw	zero,8(a0)
    7bcc:	06052223          	sw	zero,100(a0)
    7bd0:	00052823          	sw	zero,16(a0)
    7bd4:	00052a23          	sw	zero,20(a0)
    7bd8:	00052c23          	sw	zero,24(a0)
    7bdc:	4621                	li	a2,8
    7bde:	4581                	li	a1,0
    7be0:	05c50513          	addi	a0,a0,92
    7be4:	963f80ef          	jal	ra,546 <memset>
    7be8:	00001797          	auipc	a5,0x1
    7bec:	70e78793          	addi	a5,a5,1806 # 92f6 <__sread>
    7bf0:	d05c                	sw	a5,36(s0)
    7bf2:	00001797          	auipc	a5,0x1
    7bf6:	73078793          	addi	a5,a5,1840 # 9322 <__swrite>
    7bfa:	d41c                	sw	a5,40(s0)
    7bfc:	00001797          	auipc	a5,0x1
    7c00:	76e78793          	addi	a5,a5,1902 # 936a <__sseek>
    7c04:	d45c                	sw	a5,44(s0)
    7c06:	00001797          	auipc	a5,0x1
    7c0a:	79478793          	addi	a5,a5,1940 # 939a <__sclose>
    7c0e:	d000                	sw	s0,32(s0)
    7c10:	d81c                	sw	a5,48(s0)
    7c12:	40b2                	lw	ra,12(sp)
    7c14:	4422                	lw	s0,8(sp)
    7c16:	0141                	addi	sp,sp,16
    7c18:	8082                	ret

00007c1a <_cleanup_r>:
    7c1a:	00000597          	auipc	a1,0x0
    7c1e:	f3458593          	addi	a1,a1,-204 # 7b4e <_fflush_r>
    7c22:	aa99                	j	7d78 <_fwalk_reent>

00007c24 <__sfmoreglue>:
    7c24:	1141                	addi	sp,sp,-16
    7c26:	c226                	sw	s1,4(sp)
    7c28:	06800613          	li	a2,104
    7c2c:	fff58493          	addi	s1,a1,-1
    7c30:	02c484b3          	mul	s1,s1,a2
    7c34:	c04a                	sw	s2,0(sp)
    7c36:	892e                	mv	s2,a1
    7c38:	c422                	sw	s0,8(sp)
    7c3a:	c606                	sw	ra,12(sp)
    7c3c:	07448593          	addi	a1,s1,116
    7c40:	c9cfd0ef          	jal	ra,50dc <_malloc_r>
    7c44:	842a                	mv	s0,a0
    7c46:	cd01                	beqz	a0,7c5e <__sfmoreglue+0x3a>
    7c48:	00052023          	sw	zero,0(a0)
    7c4c:	01252223          	sw	s2,4(a0)
    7c50:	0531                	addi	a0,a0,12
    7c52:	c408                	sw	a0,8(s0)
    7c54:	06848613          	addi	a2,s1,104
    7c58:	4581                	li	a1,0
    7c5a:	8edf80ef          	jal	ra,546 <memset>
    7c5e:	8522                	mv	a0,s0
    7c60:	40b2                	lw	ra,12(sp)
    7c62:	4422                	lw	s0,8(sp)
    7c64:	4492                	lw	s1,4(sp)
    7c66:	4902                	lw	s2,0(sp)
    7c68:	0141                	addi	sp,sp,16
    7c6a:	8082                	ret

00007c6c <__sinit>:
    7c6c:	4d1c                	lw	a5,24(a0)
    7c6e:	e7a5                	bnez	a5,7cd6 <__sinit+0x6a>
    7c70:	1141                	addi	sp,sp,-16
    7c72:	c606                	sw	ra,12(sp)
    7c74:	c422                	sw	s0,8(sp)
    7c76:	00000797          	auipc	a5,0x0
    7c7a:	fa478793          	addi	a5,a5,-92 # 7c1a <_cleanup_r>
    7c7e:	d51c                	sw	a5,40(a0)
    7c80:	81c18793          	addi	a5,gp,-2020 # 200001fc <_global_impure_ptr>
    7c84:	439c                	lw	a5,0(a5)
    7c86:	04052423          	sw	zero,72(a0)
    7c8a:	04052623          	sw	zero,76(a0)
    7c8e:	04052823          	sw	zero,80(a0)
    7c92:	00f51463          	bne	a0,a5,7c9a <__sinit+0x2e>
    7c96:	4785                	li	a5,1
    7c98:	cd1c                	sw	a5,24(a0)
    7c9a:	842a                	mv	s0,a0
    7c9c:	2835                	jal	7cd8 <__sfp>
    7c9e:	c048                	sw	a0,4(s0)
    7ca0:	8522                	mv	a0,s0
    7ca2:	281d                	jal	7cd8 <__sfp>
    7ca4:	c408                	sw	a0,8(s0)
    7ca6:	8522                	mv	a0,s0
    7ca8:	2805                	jal	7cd8 <__sfp>
    7caa:	c448                	sw	a0,12(s0)
    7cac:	4048                	lw	a0,4(s0)
    7cae:	4601                	li	a2,0
    7cb0:	4591                	li	a1,4
    7cb2:	f03ff0ef          	jal	ra,7bb4 <std>
    7cb6:	4408                	lw	a0,8(s0)
    7cb8:	4605                	li	a2,1
    7cba:	45a5                	li	a1,9
    7cbc:	ef9ff0ef          	jal	ra,7bb4 <std>
    7cc0:	4448                	lw	a0,12(s0)
    7cc2:	4609                	li	a2,2
    7cc4:	45c9                	li	a1,18
    7cc6:	eefff0ef          	jal	ra,7bb4 <std>
    7cca:	4785                	li	a5,1
    7ccc:	cc1c                	sw	a5,24(s0)
    7cce:	40b2                	lw	ra,12(sp)
    7cd0:	4422                	lw	s0,8(sp)
    7cd2:	0141                	addi	sp,sp,16
    7cd4:	8082                	ret
    7cd6:	8082                	ret

00007cd8 <__sfp>:
    7cd8:	1141                	addi	sp,sp,-16
    7cda:	81c18793          	addi	a5,gp,-2020 # 200001fc <_global_impure_ptr>
    7cde:	c226                	sw	s1,4(sp)
    7ce0:	4384                	lw	s1,0(a5)
    7ce2:	c04a                	sw	s2,0(sp)
    7ce4:	c606                	sw	ra,12(sp)
    7ce6:	4c9c                	lw	a5,24(s1)
    7ce8:	c422                	sw	s0,8(sp)
    7cea:	892a                	mv	s2,a0
    7cec:	e781                	bnez	a5,7cf4 <__sfp+0x1c>
    7cee:	8526                	mv	a0,s1
    7cf0:	f7dff0ef          	jal	ra,7c6c <__sinit>
    7cf4:	04848493          	addi	s1,s1,72
    7cf8:	4480                	lw	s0,8(s1)
    7cfa:	40dc                	lw	a5,4(s1)
    7cfc:	17fd                	addi	a5,a5,-1
    7cfe:	0007d663          	bgez	a5,7d0a <__sfp+0x32>
    7d02:	409c                	lw	a5,0(s1)
    7d04:	cfb9                	beqz	a5,7d62 <__sfp+0x8a>
    7d06:	4084                	lw	s1,0(s1)
    7d08:	bfc5                	j	7cf8 <__sfp+0x20>
    7d0a:	00c41703          	lh	a4,12(s0)
    7d0e:	e739                	bnez	a4,7d5c <__sfp+0x84>
    7d10:	77c1                	lui	a5,0xffff0
    7d12:	0785                	addi	a5,a5,1
    7d14:	06042223          	sw	zero,100(s0)
    7d18:	00042023          	sw	zero,0(s0)
    7d1c:	00042223          	sw	zero,4(s0)
    7d20:	00042423          	sw	zero,8(s0)
    7d24:	c45c                	sw	a5,12(s0)
    7d26:	00042823          	sw	zero,16(s0)
    7d2a:	00042a23          	sw	zero,20(s0)
    7d2e:	00042c23          	sw	zero,24(s0)
    7d32:	4621                	li	a2,8
    7d34:	4581                	li	a1,0
    7d36:	05c40513          	addi	a0,s0,92
    7d3a:	80df80ef          	jal	ra,546 <memset>
    7d3e:	02042a23          	sw	zero,52(s0)
    7d42:	02042c23          	sw	zero,56(s0)
    7d46:	04042423          	sw	zero,72(s0)
    7d4a:	04042623          	sw	zero,76(s0)
    7d4e:	8522                	mv	a0,s0
    7d50:	40b2                	lw	ra,12(sp)
    7d52:	4422                	lw	s0,8(sp)
    7d54:	4492                	lw	s1,4(sp)
    7d56:	4902                	lw	s2,0(sp)
    7d58:	0141                	addi	sp,sp,16
    7d5a:	8082                	ret
    7d5c:	06840413          	addi	s0,s0,104
    7d60:	bf71                	j	7cfc <__sfp+0x24>
    7d62:	4591                	li	a1,4
    7d64:	854a                	mv	a0,s2
    7d66:	ebfff0ef          	jal	ra,7c24 <__sfmoreglue>
    7d6a:	c088                	sw	a0,0(s1)
    7d6c:	fd49                	bnez	a0,7d06 <__sfp+0x2e>
    7d6e:	47b1                	li	a5,12
    7d70:	00f92023          	sw	a5,0(s2)
    7d74:	4401                	li	s0,0
    7d76:	bfe1                	j	7d4e <__sfp+0x76>

00007d78 <_fwalk_reent>:
    7d78:	7179                	addi	sp,sp,-48
    7d7a:	d422                	sw	s0,40(sp)
    7d7c:	d04a                	sw	s2,32(sp)
    7d7e:	cc52                	sw	s4,24(sp)
    7d80:	ca56                	sw	s5,20(sp)
    7d82:	c85a                	sw	s6,16(sp)
    7d84:	c65e                	sw	s7,12(sp)
    7d86:	d606                	sw	ra,44(sp)
    7d88:	d226                	sw	s1,36(sp)
    7d8a:	ce4e                	sw	s3,28(sp)
    7d8c:	8a2a                	mv	s4,a0
    7d8e:	8aae                	mv	s5,a1
    7d90:	04850413          	addi	s0,a0,72
    7d94:	4901                	li	s2,0
    7d96:	4b05                	li	s6,1
    7d98:	5bfd                	li	s7,-1
    7d9a:	ec09                	bnez	s0,7db4 <_fwalk_reent+0x3c>
    7d9c:	50b2                	lw	ra,44(sp)
    7d9e:	5422                	lw	s0,40(sp)
    7da0:	854a                	mv	a0,s2
    7da2:	5492                	lw	s1,36(sp)
    7da4:	5902                	lw	s2,32(sp)
    7da6:	49f2                	lw	s3,28(sp)
    7da8:	4a62                	lw	s4,24(sp)
    7daa:	4ad2                	lw	s5,20(sp)
    7dac:	4b42                	lw	s6,16(sp)
    7dae:	4bb2                	lw	s7,12(sp)
    7db0:	6145                	addi	sp,sp,48
    7db2:	8082                	ret
    7db4:	4404                	lw	s1,8(s0)
    7db6:	00442983          	lw	s3,4(s0)
    7dba:	19fd                	addi	s3,s3,-1
    7dbc:	0009d463          	bgez	s3,7dc4 <_fwalk_reent+0x4c>
    7dc0:	4000                	lw	s0,0(s0)
    7dc2:	bfe1                	j	7d9a <_fwalk_reent+0x22>
    7dc4:	24de                	lhu	a5,12(s1)
    7dc6:	00fb7b63          	bgeu	s6,a5,7ddc <_fwalk_reent+0x64>
    7dca:	00e49783          	lh	a5,14(s1)
    7dce:	01778763          	beq	a5,s7,7ddc <_fwalk_reent+0x64>
    7dd2:	85a6                	mv	a1,s1
    7dd4:	8552                	mv	a0,s4
    7dd6:	9a82                	jalr	s5
    7dd8:	00a96933          	or	s2,s2,a0
    7ddc:	06848493          	addi	s1,s1,104
    7de0:	bfe9                	j	7dba <_fwalk_reent+0x42>

00007de2 <rshift>:
    7de2:	4910                	lw	a2,16(a0)
    7de4:	01450693          	addi	a3,a0,20
    7de8:	4055d713          	srai	a4,a1,0x5
    7dec:	87b6                	mv	a5,a3
    7dee:	02c75663          	bge	a4,a2,7e1a <rshift+0x38>
    7df2:	060a                	slli	a2,a2,0x2
    7df4:	070a                	slli	a4,a4,0x2
    7df6:	89fd                	andi	a1,a1,31
    7df8:	9636                	add	a2,a2,a3
    7dfa:	9736                	add	a4,a4,a3
    7dfc:	c9b9                	beqz	a1,7e52 <rshift+0x70>
    7dfe:	00470813          	addi	a6,a4,4
    7e02:	4318                	lw	a4,0(a4)
    7e04:	02000313          	li	t1,32
    7e08:	40b30333          	sub	t1,t1,a1
    7e0c:	00b75733          	srl	a4,a4,a1
    7e10:	00c86e63          	bltu	a6,a2,7e2c <rshift+0x4a>
    7e14:	c398                	sw	a4,0(a5)
    7e16:	c311                	beqz	a4,7e1a <rshift+0x38>
    7e18:	0791                	addi	a5,a5,4
    7e1a:	40d78733          	sub	a4,a5,a3
    7e1e:	8709                	srai	a4,a4,0x2
    7e20:	c918                	sw	a4,16(a0)
    7e22:	00d79463          	bne	a5,a3,7e2a <rshift+0x48>
    7e26:	00052a23          	sw	zero,20(a0)
    7e2a:	8082                	ret
    7e2c:	00082883          	lw	a7,0(a6)
    7e30:	0791                	addi	a5,a5,4
    7e32:	0811                	addi	a6,a6,4
    7e34:	006898b3          	sll	a7,a7,t1
    7e38:	00e8e733          	or	a4,a7,a4
    7e3c:	fee7ae23          	sw	a4,-4(a5) # fffefffc <__freertos_irq_stack_top+0xdffdfffc>
    7e40:	ffc82703          	lw	a4,-4(a6)
    7e44:	b7e1                	j	7e0c <rshift+0x2a>
    7e46:	0711                	addi	a4,a4,4
    7e48:	ffc72583          	lw	a1,-4(a4)
    7e4c:	0791                	addi	a5,a5,4
    7e4e:	feb7ae23          	sw	a1,-4(a5)
    7e52:	fec76ae3          	bltu	a4,a2,7e46 <rshift+0x64>
    7e56:	b7d1                	j	7e1a <rshift+0x38>

00007e58 <__hexdig_fun>:
    7e58:	fd050793          	addi	a5,a0,-48
    7e5c:	0ff7f793          	andi	a5,a5,255
    7e60:	4725                	li	a4,9
    7e62:	00f76763          	bltu	a4,a5,7e70 <__hexdig_fun+0x18>
    7e66:	1501                	addi	a0,a0,-32
    7e68:	0ff57793          	andi	a5,a0,255
    7e6c:	853e                	mv	a0,a5
    7e6e:	8082                	ret
    7e70:	f9f50793          	addi	a5,a0,-97
    7e74:	0ff7f793          	andi	a5,a5,255
    7e78:	4695                	li	a3,5
    7e7a:	00f6e563          	bltu	a3,a5,7e84 <__hexdig_fun+0x2c>
    7e7e:	fb950513          	addi	a0,a0,-71
    7e82:	b7dd                	j	7e68 <__hexdig_fun+0x10>
    7e84:	fbf50713          	addi	a4,a0,-65
    7e88:	0ff77713          	andi	a4,a4,255
    7e8c:	4781                	li	a5,0
    7e8e:	fce6efe3          	bltu	a3,a4,7e6c <__hexdig_fun+0x14>
    7e92:	fd950513          	addi	a0,a0,-39
    7e96:	bfc9                	j	7e68 <__hexdig_fun+0x10>

00007e98 <__gethex>:
    7e98:	711d                	addi	sp,sp,-96
    7e9a:	c2d6                	sw	s5,68(sp)
    7e9c:	8aaa                	mv	s5,a0
    7e9e:	8542                	mv	a0,a6
    7ea0:	c636                	sw	a3,12(sp)
    7ea2:	c23a                	sw	a4,4(sp)
    7ea4:	ce86                	sw	ra,92(sp)
    7ea6:	c8ca                	sw	s2,80(sp)
    7ea8:	c4d2                	sw	s4,72(sp)
    7eaa:	c0da                	sw	s6,64(sp)
    7eac:	de5e                	sw	s7,60(sp)
    7eae:	8b3e                	mv	s6,a5
    7eb0:	d66e                	sw	s11,44(sp)
    7eb2:	8932                	mv	s2,a2
    7eb4:	8dae                	mv	s11,a1
    7eb6:	cca2                	sw	s0,88(sp)
    7eb8:	caa6                	sw	s1,84(sp)
    7eba:	c6ce                	sw	s3,76(sp)
    7ebc:	dc62                	sw	s8,56(sp)
    7ebe:	da66                	sw	s9,52(sp)
    7ec0:	d86a                	sw	s10,48(sp)
    7ec2:	2da9                	jal	851c <__localeconv_l>
    7ec4:	00052b83          	lw	s7,0(a0)
    7ec8:	855e                	mv	a0,s7
    7eca:	e3dfd0ef          	jal	ra,5d06 <strlen>
    7ece:	00ab87b3          	add	a5,s7,a0
    7ed2:	000da683          	lw	a3,0(s11)
    7ed6:	fff7c783          	lbu	a5,-1(a5)
    7eda:	5779                	li	a4,-2
    7edc:	8f15                	sub	a4,a4,a3
    7ede:	c83e                	sw	a5,16(sp)
    7ee0:	8a2a                	mv	s4,a0
    7ee2:	00268793          	addi	a5,a3,2
    7ee6:	03000693          	li	a3,48
    7eea:	00f70633          	add	a2,a4,a5
    7eee:	84be                	mv	s1,a5
    7ef0:	0785                	addi	a5,a5,1
    7ef2:	fff7c503          	lbu	a0,-1(a5)
    7ef6:	c432                	sw	a2,8(sp)
    7ef8:	fed509e3          	beq	a0,a3,7eea <__gethex+0x52>
    7efc:	f5dff0ef          	jal	ra,7e58 <__hexdig_fun>
    7f00:	10051e63          	bnez	a0,801c <__gethex+0x184>
    7f04:	8652                	mv	a2,s4
    7f06:	85de                	mv	a1,s7
    7f08:	8526                	mv	a0,s1
    7f0a:	496010ef          	jal	ra,93a0 <strncmp>
    7f0e:	10051c63          	bnez	a0,8026 <__gethex+0x18e>
    7f12:	01448c33          	add	s8,s1,s4
    7f16:	000c4503          	lbu	a0,0(s8)
    7f1a:	f3fff0ef          	jal	ra,7e58 <__hexdig_fun>
    7f1e:	10050563          	beqz	a0,8028 <__gethex+0x190>
    7f22:	84e2                	mv	s1,s8
    7f24:	03000793          	li	a5,48
    7f28:	2088                	lbu	a0,0(s1)
    7f2a:	00f50b63          	beq	a0,a5,7f40 <__gethex+0xa8>
    7f2e:	f2bff0ef          	jal	ra,7e58 <__hexdig_fun>
    7f32:	4785                	li	a5,1
    7f34:	00153993          	seqz	s3,a0
    7f38:	8ce2                	mv	s9,s8
    7f3a:	c43e                	sw	a5,8(sp)
    7f3c:	8c26                	mv	s8,s1
    7f3e:	a021                	j	7f46 <__gethex+0xae>
    7f40:	0485                	addi	s1,s1,1
    7f42:	b7dd                	j	7f28 <__gethex+0x90>
    7f44:	0c05                	addi	s8,s8,1
    7f46:	000c4503          	lbu	a0,0(s8)
    7f4a:	f0fff0ef          	jal	ra,7e58 <__hexdig_fun>
    7f4e:	f97d                	bnez	a0,7f44 <__gethex+0xac>
    7f50:	8652                	mv	a2,s4
    7f52:	85de                	mv	a1,s7
    7f54:	8562                	mv	a0,s8
    7f56:	44a010ef          	jal	ra,93a0 <strncmp>
    7f5a:	e911                	bnez	a0,7f6e <__gethex+0xd6>
    7f5c:	000c9c63          	bnez	s9,7f74 <__gethex+0xdc>
    7f60:	9c52                	add	s8,s8,s4
    7f62:	8ce2                	mv	s9,s8
    7f64:	000c4503          	lbu	a0,0(s8)
    7f68:	ef1ff0ef          	jal	ra,7e58 <__hexdig_fun>
    7f6c:	e95d                	bnez	a0,8022 <__gethex+0x18a>
    7f6e:	4401                	li	s0,0
    7f70:	000c8563          	beqz	s9,7f7a <__gethex+0xe2>
    7f74:	418c8433          	sub	s0,s9,s8
    7f78:	040a                	slli	s0,s0,0x2
    7f7a:	000c4783          	lbu	a5,0(s8)
    7f7e:	05000713          	li	a4,80
    7f82:	00e78763          	beq	a5,a4,7f90 <__gethex+0xf8>
    7f86:	07000613          	li	a2,112
    7f8a:	8ce2                	mv	s9,s8
    7f8c:	06c79063          	bne	a5,a2,7fec <__gethex+0x154>
    7f90:	001c4783          	lbu	a5,1(s8)
    7f94:	02b00713          	li	a4,43
    7f98:	08e78b63          	beq	a5,a4,802e <__gethex+0x196>
    7f9c:	02d00713          	li	a4,45
    7fa0:	08e78b63          	beq	a5,a4,8036 <__gethex+0x19e>
    7fa4:	001c0c93          	addi	s9,s8,1
    7fa8:	4d01                	li	s10,0
    7faa:	000cc503          	lbu	a0,0(s9)
    7fae:	eabff0ef          	jal	ra,7e58 <__hexdig_fun>
    7fb2:	fff50793          	addi	a5,a0,-1
    7fb6:	0ff7f793          	andi	a5,a5,255
    7fba:	45e1                	li	a1,24
    7fbc:	08f5e463          	bltu	a1,a5,8044 <__gethex+0x1ac>
    7fc0:	ff050793          	addi	a5,a0,-16
    7fc4:	0c85                	addi	s9,s9,1
    7fc6:	000cc503          	lbu	a0,0(s9)
    7fca:	ca3e                	sw	a5,20(sp)
    7fcc:	e8dff0ef          	jal	ra,7e58 <__hexdig_fun>
    7fd0:	fff50593          	addi	a1,a0,-1
    7fd4:	0ff5f593          	andi	a1,a1,255
    7fd8:	4861                	li	a6,24
    7fda:	47d2                	lw	a5,20(sp)
    7fdc:	48a9                	li	a7,10
    7fde:	04b87e63          	bgeu	a6,a1,803a <__gethex+0x1a2>
    7fe2:	000d0463          	beqz	s10,7fea <__gethex+0x152>
    7fe6:	40f007b3          	neg	a5,a5
    7fea:	943e                	add	s0,s0,a5
    7fec:	019da023          	sw	s9,0(s11)
    7ff0:	04098c63          	beqz	s3,8048 <__gethex+0x1b0>
    7ff4:	47a2                	lw	a5,8(sp)
    7ff6:	4481                	li	s1,0
    7ff8:	e391                	bnez	a5,7ffc <__gethex+0x164>
    7ffa:	4499                	li	s1,6
    7ffc:	40f6                	lw	ra,92(sp)
    7ffe:	4466                	lw	s0,88(sp)
    8000:	8526                	mv	a0,s1
    8002:	4946                	lw	s2,80(sp)
    8004:	44d6                	lw	s1,84(sp)
    8006:	49b6                	lw	s3,76(sp)
    8008:	4a26                	lw	s4,72(sp)
    800a:	4a96                	lw	s5,68(sp)
    800c:	4b06                	lw	s6,64(sp)
    800e:	5bf2                	lw	s7,60(sp)
    8010:	5c62                	lw	s8,56(sp)
    8012:	5cd2                	lw	s9,52(sp)
    8014:	5d42                	lw	s10,48(sp)
    8016:	5db2                	lw	s11,44(sp)
    8018:	6125                	addi	sp,sp,96
    801a:	8082                	ret
    801c:	4981                	li	s3,0
    801e:	4c81                	li	s9,0
    8020:	bf31                	j	7f3c <__gethex+0xa4>
    8022:	0c05                	addi	s8,s8,1
    8024:	b781                	j	7f64 <__gethex+0xcc>
    8026:	8c26                	mv	s8,s1
    8028:	4401                	li	s0,0
    802a:	4985                	li	s3,1
    802c:	b7b9                	j	7f7a <__gethex+0xe2>
    802e:	4d01                	li	s10,0
    8030:	002c0c93          	addi	s9,s8,2
    8034:	bf9d                	j	7faa <__gethex+0x112>
    8036:	4d05                	li	s10,1
    8038:	bfe5                	j	8030 <__gethex+0x198>
    803a:	031787b3          	mul	a5,a5,a7
    803e:	97aa                	add	a5,a5,a0
    8040:	17c1                	addi	a5,a5,-16
    8042:	b749                	j	7fc4 <__gethex+0x12c>
    8044:	8ce2                	mv	s9,s8
    8046:	b75d                	j	7fec <__gethex+0x154>
    8048:	409c07b3          	sub	a5,s8,s1
    804c:	17fd                	addi	a5,a5,-1
    804e:	4581                	li	a1,0
    8050:	471d                	li	a4,7
    8052:	0af74463          	blt	a4,a5,80fa <__gethex+0x262>
    8056:	8556                	mv	a0,s5
    8058:	23ed                	jal	8642 <_Balloc>
    805a:	4605                	li	a2,1
    805c:	01450993          	addi	s3,a0,20
    8060:	414607b3          	sub	a5,a2,s4
    8064:	8daa                	mv	s11,a0
    8066:	8d4e                	mv	s10,s3
    8068:	4881                	li	a7,0
    806a:	4c81                	li	s9,0
    806c:	ca3e                	sw	a5,20(sp)
    806e:	0984e963          	bltu	s1,s8,8100 <__gethex+0x268>
    8072:	004d0513          	addi	a0,s10,4
    8076:	41350533          	sub	a0,a0,s3
    807a:	8509                	srai	a0,a0,0x2
    807c:	019d2023          	sw	s9,0(s10)
    8080:	00ada823          	sw	a0,16(s11)
    8084:	00551493          	slli	s1,a0,0x5
    8088:	8566                	mv	a0,s9
    808a:	7c4000ef          	jal	ra,884e <__hi0bits>
    808e:	00092b83          	lw	s7,0(s2)
    8092:	8c89                	sub	s1,s1,a0
    8094:	0c9bd863          	bge	s7,s1,8164 <__gethex+0x2cc>
    8098:	417484b3          	sub	s1,s1,s7
    809c:	85a6                	mv	a1,s1
    809e:	856e                	mv	a0,s11
    80a0:	6e7000ef          	jal	ra,8f86 <__any_on>
    80a4:	8a2a                	mv	s4,a0
    80a6:	c905                	beqz	a0,80d6 <__gethex+0x23e>
    80a8:	fff48613          	addi	a2,s1,-1
    80ac:	40565693          	srai	a3,a2,0x5
    80b0:	068a                	slli	a3,a3,0x2
    80b2:	96ce                	add	a3,a3,s3
    80b4:	4294                	lw	a3,0(a3)
    80b6:	4705                	li	a4,1
    80b8:	00c71733          	sll	a4,a4,a2
    80bc:	8f75                	and	a4,a4,a3
    80be:	4a05                	li	s4,1
    80c0:	cb19                	beqz	a4,80d6 <__gethex+0x23e>
    80c2:	00ca5963          	bge	s4,a2,80d4 <__gethex+0x23c>
    80c6:	ffe48593          	addi	a1,s1,-2
    80ca:	856e                	mv	a0,s11
    80cc:	6bb000ef          	jal	ra,8f86 <__any_on>
    80d0:	4a0d                	li	s4,3
    80d2:	e111                	bnez	a0,80d6 <__gethex+0x23e>
    80d4:	4a09                	li	s4,2
    80d6:	85a6                	mv	a1,s1
    80d8:	856e                	mv	a0,s11
    80da:	d09ff0ef          	jal	ra,7de2 <rshift>
    80de:	9426                	add	s0,s0,s1
    80e0:	00892703          	lw	a4,8(s2)
    80e4:	08875f63          	bge	a4,s0,8182 <__gethex+0x2ea>
    80e8:	85ee                	mv	a1,s11
    80ea:	8556                	mv	a0,s5
    80ec:	23cd                	jal	86ce <_Bfree>
    80ee:	4792                	lw	a5,4(sp)
    80f0:	0a300493          	li	s1,163
    80f4:	0007a023          	sw	zero,0(a5)
    80f8:	b711                	j	7ffc <__gethex+0x164>
    80fa:	0585                	addi	a1,a1,1
    80fc:	8785                	srai	a5,a5,0x1
    80fe:	bf91                	j	8052 <__gethex+0x1ba>
    8100:	fffc0793          	addi	a5,s8,-1
    8104:	c43e                	sw	a5,8(sp)
    8106:	fffc4603          	lbu	a2,-1(s8)
    810a:	47c2                	lw	a5,16(sp)
    810c:	02f60963          	beq	a2,a5,813e <__gethex+0x2a6>
    8110:	02000793          	li	a5,32
    8114:	00f89763          	bne	a7,a5,8122 <__gethex+0x28a>
    8118:	019d2023          	sw	s9,0(s10)
    811c:	4881                	li	a7,0
    811e:	0d11                	addi	s10,s10,4
    8120:	4c81                	li	s9,0
    8122:	fffc4503          	lbu	a0,-1(s8)
    8126:	cc46                	sw	a7,24(sp)
    8128:	d31ff0ef          	jal	ra,7e58 <__hexdig_fun>
    812c:	48e2                	lw	a7,24(sp)
    812e:	893d                	andi	a0,a0,15
    8130:	4322                	lw	t1,8(sp)
    8132:	01151533          	sll	a0,a0,a7
    8136:	00acecb3          	or	s9,s9,a0
    813a:	0891                	addi	a7,a7,4
    813c:	a015                	j	8160 <__gethex+0x2c8>
    813e:	4752                	lw	a4,20(sp)
    8140:	fffc0793          	addi	a5,s8,-1
    8144:	00e78333          	add	t1,a5,a4
    8148:	fc9364e3          	bltu	t1,s1,8110 <__gethex+0x278>
    814c:	851a                	mv	a0,t1
    814e:	8652                	mv	a2,s4
    8150:	85de                	mv	a1,s7
    8152:	ce46                	sw	a7,28(sp)
    8154:	cc1a                	sw	t1,24(sp)
    8156:	24a010ef          	jal	ra,93a0 <strncmp>
    815a:	4362                	lw	t1,24(sp)
    815c:	48f2                	lw	a7,28(sp)
    815e:	f94d                	bnez	a0,8110 <__gethex+0x278>
    8160:	8c1a                	mv	s8,t1
    8162:	b731                	j	806e <__gethex+0x1d6>
    8164:	4a01                	li	s4,0
    8166:	f774dde3          	bge	s1,s7,80e0 <__gethex+0x248>
    816a:	409b84b3          	sub	s1,s7,s1
    816e:	85ee                	mv	a1,s11
    8170:	8626                	mv	a2,s1
    8172:	8556                	mv	a0,s5
    8174:	1a9000ef          	jal	ra,8b1c <__lshift>
    8178:	8daa                	mv	s11,a0
    817a:	8c05                	sub	s0,s0,s1
    817c:	01450993          	addi	s3,a0,20
    8180:	b785                	j	80e0 <__gethex+0x248>
    8182:	00492703          	lw	a4,4(s2)
    8186:	0ee45563          	bge	s0,a4,8270 <__gethex+0x3d8>
    818a:	40870433          	sub	s0,a4,s0
    818e:	07744563          	blt	s0,s7,81f8 <__gethex+0x360>
    8192:	00c92703          	lw	a4,12(s2)
    8196:	4689                	li	a3,2
    8198:	04d70a63          	beq	a4,a3,81ec <__gethex+0x354>
    819c:	468d                	li	a3,3
    819e:	04d70a63          	beq	a4,a3,81f2 <__gethex+0x35a>
    81a2:	4685                	li	a3,1
    81a4:	02d71b63          	bne	a4,a3,81da <__gethex+0x342>
    81a8:	028b9963          	bne	s7,s0,81da <__gethex+0x342>
    81ac:	02eb9163          	bne	s7,a4,81ce <__gethex+0x336>
    81b0:	00492703          	lw	a4,4(s2)
    81b4:	47b2                	lw	a5,12(sp)
    81b6:	06200493          	li	s1,98
    81ba:	c398                	sw	a4,0(a5)
    81bc:	4705                	li	a4,1
    81be:	4792                	lw	a5,4(sp)
    81c0:	00eda823          	sw	a4,16(s11)
    81c4:	00e9a023          	sw	a4,0(s3)
    81c8:	01b7a023          	sw	s11,0(a5)
    81cc:	bd05                	j	7ffc <__gethex+0x164>
    81ce:	fffb8593          	addi	a1,s7,-1
    81d2:	856e                	mv	a0,s11
    81d4:	5b3000ef          	jal	ra,8f86 <__any_on>
    81d8:	fd61                	bnez	a0,81b0 <__gethex+0x318>
    81da:	85ee                	mv	a1,s11
    81dc:	8556                	mv	a0,s5
    81de:	29c5                	jal	86ce <_Bfree>
    81e0:	4792                	lw	a5,4(sp)
    81e2:	05000493          	li	s1,80
    81e6:	0007a023          	sw	zero,0(a5)
    81ea:	bd09                	j	7ffc <__gethex+0x164>
    81ec:	fe0b17e3          	bnez	s6,81da <__gethex+0x342>
    81f0:	b7c1                	j	81b0 <__gethex+0x318>
    81f2:	fa0b1fe3          	bnez	s6,81b0 <__gethex+0x318>
    81f6:	b7d5                	j	81da <__gethex+0x342>
    81f8:	fff40493          	addi	s1,s0,-1
    81fc:	060a1863          	bnez	s4,826c <__gethex+0x3d4>
    8200:	c491                	beqz	s1,820c <__gethex+0x374>
    8202:	85a6                	mv	a1,s1
    8204:	856e                	mv	a0,s11
    8206:	581000ef          	jal	ra,8f86 <__any_on>
    820a:	8a2a                	mv	s4,a0
    820c:	4054d713          	srai	a4,s1,0x5
    8210:	070a                	slli	a4,a4,0x2
    8212:	974e                	add	a4,a4,s3
    8214:	4318                	lw	a4,0(a4)
    8216:	4585                	li	a1,1
    8218:	009595b3          	sll	a1,a1,s1
    821c:	8df9                	and	a1,a1,a4
    821e:	c199                	beqz	a1,8224 <__gethex+0x38c>
    8220:	002a6a13          	ori	s4,s4,2
    8224:	85a2                	mv	a1,s0
    8226:	856e                	mv	a0,s11
    8228:	408b8bb3          	sub	s7,s7,s0
    822c:	bb7ff0ef          	jal	ra,7de2 <rshift>
    8230:	00492403          	lw	s0,4(s2)
    8234:	4489                	li	s1,2
    8236:	080a0b63          	beqz	s4,82cc <__gethex+0x434>
    823a:	00c92703          	lw	a4,12(s2)
    823e:	4689                	li	a3,2
    8240:	02d70a63          	beq	a4,a3,8274 <__gethex+0x3dc>
    8244:	468d                	li	a3,3
    8246:	02d70a63          	beq	a4,a3,827a <__gethex+0x3e2>
    824a:	4685                	li	a3,1
    824c:	00d71d63          	bne	a4,a3,8266 <__gethex+0x3ce>
    8250:	002a7713          	andi	a4,s4,2
    8254:	cb09                	beqz	a4,8266 <__gethex+0x3ce>
    8256:	0009a703          	lw	a4,0(s3)
    825a:	00ea6a33          	or	s4,s4,a4
    825e:	001a7a13          	andi	s4,s4,1
    8262:	000a1e63          	bnez	s4,827e <__gethex+0x3e6>
    8266:	0104e493          	ori	s1,s1,16
    826a:	a08d                	j	82cc <__gethex+0x434>
    826c:	4a05                	li	s4,1
    826e:	bf79                	j	820c <__gethex+0x374>
    8270:	4485                	li	s1,1
    8272:	b7d1                	j	8236 <__gethex+0x39e>
    8274:	4705                	li	a4,1
    8276:	41670b33          	sub	s6,a4,s6
    827a:	fe0b06e3          	beqz	s6,8266 <__gethex+0x3ce>
    827e:	010da983          	lw	s3,16(s11)
    8282:	014d8713          	addi	a4,s11,20
    8286:	55fd                	li	a1,-1
    8288:	00299a13          	slli	s4,s3,0x2
    828c:	01470633          	add	a2,a4,s4
    8290:	4314                	lw	a3,0(a4)
    8292:	04b68363          	beq	a3,a1,82d8 <__gethex+0x440>
    8296:	0685                	addi	a3,a3,1
    8298:	c314                	sw	a3,0(a4)
    829a:	4689                	li	a3,2
    829c:	014d8713          	addi	a4,s11,20
    82a0:	08d49463          	bne	s1,a3,8328 <__gethex+0x490>
    82a4:	00092683          	lw	a3,0(s2)
    82a8:	16fd                	addi	a3,a3,-1
    82aa:	01769f63          	bne	a3,s7,82c8 <__gethex+0x430>
    82ae:	405bd693          	srai	a3,s7,0x5
    82b2:	068a                	slli	a3,a3,0x2
    82b4:	9736                	add	a4,a4,a3
    82b6:	4318                	lw	a4,0(a4)
    82b8:	4685                	li	a3,1
    82ba:	01769bb3          	sll	s7,a3,s7
    82be:	00ebfbb3          	and	s7,s7,a4
    82c2:	000b8363          	beqz	s7,82c8 <__gethex+0x430>
    82c6:	4485                	li	s1,1
    82c8:	0204e493          	ori	s1,s1,32
    82cc:	4792                	lw	a5,4(sp)
    82ce:	01b7a023          	sw	s11,0(a5)
    82d2:	47b2                	lw	a5,12(sp)
    82d4:	c380                	sw	s0,0(a5)
    82d6:	b31d                	j	7ffc <__gethex+0x164>
    82d8:	0711                	addi	a4,a4,4
    82da:	fe072e23          	sw	zero,-4(a4)
    82de:	fac769e3          	bltu	a4,a2,8290 <__gethex+0x3f8>
    82e2:	008da703          	lw	a4,8(s11)
    82e6:	02e9c563          	blt	s3,a4,8310 <__gethex+0x478>
    82ea:	004da583          	lw	a1,4(s11)
    82ee:	8556                	mv	a0,s5
    82f0:	0585                	addi	a1,a1,1
    82f2:	2e81                	jal	8642 <_Balloc>
    82f4:	010da603          	lw	a2,16(s11)
    82f8:	00cd8593          	addi	a1,s11,12
    82fc:	8b2a                	mv	s6,a0
    82fe:	0609                	addi	a2,a2,2
    8300:	060a                	slli	a2,a2,0x2
    8302:	0531                	addi	a0,a0,12
    8304:	c77fc0ef          	jal	ra,4f7a <memcpy>
    8308:	85ee                	mv	a1,s11
    830a:	8556                	mv	a0,s5
    830c:	26c9                	jal	86ce <_Bfree>
    830e:	8dda                	mv	s11,s6
    8310:	010da703          	lw	a4,16(s11)
    8314:	00170693          	addi	a3,a4,1
    8318:	0711                	addi	a4,a4,4
    831a:	070a                	slli	a4,a4,0x2
    831c:	00dda823          	sw	a3,16(s11)
    8320:	976e                	add	a4,a4,s11
    8322:	4685                	li	a3,1
    8324:	c354                	sw	a3,4(a4)
    8326:	bf95                	j	829a <__gethex+0x402>
    8328:	010da683          	lw	a3,16(s11)
    832c:	00d9dc63          	bge	s3,a3,8344 <__gethex+0x4ac>
    8330:	4585                	li	a1,1
    8332:	856e                	mv	a0,s11
    8334:	aafff0ef          	jal	ra,7de2 <rshift>
    8338:	00892703          	lw	a4,8(s2)
    833c:	0405                	addi	s0,s0,1
    833e:	f88754e3          	bge	a4,s0,82c6 <__gethex+0x42e>
    8342:	b35d                	j	80e8 <__gethex+0x250>
    8344:	01fbfb93          	andi	s7,s7,31
    8348:	4485                	li	s1,1
    834a:	f60b8fe3          	beqz	s7,82c8 <__gethex+0x430>
    834e:	9752                	add	a4,a4,s4
    8350:	ffc72503          	lw	a0,-4(a4)
    8354:	29ed                	jal	884e <__hi0bits>
    8356:	02000713          	li	a4,32
    835a:	41770bb3          	sub	s7,a4,s7
    835e:	fd7549e3          	blt	a0,s7,8330 <__gethex+0x498>
    8362:	b79d                	j	82c8 <__gethex+0x430>

00008364 <L_shift>:
    8364:	47a1                	li	a5,8
    8366:	40c78633          	sub	a2,a5,a2
    836a:	060a                	slli	a2,a2,0x2
    836c:	02000693          	li	a3,32
    8370:	8e91                	sub	a3,a3,a2
    8372:	415c                	lw	a5,4(a0)
    8374:	4118                	lw	a4,0(a0)
    8376:	0511                	addi	a0,a0,4
    8378:	00d79833          	sll	a6,a5,a3
    837c:	01076733          	or	a4,a4,a6
    8380:	00c7d7b3          	srl	a5,a5,a2
    8384:	fee52e23          	sw	a4,-4(a0)
    8388:	c11c                	sw	a5,0(a0)
    838a:	feb564e3          	bltu	a0,a1,8372 <L_shift+0xe>
    838e:	8082                	ret

00008390 <__match>:
    8390:	411c                	lw	a5,0(a0)
    8392:	4865                	li	a6,25
    8394:	0585                	addi	a1,a1,1
    8396:	fff5c603          	lbu	a2,-1(a1)
    839a:	0785                	addi	a5,a5,1
    839c:	e601                	bnez	a2,83a4 <__match+0x14>
    839e:	c11c                	sw	a5,0(a0)
    83a0:	4505                	li	a0,1
    83a2:	8082                	ret
    83a4:	2398                	lbu	a4,0(a5)
    83a6:	fbf70693          	addi	a3,a4,-65
    83aa:	0ff6f693          	andi	a3,a3,255
    83ae:	00d86463          	bltu	a6,a3,83b6 <__match+0x26>
    83b2:	02070713          	addi	a4,a4,32
    83b6:	fcc70fe3          	beq	a4,a2,8394 <__match+0x4>
    83ba:	4501                	li	a0,0
    83bc:	8082                	ret

000083be <__hexnan>:
    83be:	715d                	addi	sp,sp,-80
    83c0:	dc52                	sw	s4,56(sp)
    83c2:	0005aa03          	lw	s4,0(a1)
    83c6:	c2a6                	sw	s1,68(sp)
    83c8:	de4e                	sw	s3,60(sp)
    83ca:	405a5493          	srai	s1,s4,0x5
    83ce:	d85a                	sw	s6,48(sp)
    83d0:	048a                	slli	s1,s1,0x2
    83d2:	c686                	sw	ra,76(sp)
    83d4:	c4a2                	sw	s0,72(sp)
    83d6:	c0ca                	sw	s2,64(sp)
    83d8:	da56                	sw	s5,52(sp)
    83da:	d65e                	sw	s7,44(sp)
    83dc:	d462                	sw	s8,40(sp)
    83de:	d266                	sw	s9,36(sp)
    83e0:	d06a                	sw	s10,32(sp)
    83e2:	ce6e                	sw	s11,28(sp)
    83e4:	01fa7a13          	andi	s4,s4,31
    83e8:	8b2a                	mv	s6,a0
    83ea:	89b2                	mv	s3,a2
    83ec:	94b2                	add	s1,s1,a2
    83ee:	000a0363          	beqz	s4,83f4 <__hexnan+0x36>
    83f2:	0491                	addi	s1,s1,4
    83f4:	000b2783          	lw	a5,0(s6)
    83f8:	ffc48913          	addi	s2,s1,-4
    83fc:	fe04ae23          	sw	zero,-4(s1)
    8400:	8dca                	mv	s11,s2
    8402:	844a                	mv	s0,s2
    8404:	4601                	li	a2,0
    8406:	4a81                	li	s5,0
    8408:	4b81                	li	s7,0
    840a:	4c21                	li	s8,8
    840c:	02000c93          	li	s9,32
    8410:	4d1d                	li	s10,7
    8412:	3394                	lbu	a3,1(a5)
    8414:	00178713          	addi	a4,a5,1
    8418:	c03a                	sw	a4,0(sp)
    841a:	cab1                	beqz	a3,846e <__hexnan+0xb0>
    841c:	8536                	mv	a0,a3
    841e:	c632                	sw	a2,12(sp)
    8420:	c43e                	sw	a5,8(sp)
    8422:	c236                	sw	a3,4(sp)
    8424:	a35ff0ef          	jal	ra,7e58 <__hexdig_fun>
    8428:	4632                	lw	a2,12(sp)
    842a:	e559                	bnez	a0,84b8 <__hexnan+0xfa>
    842c:	4692                	lw	a3,4(sp)
    842e:	47a2                	lw	a5,8(sp)
    8430:	02dce863          	bltu	s9,a3,8460 <__hexnan+0xa2>
    8434:	037ad463          	bge	s5,s7,845c <__hexnan+0x9e>
    8438:	01b47863          	bgeu	s0,s11,8448 <__hexnan+0x8a>
    843c:	00cd4663          	blt	s10,a2,8448 <__hexnan+0x8a>
    8440:	85ee                	mv	a1,s11
    8442:	8522                	mv	a0,s0
    8444:	f21ff0ef          	jal	ra,8364 <L_shift>
    8448:	4621                	li	a2,8
    844a:	0089f963          	bgeu	s3,s0,845c <__hexnan+0x9e>
    844e:	ffc40d93          	addi	s11,s0,-4
    8452:	fe042e23          	sw	zero,-4(s0)
    8456:	8ade                	mv	s5,s7
    8458:	846e                	mv	s0,s11
    845a:	4601                	li	a2,0
    845c:	4782                	lw	a5,0(sp)
    845e:	bf55                	j	8412 <__hexnan+0x54>
    8460:	02900593          	li	a1,41
    8464:	08b69c63          	bne	a3,a1,84fc <__hexnan+0x13e>
    8468:	0789                	addi	a5,a5,2
    846a:	00fb2023          	sw	a5,0(s6)
    846e:	080b8763          	beqz	s7,84fc <__hexnan+0x13e>
    8472:	01b47963          	bgeu	s0,s11,8484 <__hexnan+0xc6>
    8476:	479d                	li	a5,7
    8478:	00c7c663          	blt	a5,a2,8484 <__hexnan+0xc6>
    847c:	85ee                	mv	a1,s11
    847e:	8522                	mv	a0,s0
    8480:	ee5ff0ef          	jal	ra,8364 <L_shift>
    8484:	0489fa63          	bgeu	s3,s0,84d8 <__hexnan+0x11a>
    8488:	87ce                	mv	a5,s3
    848a:	0411                	addi	s0,s0,4
    848c:	ffc42703          	lw	a4,-4(s0)
    8490:	0791                	addi	a5,a5,4
    8492:	fee7ae23          	sw	a4,-4(a5)
    8496:	fe897ae3          	bgeu	s2,s0,848a <__hexnan+0xcc>
    849a:	0791                	addi	a5,a5,4
    849c:	fe07ae23          	sw	zero,-4(a5)
    84a0:	fef97de3          	bgeu	s2,a5,849a <__hexnan+0xdc>
    84a4:	00092783          	lw	a5,0(s2)
    84a8:	e791                	bnez	a5,84b4 <__hexnan+0xf6>
    84aa:	05391763          	bne	s2,s3,84f8 <__hexnan+0x13a>
    84ae:	4785                	li	a5,1
    84b0:	00f92023          	sw	a5,0(s2)
    84b4:	4515                	li	a0,5
    84b6:	a0a1                	j	84fe <__hexnan+0x140>
    84b8:	0605                	addi	a2,a2,1
    84ba:	0b85                	addi	s7,s7,1
    84bc:	00cc5863          	bge	s8,a2,84cc <__hexnan+0x10e>
    84c0:	f889fee3          	bgeu	s3,s0,845c <__hexnan+0x9e>
    84c4:	fe042e23          	sw	zero,-4(s0)
    84c8:	4605                	li	a2,1
    84ca:	1471                	addi	s0,s0,-4
    84cc:	401c                	lw	a5,0(s0)
    84ce:	893d                	andi	a0,a0,15
    84d0:	0792                	slli	a5,a5,0x4
    84d2:	8fc9                	or	a5,a5,a0
    84d4:	c01c                	sw	a5,0(s0)
    84d6:	b759                	j	845c <__hexnan+0x9e>
    84d8:	fc0a06e3          	beqz	s4,84a4 <__hexnan+0xe6>
    84dc:	02000793          	li	a5,32
    84e0:	414787b3          	sub	a5,a5,s4
    84e4:	5a7d                	li	s4,-1
    84e6:	00fa57b3          	srl	a5,s4,a5
    84ea:	ffc4aa03          	lw	s4,-4(s1)
    84ee:	00fa7a33          	and	s4,s4,a5
    84f2:	ff44ae23          	sw	s4,-4(s1)
    84f6:	b77d                	j	84a4 <__hexnan+0xe6>
    84f8:	1971                	addi	s2,s2,-4
    84fa:	b76d                	j	84a4 <__hexnan+0xe6>
    84fc:	4511                	li	a0,4
    84fe:	40b6                	lw	ra,76(sp)
    8500:	4426                	lw	s0,72(sp)
    8502:	4496                	lw	s1,68(sp)
    8504:	4906                	lw	s2,64(sp)
    8506:	59f2                	lw	s3,60(sp)
    8508:	5a62                	lw	s4,56(sp)
    850a:	5ad2                	lw	s5,52(sp)
    850c:	5b42                	lw	s6,48(sp)
    850e:	5bb2                	lw	s7,44(sp)
    8510:	5c22                	lw	s8,40(sp)
    8512:	5c92                	lw	s9,36(sp)
    8514:	5d02                	lw	s10,32(sp)
    8516:	4df2                	lw	s11,28(sp)
    8518:	6161                	addi	sp,sp,80
    851a:	8082                	ret

0000851c <__localeconv_l>:
    851c:	0f050513          	addi	a0,a0,240
    8520:	8082                	ret

00008522 <_localeconv_r>:
    8522:	81418793          	addi	a5,gp,-2028 # 200001f4 <_impure_ptr>
    8526:	439c                	lw	a5,0(a5)
    8528:	5388                	lw	a0,32(a5)
    852a:	e509                	bnez	a0,8534 <_localeconv_r+0x12>
    852c:	1fff8517          	auipc	a0,0x1fff8
    8530:	b4450513          	addi	a0,a0,-1212 # 20000070 <__global_locale>
    8534:	0f050513          	addi	a0,a0,240
    8538:	8082                	ret

0000853a <__swhatbuf_r>:
    853a:	7119                	addi	sp,sp,-128
    853c:	daa6                	sw	s1,116(sp)
    853e:	84ae                	mv	s1,a1
    8540:	00e59583          	lh	a1,14(a1)
    8544:	dca2                	sw	s0,120(sp)
    8546:	de86                	sw	ra,124(sp)
    8548:	8432                	mv	s0,a2
    854a:	0005db63          	bgez	a1,8560 <__swhatbuf_r+0x26>
    854e:	24de                	lhu	a5,12(s1)
    8550:	0006a023          	sw	zero,0(a3)
    8554:	0807f793          	andi	a5,a5,128
    8558:	e785                	bnez	a5,8580 <__swhatbuf_r+0x46>
    855a:	40000793          	li	a5,1024
    855e:	a01d                	j	8584 <__swhatbuf_r+0x4a>
    8560:	0830                	addi	a2,sp,24
    8562:	c636                	sw	a3,12(sp)
    8564:	6cd000ef          	jal	ra,9430 <_fstat_r>
    8568:	46b2                	lw	a3,12(sp)
    856a:	fe0542e3          	bltz	a0,854e <__swhatbuf_r+0x14>
    856e:	4772                	lw	a4,28(sp)
    8570:	67bd                	lui	a5,0xf
    8572:	8ff9                	and	a5,a5,a4
    8574:	7779                	lui	a4,0xffffe
    8576:	97ba                	add	a5,a5,a4
    8578:	0017b793          	seqz	a5,a5
    857c:	c29c                	sw	a5,0(a3)
    857e:	bff1                	j	855a <__swhatbuf_r+0x20>
    8580:	04000793          	li	a5,64
    8584:	c01c                	sw	a5,0(s0)
    8586:	50f6                	lw	ra,124(sp)
    8588:	5466                	lw	s0,120(sp)
    858a:	54d6                	lw	s1,116(sp)
    858c:	4501                	li	a0,0
    858e:	6109                	addi	sp,sp,128
    8590:	8082                	ret

00008592 <__smakebuf_r>:
    8592:	25de                	lhu	a5,12(a1)
    8594:	1101                	addi	sp,sp,-32
    8596:	cc22                	sw	s0,24(sp)
    8598:	ce06                	sw	ra,28(sp)
    859a:	ca26                	sw	s1,20(sp)
    859c:	c84a                	sw	s2,16(sp)
    859e:	8b89                	andi	a5,a5,2
    85a0:	842e                	mv	s0,a1
    85a2:	cf89                	beqz	a5,85bc <__smakebuf_r+0x2a>
    85a4:	04740793          	addi	a5,s0,71
    85a8:	c01c                	sw	a5,0(s0)
    85aa:	c81c                	sw	a5,16(s0)
    85ac:	4785                	li	a5,1
    85ae:	c85c                	sw	a5,20(s0)
    85b0:	40f2                	lw	ra,28(sp)
    85b2:	4462                	lw	s0,24(sp)
    85b4:	44d2                	lw	s1,20(sp)
    85b6:	4942                	lw	s2,16(sp)
    85b8:	6105                	addi	sp,sp,32
    85ba:	8082                	ret
    85bc:	0074                	addi	a3,sp,12
    85be:	0030                	addi	a2,sp,8
    85c0:	84aa                	mv	s1,a0
    85c2:	f79ff0ef          	jal	ra,853a <__swhatbuf_r>
    85c6:	45a2                	lw	a1,8(sp)
    85c8:	892a                	mv	s2,a0
    85ca:	8526                	mv	a0,s1
    85cc:	b11fc0ef          	jal	ra,50dc <_malloc_r>
    85d0:	e919                	bnez	a0,85e6 <__smakebuf_r+0x54>
    85d2:	00c41783          	lh	a5,12(s0)
    85d6:	2007f713          	andi	a4,a5,512
    85da:	fb79                	bnez	a4,85b0 <__smakebuf_r+0x1e>
    85dc:	9bf1                	andi	a5,a5,-4
    85de:	0027e793          	ori	a5,a5,2
    85e2:	a45e                	sh	a5,12(s0)
    85e4:	b7c1                	j	85a4 <__smakebuf_r+0x12>
    85e6:	fffff797          	auipc	a5,0xfffff
    85ea:	63478793          	addi	a5,a5,1588 # 7c1a <_cleanup_r>
    85ee:	d49c                	sw	a5,40(s1)
    85f0:	245e                	lhu	a5,12(s0)
    85f2:	c008                	sw	a0,0(s0)
    85f4:	c808                	sw	a0,16(s0)
    85f6:	0807e793          	ori	a5,a5,128
    85fa:	a45e                	sh	a5,12(s0)
    85fc:	47a2                	lw	a5,8(sp)
    85fe:	c85c                	sw	a5,20(s0)
    8600:	47b2                	lw	a5,12(sp)
    8602:	cf81                	beqz	a5,861a <__smakebuf_r+0x88>
    8604:	00e41583          	lh	a1,14(s0)
    8608:	8526                	mv	a0,s1
    860a:	65b000ef          	jal	ra,9464 <_isatty_r>
    860e:	c511                	beqz	a0,861a <__smakebuf_r+0x88>
    8610:	245e                	lhu	a5,12(s0)
    8612:	9bf1                	andi	a5,a5,-4
    8614:	0017e793          	ori	a5,a5,1
    8618:	a45e                	sh	a5,12(s0)
    861a:	245e                	lhu	a5,12(s0)
    861c:	00f96933          	or	s2,s2,a5
    8620:	01241623          	sh	s2,12(s0)
    8624:	b771                	j	85b0 <__smakebuf_r+0x1e>

00008626 <memchr>:
    8626:	0ff5f593          	andi	a1,a1,255
    862a:	962a                	add	a2,a2,a0
    862c:	00c51463          	bne	a0,a2,8634 <memchr+0xe>
    8630:	4501                	li	a0,0
    8632:	8082                	ret
    8634:	211c                	lbu	a5,0(a0)
    8636:	feb78ee3          	beq	a5,a1,8632 <memchr+0xc>
    863a:	0505                	addi	a0,a0,1
    863c:	bfc5                	j	862c <memchr+0x6>

0000863e <__malloc_lock>:
    863e:	8082                	ret

00008640 <__malloc_unlock>:
    8640:	8082                	ret

00008642 <_Balloc>:
    8642:	515c                	lw	a5,36(a0)
    8644:	1141                	addi	sp,sp,-16
    8646:	c422                	sw	s0,8(sp)
    8648:	c04a                	sw	s2,0(sp)
    864a:	c606                	sw	ra,12(sp)
    864c:	c226                	sw	s1,4(sp)
    864e:	842a                	mv	s0,a0
    8650:	892e                	mv	s2,a1
    8652:	ef89                	bnez	a5,866c <_Balloc+0x2a>
    8654:	4541                	li	a0,16
    8656:	8e9fc0ef          	jal	ra,4f3e <malloc>
    865a:	d048                	sw	a0,36(s0)
    865c:	00052223          	sw	zero,4(a0)
    8660:	00052423          	sw	zero,8(a0)
    8664:	00052023          	sw	zero,0(a0)
    8668:	00052623          	sw	zero,12(a0)
    866c:	5044                	lw	s1,36(s0)
    866e:	44dc                	lw	a5,12(s1)
    8670:	c79d                	beqz	a5,869e <_Balloc+0x5c>
    8672:	5058                	lw	a4,36(s0)
    8674:	00291793          	slli	a5,s2,0x2
    8678:	4758                	lw	a4,12(a4)
    867a:	97ba                	add	a5,a5,a4
    867c:	4388                	lw	a0,0(a5)
    867e:	e129                	bnez	a0,86c0 <_Balloc+0x7e>
    8680:	4485                	li	s1,1
    8682:	012494b3          	sll	s1,s1,s2
    8686:	00548613          	addi	a2,s1,5
    868a:	060a                	slli	a2,a2,0x2
    868c:	4585                	li	a1,1
    868e:	8522                	mv	a0,s0
    8690:	13d000ef          	jal	ra,8fcc <_calloc_r>
    8694:	cd19                	beqz	a0,86b2 <_Balloc+0x70>
    8696:	01252223          	sw	s2,4(a0)
    869a:	c504                	sw	s1,8(a0)
    869c:	a025                	j	86c4 <_Balloc+0x82>
    869e:	02100613          	li	a2,33
    86a2:	4591                	li	a1,4
    86a4:	8522                	mv	a0,s0
    86a6:	127000ef          	jal	ra,8fcc <_calloc_r>
    86aa:	505c                	lw	a5,36(s0)
    86ac:	c4c8                	sw	a0,12(s1)
    86ae:	47dc                	lw	a5,12(a5)
    86b0:	f3e9                	bnez	a5,8672 <_Balloc+0x30>
    86b2:	4501                	li	a0,0
    86b4:	40b2                	lw	ra,12(sp)
    86b6:	4422                	lw	s0,8(sp)
    86b8:	4492                	lw	s1,4(sp)
    86ba:	4902                	lw	s2,0(sp)
    86bc:	0141                	addi	sp,sp,16
    86be:	8082                	ret
    86c0:	4118                	lw	a4,0(a0)
    86c2:	c398                	sw	a4,0(a5)
    86c4:	00052823          	sw	zero,16(a0)
    86c8:	00052623          	sw	zero,12(a0)
    86cc:	b7e5                	j	86b4 <_Balloc+0x72>

000086ce <_Bfree>:
    86ce:	515c                	lw	a5,36(a0)
    86d0:	1101                	addi	sp,sp,-32
    86d2:	cc22                	sw	s0,24(sp)
    86d4:	ce06                	sw	ra,28(sp)
    86d6:	842a                	mv	s0,a0
    86d8:	ef99                	bnez	a5,86f6 <_Bfree+0x28>
    86da:	4541                	li	a0,16
    86dc:	c62e                	sw	a1,12(sp)
    86de:	861fc0ef          	jal	ra,4f3e <malloc>
    86e2:	45b2                	lw	a1,12(sp)
    86e4:	d048                	sw	a0,36(s0)
    86e6:	00052223          	sw	zero,4(a0)
    86ea:	00052423          	sw	zero,8(a0)
    86ee:	00052023          	sw	zero,0(a0)
    86f2:	00052623          	sw	zero,12(a0)
    86f6:	c991                	beqz	a1,870a <_Bfree+0x3c>
    86f8:	5054                	lw	a3,36(s0)
    86fa:	41dc                	lw	a5,4(a1)
    86fc:	00279713          	slli	a4,a5,0x2
    8700:	46dc                	lw	a5,12(a3)
    8702:	97ba                	add	a5,a5,a4
    8704:	4398                	lw	a4,0(a5)
    8706:	c198                	sw	a4,0(a1)
    8708:	c38c                	sw	a1,0(a5)
    870a:	40f2                	lw	ra,28(sp)
    870c:	4462                	lw	s0,24(sp)
    870e:	6105                	addi	sp,sp,32
    8710:	8082                	ret

00008712 <__multadd>:
    8712:	7179                	addi	sp,sp,-48
    8714:	ce4e                	sw	s3,28(sp)
    8716:	89aa                	mv	s3,a0
    8718:	6541                	lui	a0,0x10
    871a:	d422                	sw	s0,40(sp)
    871c:	d226                	sw	s1,36(sp)
    871e:	842e                	mv	s0,a1
    8720:	4984                	lw	s1,16(a1)
    8722:	d606                	sw	ra,44(sp)
    8724:	d04a                	sw	s2,32(sp)
    8726:	05d1                	addi	a1,a1,20
    8728:	4801                	li	a6,0
    872a:	157d                	addi	a0,a0,-1
    872c:	419c                	lw	a5,0(a1)
    872e:	0591                	addi	a1,a1,4
    8730:	0805                	addi	a6,a6,1
    8732:	00a7f733          	and	a4,a5,a0
    8736:	02c70733          	mul	a4,a4,a2
    873a:	83c1                	srli	a5,a5,0x10
    873c:	02c787b3          	mul	a5,a5,a2
    8740:	9736                	add	a4,a4,a3
    8742:	01075693          	srli	a3,a4,0x10
    8746:	8f69                	and	a4,a4,a0
    8748:	97b6                	add	a5,a5,a3
    874a:	0107d693          	srli	a3,a5,0x10
    874e:	07c2                	slli	a5,a5,0x10
    8750:	97ba                	add	a5,a5,a4
    8752:	fef5ae23          	sw	a5,-4(a1)
    8756:	fc984be3          	blt	a6,s1,872c <__multadd+0x1a>
    875a:	c2a1                	beqz	a3,879a <__multadd+0x88>
    875c:	441c                	lw	a5,8(s0)
    875e:	02f4c763          	blt	s1,a5,878c <__multadd+0x7a>
    8762:	404c                	lw	a1,4(s0)
    8764:	854e                	mv	a0,s3
    8766:	c636                	sw	a3,12(sp)
    8768:	0585                	addi	a1,a1,1
    876a:	ed9ff0ef          	jal	ra,8642 <_Balloc>
    876e:	4810                	lw	a2,16(s0)
    8770:	00c40593          	addi	a1,s0,12
    8774:	892a                	mv	s2,a0
    8776:	0609                	addi	a2,a2,2
    8778:	060a                	slli	a2,a2,0x2
    877a:	0531                	addi	a0,a0,12
    877c:	ffefc0ef          	jal	ra,4f7a <memcpy>
    8780:	85a2                	mv	a1,s0
    8782:	854e                	mv	a0,s3
    8784:	f4bff0ef          	jal	ra,86ce <_Bfree>
    8788:	46b2                	lw	a3,12(sp)
    878a:	844a                	mv	s0,s2
    878c:	00448793          	addi	a5,s1,4
    8790:	078a                	slli	a5,a5,0x2
    8792:	97a2                	add	a5,a5,s0
    8794:	c3d4                	sw	a3,4(a5)
    8796:	0485                	addi	s1,s1,1
    8798:	c804                	sw	s1,16(s0)
    879a:	8522                	mv	a0,s0
    879c:	50b2                	lw	ra,44(sp)
    879e:	5422                	lw	s0,40(sp)
    87a0:	5492                	lw	s1,36(sp)
    87a2:	5902                	lw	s2,32(sp)
    87a4:	49f2                	lw	s3,28(sp)
    87a6:	6145                	addi	sp,sp,48
    87a8:	8082                	ret

000087aa <__s2b>:
    87aa:	7179                	addi	sp,sp,-48
    87ac:	00868793          	addi	a5,a3,8
    87b0:	cc52                	sw	s4,24(sp)
    87b2:	8a36                	mv	s4,a3
    87b4:	46a5                	li	a3,9
    87b6:	d422                	sw	s0,40(sp)
    87b8:	d226                	sw	s1,36(sp)
    87ba:	ce4e                	sw	s3,28(sp)
    87bc:	842e                	mv	s0,a1
    87be:	02d7c7b3          	div	a5,a5,a3
    87c2:	d606                	sw	ra,44(sp)
    87c4:	d04a                	sw	s2,32(sp)
    87c6:	ca56                	sw	s5,20(sp)
    87c8:	89aa                	mv	s3,a0
    87ca:	84b2                	mv	s1,a2
    87cc:	4685                	li	a3,1
    87ce:	4581                	li	a1,0
    87d0:	04f6cc63          	blt	a3,a5,8828 <__s2b+0x7e>
    87d4:	854e                	mv	a0,s3
    87d6:	c63a                	sw	a4,12(sp)
    87d8:	e6bff0ef          	jal	ra,8642 <_Balloc>
    87dc:	4732                	lw	a4,12(sp)
    87de:	4785                	li	a5,1
    87e0:	c91c                	sw	a5,16(a0)
    87e2:	c958                	sw	a4,20(a0)
    87e4:	47a5                	li	a5,9
    87e6:	0497d463          	bge	a5,s1,882e <__s2b+0x84>
    87ea:	00940a93          	addi	s5,s0,9
    87ee:	8956                	mv	s2,s5
    87f0:	9426                	add	s0,s0,s1
    87f2:	0905                	addi	s2,s2,1
    87f4:	fff94683          	lbu	a3,-1(s2)
    87f8:	85aa                	mv	a1,a0
    87fa:	4629                	li	a2,10
    87fc:	fd068693          	addi	a3,a3,-48
    8800:	854e                	mv	a0,s3
    8802:	f11ff0ef          	jal	ra,8712 <__multadd>
    8806:	fe8916e3          	bne	s2,s0,87f2 <__s2b+0x48>
    880a:	ff848413          	addi	s0,s1,-8
    880e:	9456                	add	s0,s0,s5
    8810:	8926                	mv	s2,s1
    8812:	03494163          	blt	s2,s4,8834 <__s2b+0x8a>
    8816:	50b2                	lw	ra,44(sp)
    8818:	5422                	lw	s0,40(sp)
    881a:	5492                	lw	s1,36(sp)
    881c:	5902                	lw	s2,32(sp)
    881e:	49f2                	lw	s3,28(sp)
    8820:	4a62                	lw	s4,24(sp)
    8822:	4ad2                	lw	s5,20(sp)
    8824:	6145                	addi	sp,sp,48
    8826:	8082                	ret
    8828:	0686                	slli	a3,a3,0x1
    882a:	0585                	addi	a1,a1,1
    882c:	b755                	j	87d0 <__s2b+0x26>
    882e:	0429                	addi	s0,s0,10
    8830:	44a5                	li	s1,9
    8832:	bff9                	j	8810 <__s2b+0x66>
    8834:	409907b3          	sub	a5,s2,s1
    8838:	97a2                	add	a5,a5,s0
    883a:	2394                	lbu	a3,0(a5)
    883c:	85aa                	mv	a1,a0
    883e:	4629                	li	a2,10
    8840:	fd068693          	addi	a3,a3,-48
    8844:	854e                	mv	a0,s3
    8846:	ecdff0ef          	jal	ra,8712 <__multadd>
    884a:	0905                	addi	s2,s2,1
    884c:	b7d9                	j	8812 <__s2b+0x68>

0000884e <__hi0bits>:
    884e:	7741                	lui	a4,0xffff0
    8850:	8f69                	and	a4,a4,a0
    8852:	87aa                	mv	a5,a0
    8854:	4501                	li	a0,0
    8856:	e319                	bnez	a4,885c <__hi0bits+0xe>
    8858:	07c2                	slli	a5,a5,0x10
    885a:	4541                	li	a0,16
    885c:	ff000737          	lui	a4,0xff000
    8860:	8f7d                	and	a4,a4,a5
    8862:	e319                	bnez	a4,8868 <__hi0bits+0x1a>
    8864:	0521                	addi	a0,a0,8
    8866:	07a2                	slli	a5,a5,0x8
    8868:	f0000737          	lui	a4,0xf0000
    886c:	8f7d                	and	a4,a4,a5
    886e:	e319                	bnez	a4,8874 <__hi0bits+0x26>
    8870:	0511                	addi	a0,a0,4
    8872:	0792                	slli	a5,a5,0x4
    8874:	c0000737          	lui	a4,0xc0000
    8878:	8f7d                	and	a4,a4,a5
    887a:	e319                	bnez	a4,8880 <__hi0bits+0x32>
    887c:	0509                	addi	a0,a0,2
    887e:	078a                	slli	a5,a5,0x2
    8880:	0007c963          	bltz	a5,8892 <__hi0bits+0x44>
    8884:	00179713          	slli	a4,a5,0x1
    8888:	0505                	addi	a0,a0,1
    888a:	00074463          	bltz	a4,8892 <__hi0bits+0x44>
    888e:	02000513          	li	a0,32
    8892:	8082                	ret

00008894 <__lo0bits>:
    8894:	411c                	lw	a5,0(a0)
    8896:	0077f713          	andi	a4,a5,7
    889a:	c30d                	beqz	a4,88bc <__lo0bits+0x28>
    889c:	0017f693          	andi	a3,a5,1
    88a0:	4701                	li	a4,0
    88a2:	e699                	bnez	a3,88b0 <__lo0bits+0x1c>
    88a4:	0027f713          	andi	a4,a5,2
    88a8:	c711                	beqz	a4,88b4 <__lo0bits+0x20>
    88aa:	8385                	srli	a5,a5,0x1
    88ac:	c11c                	sw	a5,0(a0)
    88ae:	4705                	li	a4,1
    88b0:	853a                	mv	a0,a4
    88b2:	8082                	ret
    88b4:	8389                	srli	a5,a5,0x2
    88b6:	c11c                	sw	a5,0(a0)
    88b8:	4709                	li	a4,2
    88ba:	bfdd                	j	88b0 <__lo0bits+0x1c>
    88bc:	01079693          	slli	a3,a5,0x10
    88c0:	82c1                	srli	a3,a3,0x10
    88c2:	4701                	li	a4,0
    88c4:	e299                	bnez	a3,88ca <__lo0bits+0x36>
    88c6:	83c1                	srli	a5,a5,0x10
    88c8:	4741                	li	a4,16
    88ca:	0ff7f693          	andi	a3,a5,255
    88ce:	e299                	bnez	a3,88d4 <__lo0bits+0x40>
    88d0:	0721                	addi	a4,a4,8
    88d2:	83a1                	srli	a5,a5,0x8
    88d4:	00f7f693          	andi	a3,a5,15
    88d8:	e299                	bnez	a3,88de <__lo0bits+0x4a>
    88da:	0711                	addi	a4,a4,4
    88dc:	8391                	srli	a5,a5,0x4
    88de:	0037f693          	andi	a3,a5,3
    88e2:	e299                	bnez	a3,88e8 <__lo0bits+0x54>
    88e4:	0709                	addi	a4,a4,2
    88e6:	8389                	srli	a5,a5,0x2
    88e8:	0017f693          	andi	a3,a5,1
    88ec:	e681                	bnez	a3,88f4 <__lo0bits+0x60>
    88ee:	8385                	srli	a5,a5,0x1
    88f0:	0705                	addi	a4,a4,1
    88f2:	c399                	beqz	a5,88f8 <__lo0bits+0x64>
    88f4:	c11c                	sw	a5,0(a0)
    88f6:	bf6d                	j	88b0 <__lo0bits+0x1c>
    88f8:	02000713          	li	a4,32
    88fc:	bf55                	j	88b0 <__lo0bits+0x1c>

000088fe <__i2b>:
    88fe:	1141                	addi	sp,sp,-16
    8900:	c422                	sw	s0,8(sp)
    8902:	842e                	mv	s0,a1
    8904:	4585                	li	a1,1
    8906:	c606                	sw	ra,12(sp)
    8908:	d3bff0ef          	jal	ra,8642 <_Balloc>
    890c:	c940                	sw	s0,20(a0)
    890e:	40b2                	lw	ra,12(sp)
    8910:	4422                	lw	s0,8(sp)
    8912:	4705                	li	a4,1
    8914:	c918                	sw	a4,16(a0)
    8916:	0141                	addi	sp,sp,16
    8918:	8082                	ret

0000891a <__multiply>:
    891a:	4998                	lw	a4,16(a1)
    891c:	4a1c                	lw	a5,16(a2)
    891e:	7179                	addi	sp,sp,-48
    8920:	d226                	sw	s1,36(sp)
    8922:	d606                	sw	ra,44(sp)
    8924:	d422                	sw	s0,40(sp)
    8926:	d04a                	sw	s2,32(sp)
    8928:	ce4e                	sw	s3,28(sp)
    892a:	84ae                	mv	s1,a1
    892c:	00f75463          	bge	a4,a5,8934 <__multiply+0x1a>
    8930:	84b2                	mv	s1,a2
    8932:	862e                	mv	a2,a1
    8934:	0104a983          	lw	s3,16(s1)
    8938:	01062903          	lw	s2,16(a2) # 10010 <_data_lma+0xf2c>
    893c:	449c                	lw	a5,8(s1)
    893e:	40cc                	lw	a1,4(s1)
    8940:	01298433          	add	s0,s3,s2
    8944:	0087d363          	bge	a5,s0,894a <__multiply+0x30>
    8948:	0585                	addi	a1,a1,1
    894a:	c632                	sw	a2,12(sp)
    894c:	cf7ff0ef          	jal	ra,8642 <_Balloc>
    8950:	4632                	lw	a2,12(sp)
    8952:	01450813          	addi	a6,a0,20 # 10014 <_data_lma+0xf30>
    8956:	00241313          	slli	t1,s0,0x2
    895a:	9342                	add	t1,t1,a6
    895c:	87c2                	mv	a5,a6
    895e:	0267ed63          	bltu	a5,t1,8998 <__multiply+0x7e>
    8962:	01448593          	addi	a1,s1,20
    8966:	00299893          	slli	a7,s3,0x2
    896a:	0651                	addi	a2,a2,20
    896c:	00291e13          	slli	t3,s2,0x2
    8970:	66c1                	lui	a3,0x10
    8972:	98ae                	add	a7,a7,a1
    8974:	9e32                	add	t3,t3,a2
    8976:	16fd                	addi	a3,a3,-1
    8978:	03c66463          	bltu	a2,t3,89a0 <__multiply+0x86>
    897c:	00805663          	blez	s0,8988 <__multiply+0x6e>
    8980:	1371                	addi	t1,t1,-4
    8982:	00032783          	lw	a5,0(t1)
    8986:	cbf1                	beqz	a5,8a5a <__multiply+0x140>
    8988:	c900                	sw	s0,16(a0)
    898a:	50b2                	lw	ra,44(sp)
    898c:	5422                	lw	s0,40(sp)
    898e:	5492                	lw	s1,36(sp)
    8990:	5902                	lw	s2,32(sp)
    8992:	49f2                	lw	s3,28(sp)
    8994:	6145                	addi	sp,sp,48
    8996:	8082                	ret
    8998:	0007a023          	sw	zero,0(a5)
    899c:	0791                	addi	a5,a5,4
    899e:	b7c1                	j	895e <__multiply+0x44>
    89a0:	00062f83          	lw	t6,0(a2)
    89a4:	00dfffb3          	and	t6,t6,a3
    89a8:	040f8a63          	beqz	t6,89fc <__multiply+0xe2>
    89ac:	8f42                	mv	t5,a6
    89ae:	82ae                	mv	t0,a1
    89b0:	4481                	li	s1,0
    89b2:	0002a703          	lw	a4,0(t0)
    89b6:	000f2383          	lw	t2,0(t5)
    89ba:	0f11                	addi	t5,t5,4
    89bc:	00d77eb3          	and	t4,a4,a3
    89c0:	03fe8eb3          	mul	t4,t4,t6
    89c4:	00d3f7b3          	and	a5,t2,a3
    89c8:	0103d393          	srli	t2,t2,0x10
    89cc:	0291                	addi	t0,t0,4
    89ce:	9ebe                	add	t4,t4,a5
    89d0:	01075793          	srli	a5,a4,0x10
    89d4:	03f787b3          	mul	a5,a5,t6
    89d8:	9ea6                	add	t4,t4,s1
    89da:	010ed713          	srli	a4,t4,0x10
    89de:	00defeb3          	and	t4,t4,a3
    89e2:	979e                	add	a5,a5,t2
    89e4:	97ba                	add	a5,a5,a4
    89e6:	0107d493          	srli	s1,a5,0x10
    89ea:	07c2                	slli	a5,a5,0x10
    89ec:	01d7e7b3          	or	a5,a5,t4
    89f0:	feff2e23          	sw	a5,-4(t5)
    89f4:	fb12efe3          	bltu	t0,a7,89b2 <__multiply+0x98>
    89f8:	009f2023          	sw	s1,0(t5)
    89fc:	00265283          	lhu	t0,2(a2)
    8a00:	04028a63          	beqz	t0,8a54 <__multiply+0x13a>
    8a04:	00082783          	lw	a5,0(a6)
    8a08:	8ec2                	mv	t4,a6
    8a0a:	8f2e                	mv	t5,a1
    8a0c:	4f81                	li	t6,0
    8a0e:	000f2703          	lw	a4,0(t5)
    8a12:	002ed383          	lhu	t2,2(t4)
    8a16:	8ff5                	and	a5,a5,a3
    8a18:	8f75                	and	a4,a4,a3
    8a1a:	02570733          	mul	a4,a4,t0
    8a1e:	0e91                	addi	t4,t4,4
    8a20:	0f11                	addi	t5,t5,4
    8a22:	971e                	add	a4,a4,t2
    8a24:	977e                	add	a4,a4,t6
    8a26:	01071f93          	slli	t6,a4,0x10
    8a2a:	00ffe7b3          	or	a5,t6,a5
    8a2e:	fefeae23          	sw	a5,-4(t4)
    8a32:	ffef5783          	lhu	a5,-2(t5)
    8a36:	000eaf83          	lw	t6,0(t4)
    8a3a:	8341                	srli	a4,a4,0x10
    8a3c:	025787b3          	mul	a5,a5,t0
    8a40:	00dfffb3          	and	t6,t6,a3
    8a44:	97fe                	add	a5,a5,t6
    8a46:	97ba                	add	a5,a5,a4
    8a48:	0107df93          	srli	t6,a5,0x10
    8a4c:	fd1f61e3          	bltu	t5,a7,8a0e <__multiply+0xf4>
    8a50:	00fea023          	sw	a5,0(t4)
    8a54:	0611                	addi	a2,a2,4
    8a56:	0811                	addi	a6,a6,4
    8a58:	b705                	j	8978 <__multiply+0x5e>
    8a5a:	147d                	addi	s0,s0,-1
    8a5c:	b705                	j	897c <__multiply+0x62>

00008a5e <__pow5mult>:
    8a5e:	1101                	addi	sp,sp,-32
    8a60:	ca26                	sw	s1,20(sp)
    8a62:	c84a                	sw	s2,16(sp)
    8a64:	c64e                	sw	s3,12(sp)
    8a66:	ce06                	sw	ra,28(sp)
    8a68:	cc22                	sw	s0,24(sp)
    8a6a:	c452                	sw	s4,8(sp)
    8a6c:	00367793          	andi	a5,a2,3
    8a70:	892a                	mv	s2,a0
    8a72:	84b2                	mv	s1,a2
    8a74:	89ae                	mv	s3,a1
    8a76:	cf89                	beqz	a5,8a90 <__pow5mult+0x32>
    8a78:	17fd                	addi	a5,a5,-1
    8a7a:	00006717          	auipc	a4,0x6
    8a7e:	4c670713          	addi	a4,a4,1222 # ef40 <p05.3319>
    8a82:	078a                	slli	a5,a5,0x2
    8a84:	97ba                	add	a5,a5,a4
    8a86:	4390                	lw	a2,0(a5)
    8a88:	4681                	li	a3,0
    8a8a:	c89ff0ef          	jal	ra,8712 <__multadd>
    8a8e:	89aa                	mv	s3,a0
    8a90:	8489                	srai	s1,s1,0x2
    8a92:	cca5                	beqz	s1,8b0a <__pow5mult+0xac>
    8a94:	02492783          	lw	a5,36(s2)
    8a98:	ef91                	bnez	a5,8ab4 <__pow5mult+0x56>
    8a9a:	4541                	li	a0,16
    8a9c:	ca2fc0ef          	jal	ra,4f3e <malloc>
    8aa0:	02a92223          	sw	a0,36(s2)
    8aa4:	00052223          	sw	zero,4(a0)
    8aa8:	00052423          	sw	zero,8(a0)
    8aac:	00052023          	sw	zero,0(a0)
    8ab0:	00052623          	sw	zero,12(a0)
    8ab4:	02492a03          	lw	s4,36(s2)
    8ab8:	008a2403          	lw	s0,8(s4)
    8abc:	e819                	bnez	s0,8ad2 <__pow5mult+0x74>
    8abe:	27100593          	li	a1,625
    8ac2:	854a                	mv	a0,s2
    8ac4:	e3bff0ef          	jal	ra,88fe <__i2b>
    8ac8:	00aa2423          	sw	a0,8(s4)
    8acc:	842a                	mv	s0,a0
    8ace:	00052023          	sw	zero,0(a0)
    8ad2:	0014f793          	andi	a5,s1,1
    8ad6:	cf81                	beqz	a5,8aee <__pow5mult+0x90>
    8ad8:	85ce                	mv	a1,s3
    8ada:	8622                	mv	a2,s0
    8adc:	854a                	mv	a0,s2
    8ade:	e3dff0ef          	jal	ra,891a <__multiply>
    8ae2:	8a2a                	mv	s4,a0
    8ae4:	85ce                	mv	a1,s3
    8ae6:	854a                	mv	a0,s2
    8ae8:	be7ff0ef          	jal	ra,86ce <_Bfree>
    8aec:	89d2                	mv	s3,s4
    8aee:	8485                	srai	s1,s1,0x1
    8af0:	cc89                	beqz	s1,8b0a <__pow5mult+0xac>
    8af2:	4008                	lw	a0,0(s0)
    8af4:	e909                	bnez	a0,8b06 <__pow5mult+0xa8>
    8af6:	8622                	mv	a2,s0
    8af8:	85a2                	mv	a1,s0
    8afa:	854a                	mv	a0,s2
    8afc:	e1fff0ef          	jal	ra,891a <__multiply>
    8b00:	c008                	sw	a0,0(s0)
    8b02:	00052023          	sw	zero,0(a0)
    8b06:	842a                	mv	s0,a0
    8b08:	b7e9                	j	8ad2 <__pow5mult+0x74>
    8b0a:	40f2                	lw	ra,28(sp)
    8b0c:	4462                	lw	s0,24(sp)
    8b0e:	854e                	mv	a0,s3
    8b10:	44d2                	lw	s1,20(sp)
    8b12:	4942                	lw	s2,16(sp)
    8b14:	49b2                	lw	s3,12(sp)
    8b16:	4a22                	lw	s4,8(sp)
    8b18:	6105                	addi	sp,sp,32
    8b1a:	8082                	ret

00008b1c <__lshift>:
    8b1c:	7179                	addi	sp,sp,-48
    8b1e:	d226                	sw	s1,36(sp)
    8b20:	84ae                	mv	s1,a1
    8b22:	ce4e                	sw	s3,28(sp)
    8b24:	0104a983          	lw	s3,16(s1)
    8b28:	d422                	sw	s0,40(sp)
    8b2a:	41cc                	lw	a1,4(a1)
    8b2c:	40565413          	srai	s0,a2,0x5
    8b30:	449c                	lw	a5,8(s1)
    8b32:	99a2                	add	s3,s3,s0
    8b34:	d04a                	sw	s2,32(sp)
    8b36:	ca56                	sw	s5,20(sp)
    8b38:	d606                	sw	ra,44(sp)
    8b3a:	cc52                	sw	s4,24(sp)
    8b3c:	8aaa                	mv	s5,a0
    8b3e:	00198913          	addi	s2,s3,1
    8b42:	0927c463          	blt	a5,s2,8bca <__lshift+0xae>
    8b46:	8556                	mv	a0,s5
    8b48:	c632                	sw	a2,12(sp)
    8b4a:	af9ff0ef          	jal	ra,8642 <_Balloc>
    8b4e:	4632                	lw	a2,12(sp)
    8b50:	01450793          	addi	a5,a0,20
    8b54:	8a2a                	mv	s4,a0
    8b56:	86be                	mv	a3,a5
    8b58:	4701                	li	a4,0
    8b5a:	0691                	addi	a3,a3,4
    8b5c:	06874a63          	blt	a4,s0,8bd0 <__lshift+0xb4>
    8b60:	00045363          	bgez	s0,8b66 <__lshift+0x4a>
    8b64:	4401                	li	s0,0
    8b66:	4894                	lw	a3,16(s1)
    8b68:	040a                	slli	s0,s0,0x2
    8b6a:	00878733          	add	a4,a5,s0
    8b6e:	068a                	slli	a3,a3,0x2
    8b70:	01448793          	addi	a5,s1,20
    8b74:	8a7d                	andi	a2,a2,31
    8b76:	96be                	add	a3,a3,a5
    8b78:	c225                	beqz	a2,8bd8 <__lshift+0xbc>
    8b7a:	02000813          	li	a6,32
    8b7e:	40c80833          	sub	a6,a6,a2
    8b82:	4581                	li	a1,0
    8b84:	4388                	lw	a0,0(a5)
    8b86:	0711                	addi	a4,a4,4
    8b88:	0791                	addi	a5,a5,4
    8b8a:	00c51533          	sll	a0,a0,a2
    8b8e:	8dc9                	or	a1,a1,a0
    8b90:	feb72e23          	sw	a1,-4(a4)
    8b94:	ffc7a583          	lw	a1,-4(a5)
    8b98:	0105d5b3          	srl	a1,a1,a6
    8b9c:	fed7e4e3          	bltu	a5,a3,8b84 <__lshift+0x68>
    8ba0:	c30c                	sw	a1,0(a4)
    8ba2:	c199                	beqz	a1,8ba8 <__lshift+0x8c>
    8ba4:	00298913          	addi	s2,s3,2
    8ba8:	197d                	addi	s2,s2,-1
    8baa:	012a2823          	sw	s2,16(s4)
    8bae:	8556                	mv	a0,s5
    8bb0:	85a6                	mv	a1,s1
    8bb2:	b1dff0ef          	jal	ra,86ce <_Bfree>
    8bb6:	50b2                	lw	ra,44(sp)
    8bb8:	5422                	lw	s0,40(sp)
    8bba:	8552                	mv	a0,s4
    8bbc:	5492                	lw	s1,36(sp)
    8bbe:	5902                	lw	s2,32(sp)
    8bc0:	49f2                	lw	s3,28(sp)
    8bc2:	4a62                	lw	s4,24(sp)
    8bc4:	4ad2                	lw	s5,20(sp)
    8bc6:	6145                	addi	sp,sp,48
    8bc8:	8082                	ret
    8bca:	0585                	addi	a1,a1,1
    8bcc:	0786                	slli	a5,a5,0x1
    8bce:	bf95                	j	8b42 <__lshift+0x26>
    8bd0:	fe06ae23          	sw	zero,-4(a3) # fffc <_data_lma+0xf18>
    8bd4:	0705                	addi	a4,a4,1
    8bd6:	b751                	j	8b5a <__lshift+0x3e>
    8bd8:	0791                	addi	a5,a5,4
    8bda:	ffc7a603          	lw	a2,-4(a5)
    8bde:	0711                	addi	a4,a4,4
    8be0:	fec72e23          	sw	a2,-4(a4)
    8be4:	fed7eae3          	bltu	a5,a3,8bd8 <__lshift+0xbc>
    8be8:	b7c1                	j	8ba8 <__lshift+0x8c>

00008bea <__mcmp>:
    8bea:	491c                	lw	a5,16(a0)
    8bec:	4998                	lw	a4,16(a1)
    8bee:	8f99                	sub	a5,a5,a4
    8bf0:	e38d                	bnez	a5,8c12 <__mcmp+0x28>
    8bf2:	070a                	slli	a4,a4,0x2
    8bf4:	0551                	addi	a0,a0,20
    8bf6:	05d1                	addi	a1,a1,20
    8bf8:	00e506b3          	add	a3,a0,a4
    8bfc:	95ba                	add	a1,a1,a4
    8bfe:	16f1                	addi	a3,a3,-4
    8c00:	15f1                	addi	a1,a1,-4
    8c02:	4290                	lw	a2,0(a3)
    8c04:	4198                	lw	a4,0(a1)
    8c06:	00e60863          	beq	a2,a4,8c16 <__mcmp+0x2c>
    8c0a:	57fd                	li	a5,-1
    8c0c:	00e66363          	bltu	a2,a4,8c12 <__mcmp+0x28>
    8c10:	4785                	li	a5,1
    8c12:	853e                	mv	a0,a5
    8c14:	8082                	ret
    8c16:	fed564e3          	bltu	a0,a3,8bfe <__mcmp+0x14>
    8c1a:	bfe5                	j	8c12 <__mcmp+0x28>

00008c1c <__mdiff>:
    8c1c:	1101                	addi	sp,sp,-32
    8c1e:	ca26                	sw	s1,20(sp)
    8c20:	84ae                	mv	s1,a1
    8c22:	c64e                	sw	s3,12(sp)
    8c24:	85b2                	mv	a1,a2
    8c26:	89aa                	mv	s3,a0
    8c28:	8526                	mv	a0,s1
    8c2a:	cc22                	sw	s0,24(sp)
    8c2c:	ce06                	sw	ra,28(sp)
    8c2e:	c84a                	sw	s2,16(sp)
    8c30:	8432                	mv	s0,a2
    8c32:	fb9ff0ef          	jal	ra,8bea <__mcmp>
    8c36:	e105                	bnez	a0,8c56 <__mdiff+0x3a>
    8c38:	4581                	li	a1,0
    8c3a:	854e                	mv	a0,s3
    8c3c:	a07ff0ef          	jal	ra,8642 <_Balloc>
    8c40:	4785                	li	a5,1
    8c42:	c91c                	sw	a5,16(a0)
    8c44:	00052a23          	sw	zero,20(a0)
    8c48:	40f2                	lw	ra,28(sp)
    8c4a:	4462                	lw	s0,24(sp)
    8c4c:	44d2                	lw	s1,20(sp)
    8c4e:	4942                	lw	s2,16(sp)
    8c50:	49b2                	lw	s3,12(sp)
    8c52:	6105                	addi	sp,sp,32
    8c54:	8082                	ret
    8c56:	4905                	li	s2,1
    8c58:	00054663          	bltz	a0,8c64 <__mdiff+0x48>
    8c5c:	87a2                	mv	a5,s0
    8c5e:	4901                	li	s2,0
    8c60:	8426                	mv	s0,s1
    8c62:	84be                	mv	s1,a5
    8c64:	404c                	lw	a1,4(s0)
    8c66:	854e                	mv	a0,s3
    8c68:	9dbff0ef          	jal	ra,8642 <_Balloc>
    8c6c:	01042303          	lw	t1,16(s0)
    8c70:	0104a883          	lw	a7,16(s1)
    8c74:	01440613          	addi	a2,s0,20
    8c78:	00231e13          	slli	t3,t1,0x2
    8c7c:	01448813          	addi	a6,s1,20
    8c80:	088a                	slli	a7,a7,0x2
    8c82:	6ec1                	lui	t4,0x10
    8c84:	01252623          	sw	s2,12(a0)
    8c88:	9e32                	add	t3,t3,a2
    8c8a:	98c2                	add	a7,a7,a6
    8c8c:	01450693          	addi	a3,a0,20
    8c90:	4f01                	li	t5,0
    8c92:	1efd                	addi	t4,t4,-1
    8c94:	4218                	lw	a4,0(a2)
    8c96:	00082f83          	lw	t6,0(a6)
    8c9a:	0691                	addi	a3,a3,4
    8c9c:	01d775b3          	and	a1,a4,t4
    8ca0:	01dff7b3          	and	a5,t6,t4
    8ca4:	95fa                	add	a1,a1,t5
    8ca6:	8d9d                	sub	a1,a1,a5
    8ca8:	010fdf93          	srli	t6,t6,0x10
    8cac:	01075793          	srli	a5,a4,0x10
    8cb0:	41f787b3          	sub	a5,a5,t6
    8cb4:	4105d713          	srai	a4,a1,0x10
    8cb8:	97ba                	add	a5,a5,a4
    8cba:	4107df13          	srai	t5,a5,0x10
    8cbe:	01d5f5b3          	and	a1,a1,t4
    8cc2:	07c2                	slli	a5,a5,0x10
    8cc4:	8fcd                	or	a5,a5,a1
    8cc6:	0811                	addi	a6,a6,4
    8cc8:	fef6ae23          	sw	a5,-4(a3)
    8ccc:	0611                	addi	a2,a2,4
    8cce:	fd1863e3          	bltu	a6,a7,8c94 <__mdiff+0x78>
    8cd2:	65c1                	lui	a1,0x10
    8cd4:	15fd                	addi	a1,a1,-1
    8cd6:	01c66863          	bltu	a2,t3,8ce6 <__mdiff+0xca>
    8cda:	16f1                	addi	a3,a3,-4
    8cdc:	429c                	lw	a5,0(a3)
    8cde:	c795                	beqz	a5,8d0a <__mdiff+0xee>
    8ce0:	00652823          	sw	t1,16(a0)
    8ce4:	b795                	j	8c48 <__mdiff+0x2c>
    8ce6:	421c                	lw	a5,0(a2)
    8ce8:	0691                	addi	a3,a3,4
    8cea:	0611                	addi	a2,a2,4
    8cec:	00b7f733          	and	a4,a5,a1
    8cf0:	977a                	add	a4,a4,t5
    8cf2:	41075813          	srai	a6,a4,0x10
    8cf6:	83c1                	srli	a5,a5,0x10
    8cf8:	97c2                	add	a5,a5,a6
    8cfa:	4107df13          	srai	t5,a5,0x10
    8cfe:	8f6d                	and	a4,a4,a1
    8d00:	07c2                	slli	a5,a5,0x10
    8d02:	8fd9                	or	a5,a5,a4
    8d04:	fef6ae23          	sw	a5,-4(a3)
    8d08:	b7f9                	j	8cd6 <__mdiff+0xba>
    8d0a:	137d                	addi	t1,t1,-1
    8d0c:	b7f9                	j	8cda <__mdiff+0xbe>

00008d0e <__ulp>:
    8d0e:	7ff007b7          	lui	a5,0x7ff00
    8d12:	8dfd                	and	a1,a1,a5
    8d14:	fcc007b7          	lui	a5,0xfcc00
    8d18:	95be                	add	a1,a1,a5
    8d1a:	00b05563          	blez	a1,8d24 <__ulp+0x16>
    8d1e:	4781                	li	a5,0
    8d20:	853e                	mv	a0,a5
    8d22:	8082                	ret
    8d24:	40b005b3          	neg	a1,a1
    8d28:	4145d793          	srai	a5,a1,0x14
    8d2c:	474d                	li	a4,19
    8d2e:	00f74763          	blt	a4,a5,8d3c <__ulp+0x2e>
    8d32:	000805b7          	lui	a1,0x80
    8d36:	40f5d5b3          	sra	a1,a1,a5
    8d3a:	b7d5                	j	8d1e <__ulp+0x10>
    8d3c:	fec78713          	addi	a4,a5,-20 # fcbfffec <__freertos_irq_stack_top+0xdcbeffec>
    8d40:	46f9                	li	a3,30
    8d42:	4581                	li	a1,0
    8d44:	4785                	li	a5,1
    8d46:	fce6cde3          	blt	a3,a4,8d20 <__ulp+0x12>
    8d4a:	800007b7          	lui	a5,0x80000
    8d4e:	00e7d7b3          	srl	a5,a5,a4
    8d52:	b7f9                	j	8d20 <__ulp+0x12>

00008d54 <__b2d>:
    8d54:	7179                	addi	sp,sp,-48
    8d56:	d226                	sw	s1,36(sp)
    8d58:	4904                	lw	s1,16(a0)
    8d5a:	ce4e                	sw	s3,28(sp)
    8d5c:	01450993          	addi	s3,a0,20
    8d60:	048a                	slli	s1,s1,0x2
    8d62:	94ce                	add	s1,s1,s3
    8d64:	d422                	sw	s0,40(sp)
    8d66:	ffc4a403          	lw	s0,-4(s1)
    8d6a:	d04a                	sw	s2,32(sp)
    8d6c:	c62e                	sw	a1,12(sp)
    8d6e:	8522                	mv	a0,s0
    8d70:	d606                	sw	ra,44(sp)
    8d72:	addff0ef          	jal	ra,884e <__hi0bits>
    8d76:	45b2                	lw	a1,12(sp)
    8d78:	02000793          	li	a5,32
    8d7c:	8f89                	sub	a5,a5,a0
    8d7e:	c19c                	sw	a5,0(a1)
    8d80:	47a9                	li	a5,10
    8d82:	ffc48913          	addi	s2,s1,-4
    8d86:	02a7cd63          	blt	a5,a0,8dc0 <__b2d+0x6c>
    8d8a:	47ad                	li	a5,11
    8d8c:	8f89                	sub	a5,a5,a0
    8d8e:	3ff00737          	lui	a4,0x3ff00
    8d92:	00f456b3          	srl	a3,s0,a5
    8d96:	8ed9                	or	a3,a3,a4
    8d98:	4701                	li	a4,0
    8d9a:	0129f463          	bgeu	s3,s2,8da2 <__b2d+0x4e>
    8d9e:	ff84a703          	lw	a4,-8(s1)
    8da2:	0555                	addi	a0,a0,21
    8da4:	00a41533          	sll	a0,s0,a0
    8da8:	00f757b3          	srl	a5,a4,a5
    8dac:	8fc9                	or	a5,a5,a0
    8dae:	50b2                	lw	ra,44(sp)
    8db0:	5422                	lw	s0,40(sp)
    8db2:	5492                	lw	s1,36(sp)
    8db4:	5902                	lw	s2,32(sp)
    8db6:	49f2                	lw	s3,28(sp)
    8db8:	853e                	mv	a0,a5
    8dba:	85b6                	mv	a1,a3
    8dbc:	6145                	addi	sp,sp,48
    8dbe:	8082                	ret
    8dc0:	4781                	li	a5,0
    8dc2:	0129f663          	bgeu	s3,s2,8dce <__b2d+0x7a>
    8dc6:	ff84a783          	lw	a5,-8(s1)
    8dca:	ff848913          	addi	s2,s1,-8
    8dce:	1555                	addi	a0,a0,-11
    8dd0:	c905                	beqz	a0,8e00 <__b2d+0xac>
    8dd2:	02000713          	li	a4,32
    8dd6:	40a70633          	sub	a2,a4,a0
    8dda:	00c7d733          	srl	a4,a5,a2
    8dde:	00a41433          	sll	s0,s0,a0
    8de2:	8c59                	or	s0,s0,a4
    8de4:	3ff006b7          	lui	a3,0x3ff00
    8de8:	8ec1                	or	a3,a3,s0
    8dea:	4701                	li	a4,0
    8dec:	0129f463          	bgeu	s3,s2,8df4 <__b2d+0xa0>
    8df0:	ffc92703          	lw	a4,-4(s2)
    8df4:	00a797b3          	sll	a5,a5,a0
    8df8:	00c75733          	srl	a4,a4,a2
    8dfc:	8fd9                	or	a5,a5,a4
    8dfe:	bf45                	j	8dae <__b2d+0x5a>
    8e00:	3ff006b7          	lui	a3,0x3ff00
    8e04:	8ec1                	or	a3,a3,s0
    8e06:	b765                	j	8dae <__b2d+0x5a>

00008e08 <__d2b>:
    8e08:	7179                	addi	sp,sp,-48
    8e0a:	d422                	sw	s0,40(sp)
    8e0c:	842e                	mv	s0,a1
    8e0e:	4585                	li	a1,1
    8e10:	d226                	sw	s1,36(sp)
    8e12:	d04a                	sw	s2,32(sp)
    8e14:	84b2                	mv	s1,a2
    8e16:	ce4e                	sw	s3,28(sp)
    8e18:	cc52                	sw	s4,24(sp)
    8e1a:	893a                	mv	s2,a4
    8e1c:	d606                	sw	ra,44(sp)
    8e1e:	8a36                	mv	s4,a3
    8e20:	823ff0ef          	jal	ra,8642 <_Balloc>
    8e24:	00100737          	lui	a4,0x100
    8e28:	fff70793          	addi	a5,a4,-1 # fffff <_data_lma+0xf0f1b>
    8e2c:	8fe5                	and	a5,a5,s1
    8e2e:	80d1                	srli	s1,s1,0x14
    8e30:	7ff4f493          	andi	s1,s1,2047
    8e34:	89aa                	mv	s3,a0
    8e36:	e0b5                	bnez	s1,8e9a <__d2b+0x92>
    8e38:	c63e                	sw	a5,12(sp)
    8e3a:	c42d                	beqz	s0,8ea4 <__d2b+0x9c>
    8e3c:	0028                	addi	a0,sp,8
    8e3e:	c422                	sw	s0,8(sp)
    8e40:	a55ff0ef          	jal	ra,8894 <__lo0bits>
    8e44:	46a2                	lw	a3,8(sp)
    8e46:	cd21                	beqz	a0,8e9e <__d2b+0x96>
    8e48:	4732                	lw	a4,12(sp)
    8e4a:	02000793          	li	a5,32
    8e4e:	8f89                	sub	a5,a5,a0
    8e50:	00f717b3          	sll	a5,a4,a5
    8e54:	8fd5                	or	a5,a5,a3
    8e56:	00a75733          	srl	a4,a4,a0
    8e5a:	00f9aa23          	sw	a5,20(s3)
    8e5e:	c63a                	sw	a4,12(sp)
    8e60:	4432                	lw	s0,12(sp)
    8e62:	0089ac23          	sw	s0,24(s3)
    8e66:	00803433          	snez	s0,s0
    8e6a:	0405                	addi	s0,s0,1
    8e6c:	0089a823          	sw	s0,16(s3)
    8e70:	c4b9                	beqz	s1,8ebe <__d2b+0xb6>
    8e72:	bcd48493          	addi	s1,s1,-1075
    8e76:	94aa                	add	s1,s1,a0
    8e78:	03500793          	li	a5,53
    8e7c:	009a2023          	sw	s1,0(s4)
    8e80:	40a78533          	sub	a0,a5,a0
    8e84:	00a92023          	sw	a0,0(s2)
    8e88:	50b2                	lw	ra,44(sp)
    8e8a:	5422                	lw	s0,40(sp)
    8e8c:	854e                	mv	a0,s3
    8e8e:	5492                	lw	s1,36(sp)
    8e90:	5902                	lw	s2,32(sp)
    8e92:	49f2                	lw	s3,28(sp)
    8e94:	4a62                	lw	s4,24(sp)
    8e96:	6145                	addi	sp,sp,48
    8e98:	8082                	ret
    8e9a:	8fd9                	or	a5,a5,a4
    8e9c:	bf71                	j	8e38 <__d2b+0x30>
    8e9e:	00d9aa23          	sw	a3,20(s3)
    8ea2:	bf7d                	j	8e60 <__d2b+0x58>
    8ea4:	0068                	addi	a0,sp,12
    8ea6:	9efff0ef          	jal	ra,8894 <__lo0bits>
    8eaa:	47b2                	lw	a5,12(sp)
    8eac:	02050513          	addi	a0,a0,32
    8eb0:	4405                	li	s0,1
    8eb2:	00f9aa23          	sw	a5,20(s3)
    8eb6:	4785                	li	a5,1
    8eb8:	00f9a823          	sw	a5,16(s3)
    8ebc:	bf55                	j	8e70 <__d2b+0x68>
    8ebe:	00241793          	slli	a5,s0,0x2
    8ec2:	bce50513          	addi	a0,a0,-1074
    8ec6:	97ce                	add	a5,a5,s3
    8ec8:	00aa2023          	sw	a0,0(s4)
    8ecc:	4b88                	lw	a0,16(a5)
    8ece:	0416                	slli	s0,s0,0x5
    8ed0:	97fff0ef          	jal	ra,884e <__hi0bits>
    8ed4:	8c09                	sub	s0,s0,a0
    8ed6:	00892023          	sw	s0,0(s2)
    8eda:	b77d                	j	8e88 <__d2b+0x80>

00008edc <__ratio>:
    8edc:	7179                	addi	sp,sp,-48
    8ede:	d04a                	sw	s2,32(sp)
    8ee0:	892e                	mv	s2,a1
    8ee2:	002c                	addi	a1,sp,8
    8ee4:	d606                	sw	ra,44(sp)
    8ee6:	d422                	sw	s0,40(sp)
    8ee8:	d226                	sw	s1,36(sp)
    8eea:	ce4e                	sw	s3,28(sp)
    8eec:	cc52                	sw	s4,24(sp)
    8eee:	8a2a                	mv	s4,a0
    8ef0:	e65ff0ef          	jal	ra,8d54 <__b2d>
    8ef4:	89aa                	mv	s3,a0
    8ef6:	84ae                	mv	s1,a1
    8ef8:	842e                	mv	s0,a1
    8efa:	854a                	mv	a0,s2
    8efc:	006c                	addi	a1,sp,12
    8efe:	e57ff0ef          	jal	ra,8d54 <__b2d>
    8f02:	01092783          	lw	a5,16(s2)
    8f06:	010a2703          	lw	a4,16(s4)
    8f0a:	46a2                	lw	a3,8(sp)
    8f0c:	8f1d                	sub	a4,a4,a5
    8f0e:	47b2                	lw	a5,12(sp)
    8f10:	0716                	slli	a4,a4,0x5
    8f12:	8e9d                	sub	a3,a3,a5
    8f14:	00d707b3          	add	a5,a4,a3
    8f18:	02f05563          	blez	a5,8f42 <__ratio+0x66>
    8f1c:	07d2                	slli	a5,a5,0x14
    8f1e:	862e                	mv	a2,a1
    8f20:	00978433          	add	s0,a5,s1
    8f24:	8732                	mv	a4,a2
    8f26:	85a2                	mv	a1,s0
    8f28:	862a                	mv	a2,a0
    8f2a:	86ba                	mv	a3,a4
    8f2c:	854e                	mv	a0,s3
    8f2e:	505000ef          	jal	ra,9c32 <__divdf3>
    8f32:	50b2                	lw	ra,44(sp)
    8f34:	5422                	lw	s0,40(sp)
    8f36:	5492                	lw	s1,36(sp)
    8f38:	5902                	lw	s2,32(sp)
    8f3a:	49f2                	lw	s3,28(sp)
    8f3c:	4a62                	lw	s4,24(sp)
    8f3e:	6145                	addi	sp,sp,48
    8f40:	8082                	ret
    8f42:	fff00737          	lui	a4,0xfff00
    8f46:	02e787b3          	mul	a5,a5,a4
    8f4a:	00b78633          	add	a2,a5,a1
    8f4e:	bfd9                	j	8f24 <__ratio+0x48>

00008f50 <__copybits>:
    8f50:	fff58793          	addi	a5,a1,-1 # 7ffff <_data_lma+0x70f1b>
    8f54:	4a18                	lw	a4,16(a2)
    8f56:	8795                	srai	a5,a5,0x5
    8f58:	0785                	addi	a5,a5,1
    8f5a:	078a                	slli	a5,a5,0x2
    8f5c:	01460693          	addi	a3,a2,20
    8f60:	070a                	slli	a4,a4,0x2
    8f62:	97aa                	add	a5,a5,a0
    8f64:	9736                	add	a4,a4,a3
    8f66:	00e6e563          	bltu	a3,a4,8f70 <__copybits+0x20>
    8f6a:	00f56a63          	bltu	a0,a5,8f7e <__copybits+0x2e>
    8f6e:	8082                	ret
    8f70:	0691                	addi	a3,a3,4
    8f72:	ffc6a603          	lw	a2,-4(a3) # 3feffffc <__freertos_irq_stack_top+0x1feefffc>
    8f76:	0511                	addi	a0,a0,4
    8f78:	fec52e23          	sw	a2,-4(a0)
    8f7c:	b7ed                	j	8f66 <__copybits+0x16>
    8f7e:	0511                	addi	a0,a0,4
    8f80:	fe052e23          	sw	zero,-4(a0)
    8f84:	b7dd                	j	8f6a <__copybits+0x1a>

00008f86 <__any_on>:
    8f86:	4914                	lw	a3,16(a0)
    8f88:	4055d793          	srai	a5,a1,0x5
    8f8c:	01450713          	addi	a4,a0,20
    8f90:	02f6c763          	blt	a3,a5,8fbe <__any_on+0x38>
    8f94:	00d7df63          	bge	a5,a3,8fb2 <__any_on+0x2c>
    8f98:	89fd                	andi	a1,a1,31
    8f9a:	cd81                	beqz	a1,8fb2 <__any_on+0x2c>
    8f9c:	00279693          	slli	a3,a5,0x2
    8fa0:	96ba                	add	a3,a3,a4
    8fa2:	4290                	lw	a2,0(a3)
    8fa4:	4505                	li	a0,1
    8fa6:	00b656b3          	srl	a3,a2,a1
    8faa:	00b695b3          	sll	a1,a3,a1
    8fae:	00b61e63          	bne	a2,a1,8fca <__any_on+0x44>
    8fb2:	078a                	slli	a5,a5,0x2
    8fb4:	97ba                	add	a5,a5,a4
    8fb6:	00f76663          	bltu	a4,a5,8fc2 <__any_on+0x3c>
    8fba:	4501                	li	a0,0
    8fbc:	8082                	ret
    8fbe:	87b6                	mv	a5,a3
    8fc0:	bfcd                	j	8fb2 <__any_on+0x2c>
    8fc2:	17f1                	addi	a5,a5,-4
    8fc4:	4394                	lw	a3,0(a5)
    8fc6:	dae5                	beqz	a3,8fb6 <__any_on+0x30>
    8fc8:	4505                	li	a0,1
    8fca:	8082                	ret

00008fcc <_calloc_r>:
    8fcc:	02c58633          	mul	a2,a1,a2
    8fd0:	1101                	addi	sp,sp,-32
    8fd2:	cc22                	sw	s0,24(sp)
    8fd4:	ce06                	sw	ra,28(sp)
    8fd6:	85b2                	mv	a1,a2
    8fd8:	c632                	sw	a2,12(sp)
    8fda:	902fc0ef          	jal	ra,50dc <_malloc_r>
    8fde:	842a                	mv	s0,a0
    8fe0:	c509                	beqz	a0,8fea <_calloc_r+0x1e>
    8fe2:	4632                	lw	a2,12(sp)
    8fe4:	4581                	li	a1,0
    8fe6:	d60f70ef          	jal	ra,546 <memset>
    8fea:	8522                	mv	a0,s0
    8fec:	40f2                	lw	ra,28(sp)
    8fee:	4462                	lw	s0,24(sp)
    8ff0:	6105                	addi	sp,sp,32
    8ff2:	8082                	ret

00008ff4 <__sfputc_r>:
    8ff4:	461c                	lw	a5,8(a2)
    8ff6:	17fd                	addi	a5,a5,-1
    8ff8:	c61c                	sw	a5,8(a2)
    8ffa:	0007da63          	bgez	a5,900e <__sfputc_r+0x1a>
    8ffe:	4e18                	lw	a4,24(a2)
    9000:	00e7c563          	blt	a5,a4,900a <__sfputc_r+0x16>
    9004:	47a9                	li	a5,10
    9006:	00f59463          	bne	a1,a5,900e <__sfputc_r+0x1a>
    900a:	ae1fd06f          	j	6aea <__swbuf_r>
    900e:	421c                	lw	a5,0(a2)
    9010:	852e                	mv	a0,a1
    9012:	00178713          	addi	a4,a5,1 # 80000001 <__freertos_irq_stack_top+0x5fff0001>
    9016:	c218                	sw	a4,0(a2)
    9018:	a38c                	sb	a1,0(a5)
    901a:	8082                	ret

0000901c <__sfputs_r>:
    901c:	1101                	addi	sp,sp,-32
    901e:	cc22                	sw	s0,24(sp)
    9020:	ca26                	sw	s1,20(sp)
    9022:	c84a                	sw	s2,16(sp)
    9024:	c64e                	sw	s3,12(sp)
    9026:	c452                	sw	s4,8(sp)
    9028:	ce06                	sw	ra,28(sp)
    902a:	892a                	mv	s2,a0
    902c:	89ae                	mv	s3,a1
    902e:	8432                	mv	s0,a2
    9030:	00d604b3          	add	s1,a2,a3
    9034:	5a7d                	li	s4,-1
    9036:	00941463          	bne	s0,s1,903e <__sfputs_r+0x22>
    903a:	4501                	li	a0,0
    903c:	a809                	j	904e <__sfputs_r+0x32>
    903e:	200c                	lbu	a1,0(s0)
    9040:	864e                	mv	a2,s3
    9042:	854a                	mv	a0,s2
    9044:	fb1ff0ef          	jal	ra,8ff4 <__sfputc_r>
    9048:	0405                	addi	s0,s0,1
    904a:	ff4516e3          	bne	a0,s4,9036 <__sfputs_r+0x1a>
    904e:	40f2                	lw	ra,28(sp)
    9050:	4462                	lw	s0,24(sp)
    9052:	44d2                	lw	s1,20(sp)
    9054:	4942                	lw	s2,16(sp)
    9056:	49b2                	lw	s3,12(sp)
    9058:	4a22                	lw	s4,8(sp)
    905a:	6105                	addi	sp,sp,32
    905c:	8082                	ret

0000905e <_vfiprintf_r>:
    905e:	7135                	addi	sp,sp,-160
    9060:	cd22                	sw	s0,152(sp)
    9062:	cb26                	sw	s1,148(sp)
    9064:	c94a                	sw	s2,144(sp)
    9066:	c74e                	sw	s3,140(sp)
    9068:	cf06                	sw	ra,156(sp)
    906a:	c552                	sw	s4,136(sp)
    906c:	c356                	sw	s5,132(sp)
    906e:	c15a                	sw	s6,128(sp)
    9070:	dede                	sw	s7,124(sp)
    9072:	dce2                	sw	s8,120(sp)
    9074:	dae6                	sw	s9,116(sp)
    9076:	89aa                	mv	s3,a0
    9078:	84ae                	mv	s1,a1
    907a:	8932                	mv	s2,a2
    907c:	8436                	mv	s0,a3
    907e:	c509                	beqz	a0,9088 <_vfiprintf_r+0x2a>
    9080:	4d1c                	lw	a5,24(a0)
    9082:	e399                	bnez	a5,9088 <_vfiprintf_r+0x2a>
    9084:	be9fe0ef          	jal	ra,7c6c <__sinit>
    9088:	00006797          	auipc	a5,0x6
    908c:	d8878793          	addi	a5,a5,-632 # ee10 <__sf_fake_stdin>
    9090:	0cf49963          	bne	s1,a5,9162 <_vfiprintf_r+0x104>
    9094:	0049a483          	lw	s1,4(s3)
    9098:	24de                	lhu	a5,12(s1)
    909a:	8ba1                	andi	a5,a5,8
    909c:	c7ed                	beqz	a5,9186 <_vfiprintf_r+0x128>
    909e:	489c                	lw	a5,16(s1)
    90a0:	c3fd                	beqz	a5,9186 <_vfiprintf_r+0x128>
    90a2:	02000793          	li	a5,32
    90a6:	02f104a3          	sb	a5,41(sp)
    90aa:	03000793          	li	a5,48
    90ae:	d202                	sw	zero,36(sp)
    90b0:	02f10523          	sb	a5,42(sp)
    90b4:	c622                	sw	s0,12(sp)
    90b6:	02500b93          	li	s7,37
    90ba:	00006a97          	auipc	s5,0x6
    90be:	e92a8a93          	addi	s5,s5,-366 # ef4c <p05.3319+0xc>
    90c2:	4c05                	li	s8,1
    90c4:	4b29                	li	s6,10
    90c6:	844a                	mv	s0,s2
    90c8:	201c                	lbu	a5,0(s0)
    90ca:	c399                	beqz	a5,90d0 <_vfiprintf_r+0x72>
    90cc:	0f779063          	bne	a5,s7,91ac <_vfiprintf_r+0x14e>
    90d0:	41240cb3          	sub	s9,s0,s2
    90d4:	000c8e63          	beqz	s9,90f0 <_vfiprintf_r+0x92>
    90d8:	86e6                	mv	a3,s9
    90da:	864a                	mv	a2,s2
    90dc:	85a6                	mv	a1,s1
    90de:	854e                	mv	a0,s3
    90e0:	f3dff0ef          	jal	ra,901c <__sfputs_r>
    90e4:	57fd                	li	a5,-1
    90e6:	1ef50063          	beq	a0,a5,92c6 <_vfiprintf_r+0x268>
    90ea:	5692                	lw	a3,36(sp)
    90ec:	96e6                	add	a3,a3,s9
    90ee:	d236                	sw	a3,36(sp)
    90f0:	201c                	lbu	a5,0(s0)
    90f2:	1c078a63          	beqz	a5,92c6 <_vfiprintf_r+0x268>
    90f6:	57fd                	li	a5,-1
    90f8:	00140913          	addi	s2,s0,1
    90fc:	c802                	sw	zero,16(sp)
    90fe:	ce02                	sw	zero,28(sp)
    9100:	ca3e                	sw	a5,20(sp)
    9102:	cc02                	sw	zero,24(sp)
    9104:	040109a3          	sb	zero,83(sp)
    9108:	d482                	sw	zero,104(sp)
    910a:	00094583          	lbu	a1,0(s2)
    910e:	4615                	li	a2,5
    9110:	8556                	mv	a0,s5
    9112:	d14ff0ef          	jal	ra,8626 <memchr>
    9116:	00190413          	addi	s0,s2,1
    911a:	47c2                	lw	a5,16(sp)
    911c:	e951                	bnez	a0,91b0 <_vfiprintf_r+0x152>
    911e:	0107f713          	andi	a4,a5,16
    9122:	c709                	beqz	a4,912c <_vfiprintf_r+0xce>
    9124:	02000713          	li	a4,32
    9128:	04e109a3          	sb	a4,83(sp)
    912c:	0087f713          	andi	a4,a5,8
    9130:	c709                	beqz	a4,913a <_vfiprintf_r+0xdc>
    9132:	02b00713          	li	a4,43
    9136:	04e109a3          	sb	a4,83(sp)
    913a:	00094683          	lbu	a3,0(s2)
    913e:	02a00713          	li	a4,42
    9142:	06e68f63          	beq	a3,a4,91c0 <_vfiprintf_r+0x162>
    9146:	47f2                	lw	a5,28(sp)
    9148:	844a                	mv	s0,s2
    914a:	4681                	li	a3,0
    914c:	4625                	li	a2,9
    914e:	2018                	lbu	a4,0(s0)
    9150:	00140593          	addi	a1,s0,1
    9154:	fd070713          	addi	a4,a4,-48 # ffefffd0 <__freertos_irq_stack_top+0xdfeeffd0>
    9158:	0ae67763          	bgeu	a2,a4,9206 <_vfiprintf_r+0x1a8>
    915c:	cab5                	beqz	a3,91d0 <_vfiprintf_r+0x172>
    915e:	ce3e                	sw	a5,28(sp)
    9160:	a885                	j	91d0 <_vfiprintf_r+0x172>
    9162:	00006797          	auipc	a5,0x6
    9166:	cce78793          	addi	a5,a5,-818 # ee30 <__sf_fake_stdout>
    916a:	00f49563          	bne	s1,a5,9174 <_vfiprintf_r+0x116>
    916e:	0089a483          	lw	s1,8(s3)
    9172:	b71d                	j	9098 <_vfiprintf_r+0x3a>
    9174:	00006797          	auipc	a5,0x6
    9178:	c7c78793          	addi	a5,a5,-900 # edf0 <__sf_fake_stderr>
    917c:	f0f49ee3          	bne	s1,a5,9098 <_vfiprintf_r+0x3a>
    9180:	00c9a483          	lw	s1,12(s3)
    9184:	bf11                	j	9098 <_vfiprintf_r+0x3a>
    9186:	85a6                	mv	a1,s1
    9188:	854e                	mv	a0,s3
    918a:	a41fd0ef          	jal	ra,6bca <__swsetup_r>
    918e:	d911                	beqz	a0,90a2 <_vfiprintf_r+0x44>
    9190:	557d                	li	a0,-1
    9192:	40fa                	lw	ra,156(sp)
    9194:	446a                	lw	s0,152(sp)
    9196:	44da                	lw	s1,148(sp)
    9198:	494a                	lw	s2,144(sp)
    919a:	49ba                	lw	s3,140(sp)
    919c:	4a2a                	lw	s4,136(sp)
    919e:	4a9a                	lw	s5,132(sp)
    91a0:	4b0a                	lw	s6,128(sp)
    91a2:	5bf6                	lw	s7,124(sp)
    91a4:	5c66                	lw	s8,120(sp)
    91a6:	5cd6                	lw	s9,116(sp)
    91a8:	610d                	addi	sp,sp,160
    91aa:	8082                	ret
    91ac:	0405                	addi	s0,s0,1
    91ae:	bf29                	j	90c8 <_vfiprintf_r+0x6a>
    91b0:	41550533          	sub	a0,a0,s5
    91b4:	00ac1533          	sll	a0,s8,a0
    91b8:	8fc9                	or	a5,a5,a0
    91ba:	c83e                	sw	a5,16(sp)
    91bc:	8922                	mv	s2,s0
    91be:	b7b1                	j	910a <_vfiprintf_r+0xac>
    91c0:	4732                	lw	a4,12(sp)
    91c2:	00470693          	addi	a3,a4,4
    91c6:	4318                	lw	a4,0(a4)
    91c8:	c636                	sw	a3,12(sp)
    91ca:	02074763          	bltz	a4,91f8 <_vfiprintf_r+0x19a>
    91ce:	ce3a                	sw	a4,28(sp)
    91d0:	2018                	lbu	a4,0(s0)
    91d2:	02e00793          	li	a5,46
    91d6:	04f71d63          	bne	a4,a5,9230 <_vfiprintf_r+0x1d2>
    91da:	3018                	lbu	a4,1(s0)
    91dc:	02a00793          	li	a5,42
    91e0:	02f71b63          	bne	a4,a5,9216 <_vfiprintf_r+0x1b8>
    91e4:	47b2                	lw	a5,12(sp)
    91e6:	0409                	addi	s0,s0,2
    91e8:	00478713          	addi	a4,a5,4
    91ec:	439c                	lw	a5,0(a5)
    91ee:	c63a                	sw	a4,12(sp)
    91f0:	0207c163          	bltz	a5,9212 <_vfiprintf_r+0x1b4>
    91f4:	ca3e                	sw	a5,20(sp)
    91f6:	a82d                	j	9230 <_vfiprintf_r+0x1d2>
    91f8:	40e00733          	neg	a4,a4
    91fc:	0027e793          	ori	a5,a5,2
    9200:	ce3a                	sw	a4,28(sp)
    9202:	c83e                	sw	a5,16(sp)
    9204:	b7f1                	j	91d0 <_vfiprintf_r+0x172>
    9206:	036787b3          	mul	a5,a5,s6
    920a:	4685                	li	a3,1
    920c:	842e                	mv	s0,a1
    920e:	97ba                	add	a5,a5,a4
    9210:	bf3d                	j	914e <_vfiprintf_r+0xf0>
    9212:	57fd                	li	a5,-1
    9214:	b7c5                	j	91f4 <_vfiprintf_r+0x196>
    9216:	0405                	addi	s0,s0,1
    9218:	ca02                	sw	zero,20(sp)
    921a:	4681                	li	a3,0
    921c:	4781                	li	a5,0
    921e:	4625                	li	a2,9
    9220:	2018                	lbu	a4,0(s0)
    9222:	00140593          	addi	a1,s0,1
    9226:	fd070713          	addi	a4,a4,-48
    922a:	06e67663          	bgeu	a2,a4,9296 <_vfiprintf_r+0x238>
    922e:	f2f9                	bnez	a3,91f4 <_vfiprintf_r+0x196>
    9230:	200c                	lbu	a1,0(s0)
    9232:	460d                	li	a2,3
    9234:	00006517          	auipc	a0,0x6
    9238:	d2050513          	addi	a0,a0,-736 # ef54 <p05.3319+0x14>
    923c:	beaff0ef          	jal	ra,8626 <memchr>
    9240:	cd11                	beqz	a0,925c <_vfiprintf_r+0x1fe>
    9242:	00006797          	auipc	a5,0x6
    9246:	d1278793          	addi	a5,a5,-750 # ef54 <p05.3319+0x14>
    924a:	8d1d                	sub	a0,a0,a5
    924c:	04000793          	li	a5,64
    9250:	00a797b3          	sll	a5,a5,a0
    9254:	4542                	lw	a0,16(sp)
    9256:	0405                	addi	s0,s0,1
    9258:	8d5d                	or	a0,a0,a5
    925a:	c82a                	sw	a0,16(sp)
    925c:	200c                	lbu	a1,0(s0)
    925e:	4619                	li	a2,6
    9260:	00006517          	auipc	a0,0x6
    9264:	cf850513          	addi	a0,a0,-776 # ef58 <p05.3319+0x18>
    9268:	00140913          	addi	s2,s0,1
    926c:	02b10423          	sb	a1,40(sp)
    9270:	bb6ff0ef          	jal	ra,8626 <memchr>
    9274:	c125                	beqz	a0,92d4 <_vfiprintf_r+0x276>
    9276:	ffffc797          	auipc	a5,0xffffc
    927a:	0be78793          	addi	a5,a5,190 # 5334 <_printf_float>
    927e:	e795                	bnez	a5,92aa <_vfiprintf_r+0x24c>
    9280:	4742                	lw	a4,16(sp)
    9282:	47b2                	lw	a5,12(sp)
    9284:	10077713          	andi	a4,a4,256
    9288:	cf09                	beqz	a4,92a2 <_vfiprintf_r+0x244>
    928a:	0791                	addi	a5,a5,4
    928c:	c63e                	sw	a5,12(sp)
    928e:	5792                	lw	a5,36(sp)
    9290:	97d2                	add	a5,a5,s4
    9292:	d23e                	sw	a5,36(sp)
    9294:	bd0d                	j	90c6 <_vfiprintf_r+0x68>
    9296:	036787b3          	mul	a5,a5,s6
    929a:	4685                	li	a3,1
    929c:	842e                	mv	s0,a1
    929e:	97ba                	add	a5,a5,a4
    92a0:	b741                	j	9220 <_vfiprintf_r+0x1c2>
    92a2:	079d                	addi	a5,a5,7
    92a4:	9be1                	andi	a5,a5,-8
    92a6:	07a1                	addi	a5,a5,8
    92a8:	b7d5                	j	928c <_vfiprintf_r+0x22e>
    92aa:	0078                	addi	a4,sp,12
    92ac:	00000697          	auipc	a3,0x0
    92b0:	d7068693          	addi	a3,a3,-656 # 901c <__sfputs_r>
    92b4:	8626                	mv	a2,s1
    92b6:	080c                	addi	a1,sp,16
    92b8:	854e                	mv	a0,s3
    92ba:	87afc0ef          	jal	ra,5334 <_printf_float>
    92be:	57fd                	li	a5,-1
    92c0:	8a2a                	mv	s4,a0
    92c2:	fcf516e3          	bne	a0,a5,928e <_vfiprintf_r+0x230>
    92c6:	24de                	lhu	a5,12(s1)
    92c8:	0407f793          	andi	a5,a5,64
    92cc:	ec0792e3          	bnez	a5,9190 <_vfiprintf_r+0x132>
    92d0:	5512                	lw	a0,36(sp)
    92d2:	b5c1                	j	9192 <_vfiprintf_r+0x134>
    92d4:	0078                	addi	a4,sp,12
    92d6:	00000697          	auipc	a3,0x0
    92da:	d4668693          	addi	a3,a3,-698 # 901c <__sfputs_r>
    92de:	8626                	mv	a2,s1
    92e0:	080c                	addi	a1,sp,16
    92e2:	854e                	mv	a0,s3
    92e4:	e20fc0ef          	jal	ra,5904 <_printf_i>
    92e8:	bfd9                	j	92be <_vfiprintf_r+0x260>

000092ea <nanf>:
    92ea:	00006797          	auipc	a5,0x6
    92ee:	c7678793          	addi	a5,a5,-906 # ef60 <p05.3319+0x20>
    92f2:	4388                	lw	a0,0(a5)
    92f4:	8082                	ret

000092f6 <__sread>:
    92f6:	1141                	addi	sp,sp,-16
    92f8:	c422                	sw	s0,8(sp)
    92fa:	842e                	mv	s0,a1
    92fc:	00e59583          	lh	a1,14(a1)
    9300:	c606                	sw	ra,12(sp)
    9302:	22e9                	jal	94cc <_read_r>
    9304:	00054963          	bltz	a0,9316 <__sread+0x20>
    9308:	487c                	lw	a5,84(s0)
    930a:	97aa                	add	a5,a5,a0
    930c:	c87c                	sw	a5,84(s0)
    930e:	40b2                	lw	ra,12(sp)
    9310:	4422                	lw	s0,8(sp)
    9312:	0141                	addi	sp,sp,16
    9314:	8082                	ret
    9316:	245e                	lhu	a5,12(s0)
    9318:	777d                	lui	a4,0xfffff
    931a:	177d                	addi	a4,a4,-1
    931c:	8ff9                	and	a5,a5,a4
    931e:	a45e                	sh	a5,12(s0)
    9320:	b7fd                	j	930e <__sread+0x18>

00009322 <__swrite>:
    9322:	25de                	lhu	a5,12(a1)
    9324:	1101                	addi	sp,sp,-32
    9326:	cc22                	sw	s0,24(sp)
    9328:	ca26                	sw	s1,20(sp)
    932a:	c84a                	sw	s2,16(sp)
    932c:	c64e                	sw	s3,12(sp)
    932e:	ce06                	sw	ra,28(sp)
    9330:	1007f793          	andi	a5,a5,256
    9334:	84aa                	mv	s1,a0
    9336:	842e                	mv	s0,a1
    9338:	8932                	mv	s2,a2
    933a:	89b6                	mv	s3,a3
    933c:	c791                	beqz	a5,9348 <__swrite+0x26>
    933e:	00e59583          	lh	a1,14(a1)
    9342:	4689                	li	a3,2
    9344:	4601                	li	a2,0
    9346:	2a81                	jal	9496 <_lseek_r>
    9348:	245e                	lhu	a5,12(s0)
    934a:	777d                	lui	a4,0xfffff
    934c:	177d                	addi	a4,a4,-1
    934e:	8ff9                	and	a5,a5,a4
    9350:	a45e                	sh	a5,12(s0)
    9352:	00e41583          	lh	a1,14(s0)
    9356:	4462                	lw	s0,24(sp)
    9358:	40f2                	lw	ra,28(sp)
    935a:	86ce                	mv	a3,s3
    935c:	864a                	mv	a2,s2
    935e:	49b2                	lw	s3,12(sp)
    9360:	4942                	lw	s2,16(sp)
    9362:	8526                	mv	a0,s1
    9364:	44d2                	lw	s1,20(sp)
    9366:	6105                	addi	sp,sp,32
    9368:	a085                	j	93c8 <_write_r>

0000936a <__sseek>:
    936a:	1141                	addi	sp,sp,-16
    936c:	c422                	sw	s0,8(sp)
    936e:	842e                	mv	s0,a1
    9370:	00e59583          	lh	a1,14(a1)
    9374:	c606                	sw	ra,12(sp)
    9376:	2205                	jal	9496 <_lseek_r>
    9378:	57fd                	li	a5,-1
    937a:	245a                	lhu	a4,12(s0)
    937c:	00f51a63          	bne	a0,a5,9390 <__sseek+0x26>
    9380:	77fd                	lui	a5,0xfffff
    9382:	17fd                	addi	a5,a5,-1
    9384:	8ff9                	and	a5,a5,a4
    9386:	a45e                	sh	a5,12(s0)
    9388:	40b2                	lw	ra,12(sp)
    938a:	4422                	lw	s0,8(sp)
    938c:	0141                	addi	sp,sp,16
    938e:	8082                	ret
    9390:	6785                	lui	a5,0x1
    9392:	8fd9                	or	a5,a5,a4
    9394:	a45e                	sh	a5,12(s0)
    9396:	c868                	sw	a0,84(s0)
    9398:	bfc5                	j	9388 <__sseek+0x1e>

0000939a <__sclose>:
    939a:	00e59583          	lh	a1,14(a1)
    939e:	a085                	j	93fe <_close_r>

000093a0 <strncmp>:
    93a0:	c215                	beqz	a2,93c4 <strncmp+0x24>
    93a2:	167d                	addi	a2,a2,-1
    93a4:	4701                	li	a4,0
    93a6:	00e507b3          	add	a5,a0,a4
    93aa:	00e586b3          	add	a3,a1,a4
    93ae:	239c                	lbu	a5,0(a5)
    93b0:	2294                	lbu	a3,0(a3)
    93b2:	00d79663          	bne	a5,a3,93be <strncmp+0x1e>
    93b6:	00c70463          	beq	a4,a2,93be <strncmp+0x1e>
    93ba:	0705                	addi	a4,a4,1
    93bc:	f7ed                	bnez	a5,93a6 <strncmp+0x6>
    93be:	40d78533          	sub	a0,a5,a3
    93c2:	8082                	ret
    93c4:	4501                	li	a0,0
    93c6:	8082                	ret

000093c8 <_write_r>:
    93c8:	1141                	addi	sp,sp,-16
    93ca:	c422                	sw	s0,8(sp)
    93cc:	842a                	mv	s0,a0
    93ce:	852e                	mv	a0,a1
    93d0:	85b2                	mv	a1,a2
    93d2:	8636                	mv	a2,a3
    93d4:	1fffa797          	auipc	a5,0x1fffa
    93d8:	0e07ae23          	sw	zero,252(a5) # 200034d0 <errno>
    93dc:	c606                	sw	ra,12(sp)
    93de:	efcf90ef          	jal	ra,2ada <_write>
    93e2:	57fd                	li	a5,-1
    93e4:	00f51963          	bne	a0,a5,93f6 <_write_r+0x2e>
    93e8:	1fffa797          	auipc	a5,0x1fffa
    93ec:	0e878793          	addi	a5,a5,232 # 200034d0 <errno>
    93f0:	439c                	lw	a5,0(a5)
    93f2:	c391                	beqz	a5,93f6 <_write_r+0x2e>
    93f4:	c01c                	sw	a5,0(s0)
    93f6:	40b2                	lw	ra,12(sp)
    93f8:	4422                	lw	s0,8(sp)
    93fa:	0141                	addi	sp,sp,16
    93fc:	8082                	ret

000093fe <_close_r>:
    93fe:	1141                	addi	sp,sp,-16
    9400:	c422                	sw	s0,8(sp)
    9402:	842a                	mv	s0,a0
    9404:	852e                	mv	a0,a1
    9406:	1fffa797          	auipc	a5,0x1fffa
    940a:	0c07a523          	sw	zero,202(a5) # 200034d0 <errno>
    940e:	c606                	sw	ra,12(sp)
    9410:	22e020ef          	jal	ra,b63e <_close>
    9414:	57fd                	li	a5,-1
    9416:	00f51963          	bne	a0,a5,9428 <_close_r+0x2a>
    941a:	1fffa797          	auipc	a5,0x1fffa
    941e:	0b678793          	addi	a5,a5,182 # 200034d0 <errno>
    9422:	439c                	lw	a5,0(a5)
    9424:	c391                	beqz	a5,9428 <_close_r+0x2a>
    9426:	c01c                	sw	a5,0(s0)
    9428:	40b2                	lw	ra,12(sp)
    942a:	4422                	lw	s0,8(sp)
    942c:	0141                	addi	sp,sp,16
    942e:	8082                	ret

00009430 <_fstat_r>:
    9430:	1141                	addi	sp,sp,-16
    9432:	c422                	sw	s0,8(sp)
    9434:	842a                	mv	s0,a0
    9436:	852e                	mv	a0,a1
    9438:	85b2                	mv	a1,a2
    943a:	1fffa797          	auipc	a5,0x1fffa
    943e:	0807ab23          	sw	zero,150(a5) # 200034d0 <errno>
    9442:	c606                	sw	ra,12(sp)
    9444:	20a020ef          	jal	ra,b64e <_fstat>
    9448:	57fd                	li	a5,-1
    944a:	00f51963          	bne	a0,a5,945c <_fstat_r+0x2c>
    944e:	1fffa797          	auipc	a5,0x1fffa
    9452:	08278793          	addi	a5,a5,130 # 200034d0 <errno>
    9456:	439c                	lw	a5,0(a5)
    9458:	c391                	beqz	a5,945c <_fstat_r+0x2c>
    945a:	c01c                	sw	a5,0(s0)
    945c:	40b2                	lw	ra,12(sp)
    945e:	4422                	lw	s0,8(sp)
    9460:	0141                	addi	sp,sp,16
    9462:	8082                	ret

00009464 <_isatty_r>:
    9464:	1141                	addi	sp,sp,-16
    9466:	c422                	sw	s0,8(sp)
    9468:	842a                	mv	s0,a0
    946a:	852e                	mv	a0,a1
    946c:	1fffa797          	auipc	a5,0x1fffa
    9470:	0607a223          	sw	zero,100(a5) # 200034d0 <errno>
    9474:	c606                	sw	ra,12(sp)
    9476:	1e8020ef          	jal	ra,b65e <_isatty>
    947a:	57fd                	li	a5,-1
    947c:	00f51963          	bne	a0,a5,948e <_isatty_r+0x2a>
    9480:	1fffa797          	auipc	a5,0x1fffa
    9484:	05078793          	addi	a5,a5,80 # 200034d0 <errno>
    9488:	439c                	lw	a5,0(a5)
    948a:	c391                	beqz	a5,948e <_isatty_r+0x2a>
    948c:	c01c                	sw	a5,0(s0)
    948e:	40b2                	lw	ra,12(sp)
    9490:	4422                	lw	s0,8(sp)
    9492:	0141                	addi	sp,sp,16
    9494:	8082                	ret

00009496 <_lseek_r>:
    9496:	1141                	addi	sp,sp,-16
    9498:	c422                	sw	s0,8(sp)
    949a:	842a                	mv	s0,a0
    949c:	852e                	mv	a0,a1
    949e:	85b2                	mv	a1,a2
    94a0:	8636                	mv	a2,a3
    94a2:	1fffa797          	auipc	a5,0x1fffa
    94a6:	0207a723          	sw	zero,46(a5) # 200034d0 <errno>
    94aa:	c606                	sw	ra,12(sp)
    94ac:	1c2020ef          	jal	ra,b66e <_lseek>
    94b0:	57fd                	li	a5,-1
    94b2:	00f51963          	bne	a0,a5,94c4 <_lseek_r+0x2e>
    94b6:	1fffa797          	auipc	a5,0x1fffa
    94ba:	01a78793          	addi	a5,a5,26 # 200034d0 <errno>
    94be:	439c                	lw	a5,0(a5)
    94c0:	c391                	beqz	a5,94c4 <_lseek_r+0x2e>
    94c2:	c01c                	sw	a5,0(s0)
    94c4:	40b2                	lw	ra,12(sp)
    94c6:	4422                	lw	s0,8(sp)
    94c8:	0141                	addi	sp,sp,16
    94ca:	8082                	ret

000094cc <_read_r>:
    94cc:	1141                	addi	sp,sp,-16
    94ce:	c422                	sw	s0,8(sp)
    94d0:	842a                	mv	s0,a0
    94d2:	852e                	mv	a0,a1
    94d4:	85b2                	mv	a1,a2
    94d6:	8636                	mv	a2,a3
    94d8:	1fffa797          	auipc	a5,0x1fffa
    94dc:	fe07ac23          	sw	zero,-8(a5) # 200034d0 <errno>
    94e0:	c606                	sw	ra,12(sp)
    94e2:	19c020ef          	jal	ra,b67e <_read>
    94e6:	57fd                	li	a5,-1
    94e8:	00f51963          	bne	a0,a5,94fa <_read_r+0x2e>
    94ec:	1fffa797          	auipc	a5,0x1fffa
    94f0:	fe478793          	addi	a5,a5,-28 # 200034d0 <errno>
    94f4:	439c                	lw	a5,0(a5)
    94f6:	c391                	beqz	a5,94fa <_read_r+0x2e>
    94f8:	c01c                	sw	a5,0(s0)
    94fa:	40b2                	lw	ra,12(sp)
    94fc:	4422                	lw	s0,8(sp)
    94fe:	0141                	addi	sp,sp,16
    9500:	8082                	ret

00009502 <__adddf3>:
    9502:	00100837          	lui	a6,0x100
    9506:	1101                	addi	sp,sp,-32
    9508:	187d                	addi	a6,a6,-1
    950a:	00b87733          	and	a4,a6,a1
    950e:	ca26                	sw	s1,20(sp)
    9510:	00d87833          	and	a6,a6,a3
    9514:	0145d493          	srli	s1,a1,0x14
    9518:	0146d313          	srli	t1,a3,0x14
    951c:	00371e13          	slli	t3,a4,0x3
    9520:	c64e                	sw	s3,12(sp)
    9522:	01d55713          	srli	a4,a0,0x1d
    9526:	080e                	slli	a6,a6,0x3
    9528:	01d65793          	srli	a5,a2,0x1d
    952c:	7ff4f493          	andi	s1,s1,2047
    9530:	7ff37313          	andi	t1,t1,2047
    9534:	ce06                	sw	ra,28(sp)
    9536:	cc22                	sw	s0,24(sp)
    9538:	c84a                	sw	s2,16(sp)
    953a:	01f5d993          	srli	s3,a1,0x1f
    953e:	01f6de93          	srli	t4,a3,0x1f
    9542:	01c76733          	or	a4,a4,t3
    9546:	00351f13          	slli	t5,a0,0x3
    954a:	0107e833          	or	a6,a5,a6
    954e:	00361f93          	slli	t6,a2,0x3
    9552:	40648e33          	sub	t3,s1,t1
    9556:	19d98063          	beq	s3,t4,96d6 <__adddf3+0x1d4>
    955a:	13c05663          	blez	t3,9686 <__adddf3+0x184>
    955e:	1c030463          	beqz	t1,9726 <__adddf3+0x224>
    9562:	008006b7          	lui	a3,0x800
    9566:	7ff00793          	li	a5,2047
    956a:	00d86833          	or	a6,a6,a3
    956e:	36f48f63          	beq	s1,a5,98ec <__adddf3+0x3ea>
    9572:	03800793          	li	a5,56
    9576:	35c7c063          	blt	a5,t3,98b6 <__adddf3+0x3b4>
    957a:	47fd                	li	a5,31
    957c:	47c7cd63          	blt	a5,t3,99f6 <__adddf3+0x4f4>
    9580:	02000513          	li	a0,32
    9584:	41c50533          	sub	a0,a0,t3
    9588:	01cfd7b3          	srl	a5,t6,t3
    958c:	00a816b3          	sll	a3,a6,a0
    9590:	00af9933          	sll	s2,t6,a0
    9594:	8edd                	or	a3,a3,a5
    9596:	01203933          	snez	s2,s2
    959a:	01c857b3          	srl	a5,a6,t3
    959e:	0126e933          	or	s2,a3,s2
    95a2:	8f1d                	sub	a4,a4,a5
    95a4:	412f0933          	sub	s2,t5,s2
    95a8:	012f37b3          	sltu	a5,t5,s2
    95ac:	40f70633          	sub	a2,a4,a5
    95b0:	00861793          	slli	a5,a2,0x8
    95b4:	2407d463          	bgez	a5,97fc <__adddf3+0x2fa>
    95b8:	00800737          	lui	a4,0x800
    95bc:	177d                	addi	a4,a4,-1
    95be:	00e67433          	and	s0,a2,a4
    95c2:	2c040c63          	beqz	s0,989a <__adddf3+0x398>
    95c6:	8522                	mv	a0,s0
    95c8:	008020ef          	jal	ra,b5d0 <__clzsi2>
    95cc:	ff850713          	addi	a4,a0,-8
    95d0:	02000793          	li	a5,32
    95d4:	8f99                	sub	a5,a5,a4
    95d6:	00f957b3          	srl	a5,s2,a5
    95da:	00e41633          	sll	a2,s0,a4
    95de:	8fd1                	or	a5,a5,a2
    95e0:	00e91933          	sll	s2,s2,a4
    95e4:	2a974163          	blt	a4,s1,9886 <__adddf3+0x384>
    95e8:	40970533          	sub	a0,a4,s1
    95ec:	00150613          	addi	a2,a0,1
    95f0:	477d                	li	a4,31
    95f2:	38c74d63          	blt	a4,a2,998c <__adddf3+0x48a>
    95f6:	02000713          	li	a4,32
    95fa:	8f11                	sub	a4,a4,a2
    95fc:	00c956b3          	srl	a3,s2,a2
    9600:	00e91933          	sll	s2,s2,a4
    9604:	00e79733          	sll	a4,a5,a4
    9608:	8f55                	or	a4,a4,a3
    960a:	01203933          	snez	s2,s2
    960e:	01276933          	or	s2,a4,s2
    9612:	00c7d633          	srl	a2,a5,a2
    9616:	4481                	li	s1,0
    9618:	00797793          	andi	a5,s2,7
    961c:	cf81                	beqz	a5,9634 <__adddf3+0x132>
    961e:	00f97713          	andi	a4,s2,15
    9622:	4791                	li	a5,4
    9624:	00f70863          	beq	a4,a5,9634 <__adddf3+0x132>
    9628:	00490713          	addi	a4,s2,4
    962c:	01273933          	sltu	s2,a4,s2
    9630:	964a                	add	a2,a2,s2
    9632:	893a                	mv	s2,a4
    9634:	00861793          	slli	a5,a2,0x8
    9638:	1c07d663          	bgez	a5,9804 <__adddf3+0x302>
    963c:	00148513          	addi	a0,s1,1
    9640:	7ff00793          	li	a5,2047
    9644:	85ce                	mv	a1,s3
    9646:	20f50463          	beq	a0,a5,984e <__adddf3+0x34c>
    964a:	ff8007b7          	lui	a5,0xff800
    964e:	17fd                	addi	a5,a5,-1
    9650:	8ff1                	and	a5,a5,a2
    9652:	01d79893          	slli	a7,a5,0x1d
    9656:	00395913          	srli	s2,s2,0x3
    965a:	07a6                	slli	a5,a5,0x9
    965c:	0128e8b3          	or	a7,a7,s2
    9660:	83b1                	srli	a5,a5,0xc
    9662:	7ff57513          	andi	a0,a0,2047
    9666:	00c79693          	slli	a3,a5,0xc
    966a:	0552                	slli	a0,a0,0x14
    966c:	40f2                	lw	ra,28(sp)
    966e:	4462                	lw	s0,24(sp)
    9670:	82b1                	srli	a3,a3,0xc
    9672:	05fe                	slli	a1,a1,0x1f
    9674:	8ec9                	or	a3,a3,a0
    9676:	8ecd                	or	a3,a3,a1
    9678:	44d2                	lw	s1,20(sp)
    967a:	4942                	lw	s2,16(sp)
    967c:	49b2                	lw	s3,12(sp)
    967e:	8546                	mv	a0,a7
    9680:	85b6                	mv	a1,a3
    9682:	6105                	addi	sp,sp,32
    9684:	8082                	ret
    9686:	0a0e1e63          	bnez	t3,9742 <__adddf3+0x240>
    968a:	00148313          	addi	t1,s1,1
    968e:	7fe37313          	andi	t1,t1,2046
    9692:	22031763          	bnez	t1,98c0 <__adddf3+0x3be>
    9696:	01e767b3          	or	a5,a4,t5
    969a:	01f868b3          	or	a7,a6,t6
    969e:	1a049d63          	bnez	s1,9858 <__adddf3+0x356>
    96a2:	40078763          	beqz	a5,9ab0 <__adddf3+0x5ae>
    96a6:	44088663          	beqz	a7,9af2 <__adddf3+0x5f0>
    96aa:	41ff0933          	sub	s2,t5,t6
    96ae:	410707b3          	sub	a5,a4,a6
    96b2:	012f3633          	sltu	a2,t5,s2
    96b6:	40c78633          	sub	a2,a5,a2
    96ba:	00861793          	slli	a5,a2,0x8
    96be:	4c07d663          	bgez	a5,9b8a <__adddf3+0x688>
    96c2:	41ef8933          	sub	s2,t6,t5
    96c6:	40e807b3          	sub	a5,a6,a4
    96ca:	012fb633          	sltu	a2,t6,s2
    96ce:	40c78633          	sub	a2,a5,a2
    96d2:	89f6                	mv	s3,t4
    96d4:	b791                	j	9618 <__adddf3+0x116>
    96d6:	0fc05063          	blez	t3,97b6 <__adddf3+0x2b4>
    96da:	0c030063          	beqz	t1,979a <__adddf3+0x298>
    96de:	008006b7          	lui	a3,0x800
    96e2:	7ff00793          	li	a5,2047
    96e6:	00d86833          	or	a6,a6,a3
    96ea:	3af48a63          	beq	s1,a5,9a9e <__adddf3+0x59c>
    96ee:	03800793          	li	a5,56
    96f2:	13c7cb63          	blt	a5,t3,9828 <__adddf3+0x326>
    96f6:	47fd                	li	a5,31
    96f8:	35c7df63          	bge	a5,t3,9a56 <__adddf3+0x554>
    96fc:	fe0e0913          	addi	s2,t3,-32
    9700:	02000793          	li	a5,32
    9704:	012856b3          	srl	a3,a6,s2
    9708:	00fe0a63          	beq	t3,a5,971c <__adddf3+0x21a>
    970c:	04000913          	li	s2,64
    9710:	41c90933          	sub	s2,s2,t3
    9714:	01281933          	sll	s2,a6,s2
    9718:	012fefb3          	or	t6,t6,s2
    971c:	01f03933          	snez	s2,t6
    9720:	00d96933          	or	s2,s2,a3
    9724:	a231                	j	9830 <__adddf3+0x32e>
    9726:	01f867b3          	or	a5,a6,t6
    972a:	1c078a63          	beqz	a5,98fe <__adddf3+0x3fc>
    972e:	fffe0793          	addi	a5,t3,-1
    9732:	38078c63          	beqz	a5,9aca <__adddf3+0x5c8>
    9736:	7ff00693          	li	a3,2047
    973a:	1ade0963          	beq	t3,a3,98ec <__adddf3+0x3ea>
    973e:	8e3e                	mv	t3,a5
    9740:	bd0d                	j	9572 <__adddf3+0x70>
    9742:	409305b3          	sub	a1,t1,s1
    9746:	22049163          	bnez	s1,9968 <__adddf3+0x466>
    974a:	01e767b3          	or	a5,a4,t5
    974e:	32078763          	beqz	a5,9a7c <__adddf3+0x57a>
    9752:	fff58793          	addi	a5,a1,-1
    9756:	44078163          	beqz	a5,9b98 <__adddf3+0x696>
    975a:	7ff00693          	li	a3,2047
    975e:	20d58c63          	beq	a1,a3,9976 <__adddf3+0x474>
    9762:	85be                	mv	a1,a5
    9764:	03800793          	li	a5,56
    9768:	2ab7cc63          	blt	a5,a1,9a20 <__adddf3+0x51e>
    976c:	47fd                	li	a5,31
    976e:	3cb7cf63          	blt	a5,a1,9b4c <__adddf3+0x64a>
    9772:	02000793          	li	a5,32
    9776:	8f8d                	sub	a5,a5,a1
    9778:	00f71933          	sll	s2,a4,a5
    977c:	00bf56b3          	srl	a3,t5,a1
    9780:	00ff17b3          	sll	a5,t5,a5
    9784:	00d96933          	or	s2,s2,a3
    9788:	00f037b3          	snez	a5,a5
    978c:	00b75733          	srl	a4,a4,a1
    9790:	00f96933          	or	s2,s2,a5
    9794:	40e80833          	sub	a6,a6,a4
    9798:	ac41                	j	9a28 <__adddf3+0x526>
    979a:	01f867b3          	or	a5,a6,t6
    979e:	34078063          	beqz	a5,9ade <__adddf3+0x5dc>
    97a2:	fffe0793          	addi	a5,t3,-1
    97a6:	20078a63          	beqz	a5,99ba <__adddf3+0x4b8>
    97aa:	7ff00693          	li	a3,2047
    97ae:	2ede0863          	beq	t3,a3,9a9e <__adddf3+0x59c>
    97b2:	8e3e                	mv	t3,a5
    97b4:	bf2d                	j	96ee <__adddf3+0x1ec>
    97b6:	140e1e63          	bnez	t3,9912 <__adddf3+0x410>
    97ba:	00148693          	addi	a3,s1,1
    97be:	7fe6f793          	andi	a5,a3,2046
    97c2:	34079163          	bnez	a5,9b04 <__adddf3+0x602>
    97c6:	01e767b3          	or	a5,a4,t5
    97ca:	2c049563          	bnez	s1,9a94 <__adddf3+0x592>
    97ce:	3e078063          	beqz	a5,9bae <__adddf3+0x6ac>
    97d2:	01f867b3          	or	a5,a6,t6
    97d6:	30078e63          	beqz	a5,9af2 <__adddf3+0x5f0>
    97da:	01ff0933          	add	s2,t5,t6
    97de:	010707b3          	add	a5,a4,a6
    97e2:	01e93f33          	sltu	t5,s2,t5
    97e6:	01e78633          	add	a2,a5,t5
    97ea:	00861793          	slli	a5,a2,0x8
    97ee:	0007d763          	bgez	a5,97fc <__adddf3+0x2fa>
    97f2:	ff8007b7          	lui	a5,0xff800
    97f6:	17fd                	addi	a5,a5,-1
    97f8:	8e7d                	and	a2,a2,a5
    97fa:	4485                	li	s1,1
    97fc:	00797793          	andi	a5,s2,7
    9800:	e0079fe3          	bnez	a5,961e <__adddf3+0x11c>
    9804:	01d61793          	slli	a5,a2,0x1d
    9808:	00395893          	srli	a7,s2,0x3
    980c:	00f8e8b3          	or	a7,a7,a5
    9810:	00365793          	srli	a5,a2,0x3
    9814:	7ff00713          	li	a4,2047
    9818:	04e48d63          	beq	s1,a4,9872 <__adddf3+0x370>
    981c:	07b2                	slli	a5,a5,0xc
    981e:	83b1                	srli	a5,a5,0xc
    9820:	7ff4f513          	andi	a0,s1,2047
    9824:	85ce                	mv	a1,s3
    9826:	b581                	j	9666 <__adddf3+0x164>
    9828:	01f86933          	or	s2,a6,t6
    982c:	01203933          	snez	s2,s2
    9830:	997a                	add	s2,s2,t5
    9832:	01e937b3          	sltu	a5,s2,t5
    9836:	00e78633          	add	a2,a5,a4
    983a:	00861793          	slli	a5,a2,0x8
    983e:	fa07dfe3          	bgez	a5,97fc <__adddf3+0x2fa>
    9842:	0485                	addi	s1,s1,1
    9844:	7ff00793          	li	a5,2047
    9848:	18f49663          	bne	s1,a5,99d4 <__adddf3+0x4d2>
    984c:	85ce                	mv	a1,s3
    984e:	7ff00513          	li	a0,2047
    9852:	4781                	li	a5,0
    9854:	4881                	li	a7,0
    9856:	bd01                	j	9666 <__adddf3+0x164>
    9858:	ebc1                	bnez	a5,98e8 <__adddf3+0x3e6>
    985a:	3a088463          	beqz	a7,9c02 <__adddf3+0x700>
    985e:	00361693          	slli	a3,a2,0x3
    9862:	01d81793          	slli	a5,a6,0x1d
    9866:	828d                	srli	a3,a3,0x3
    9868:	00d7e8b3          	or	a7,a5,a3
    986c:	89f6                	mv	s3,t4
    986e:	00385793          	srli	a5,a6,0x3
    9872:	00f8e7b3          	or	a5,a7,a5
    9876:	dbf9                	beqz	a5,984c <__adddf3+0x34a>
    9878:	4581                	li	a1,0
    987a:	7ff00513          	li	a0,2047
    987e:	000807b7          	lui	a5,0x80
    9882:	4881                	li	a7,0
    9884:	b3cd                	j	9666 <__adddf3+0x164>
    9886:	ff800637          	lui	a2,0xff800
    988a:	167d                	addi	a2,a2,-1
    988c:	8e7d                	and	a2,a2,a5
    988e:	00797793          	andi	a5,s2,7
    9892:	8c99                	sub	s1,s1,a4
    9894:	d80795e3          	bnez	a5,961e <__adddf3+0x11c>
    9898:	b7b5                	j	9804 <__adddf3+0x302>
    989a:	854a                	mv	a0,s2
    989c:	535010ef          	jal	ra,b5d0 <__clzsi2>
    98a0:	01850713          	addi	a4,a0,24
    98a4:	47fd                	li	a5,31
    98a6:	d2e7d5e3          	bge	a5,a4,95d0 <__adddf3+0xce>
    98aa:	ff850613          	addi	a2,a0,-8
    98ae:	00c917b3          	sll	a5,s2,a2
    98b2:	4901                	li	s2,0
    98b4:	bb05                	j	95e4 <__adddf3+0xe2>
    98b6:	01f86933          	or	s2,a6,t6
    98ba:	01203933          	snez	s2,s2
    98be:	b1dd                	j	95a4 <__adddf3+0xa2>
    98c0:	41ff0933          	sub	s2,t5,t6
    98c4:	41070633          	sub	a2,a4,a6
    98c8:	012f3433          	sltu	s0,t5,s2
    98cc:	40860433          	sub	s0,a2,s0
    98d0:	00841793          	slli	a5,s0,0x8
    98d4:	2407cd63          	bltz	a5,9b2e <__adddf3+0x62c>
    98d8:	008968b3          	or	a7,s2,s0
    98dc:	ce0893e3          	bnez	a7,95c2 <__adddf3+0xc0>
    98e0:	4781                	li	a5,0
    98e2:	4981                	li	s3,0
    98e4:	4481                	li	s1,0
    98e6:	bf1d                	j	981c <__adddf3+0x31a>
    98e8:	f80898e3          	bnez	a7,9878 <__adddf3+0x376>
    98ec:	050e                	slli	a0,a0,0x3
    98ee:	01d71793          	slli	a5,a4,0x1d
    98f2:	810d                	srli	a0,a0,0x3
    98f4:	00a7e8b3          	or	a7,a5,a0
    98f8:	00375793          	srli	a5,a4,0x3
    98fc:	bf9d                	j	9872 <__adddf3+0x370>
    98fe:	050e                	slli	a0,a0,0x3
    9900:	01d71793          	slli	a5,a4,0x1d
    9904:	810d                	srli	a0,a0,0x3
    9906:	00a7e8b3          	or	a7,a5,a0
    990a:	84f2                	mv	s1,t3
    990c:	00375793          	srli	a5,a4,0x3
    9910:	b711                	j	9814 <__adddf3+0x312>
    9912:	40930533          	sub	a0,t1,s1
    9916:	12048263          	beqz	s1,9a3a <__adddf3+0x538>
    991a:	008006b7          	lui	a3,0x800
    991e:	7ff00793          	li	a5,2047
    9922:	8f55                	or	a4,a4,a3
    9924:	2ef30d63          	beq	t1,a5,9c1e <__adddf3+0x71c>
    9928:	03800793          	li	a5,56
    992c:	20a7cb63          	blt	a5,a0,9b42 <__adddf3+0x640>
    9930:	47fd                	li	a5,31
    9932:	2aa7c363          	blt	a5,a0,9bd8 <__adddf3+0x6d6>
    9936:	02000793          	li	a5,32
    993a:	8f89                	sub	a5,a5,a0
    993c:	00f71933          	sll	s2,a4,a5
    9940:	00af56b3          	srl	a3,t5,a0
    9944:	00ff17b3          	sll	a5,t5,a5
    9948:	00d96933          	or	s2,s2,a3
    994c:	00f037b3          	snez	a5,a5
    9950:	00a75733          	srl	a4,a4,a0
    9954:	00f96933          	or	s2,s2,a5
    9958:	983a                	add	a6,a6,a4
    995a:	997e                	add	s2,s2,t6
    995c:	01f937b3          	sltu	a5,s2,t6
    9960:	01078633          	add	a2,a5,a6
    9964:	849a                	mv	s1,t1
    9966:	bdd1                	j	983a <__adddf3+0x338>
    9968:	008006b7          	lui	a3,0x800
    996c:	7ff00793          	li	a5,2047
    9970:	8f55                	or	a4,a4,a3
    9972:	def319e3          	bne	t1,a5,9764 <__adddf3+0x262>
    9976:	00361793          	slli	a5,a2,0x3
    997a:	838d                	srli	a5,a5,0x3
    997c:	01d81893          	slli	a7,a6,0x1d
    9980:	0117e8b3          	or	a7,a5,a7
    9984:	89f6                	mv	s3,t4
    9986:	00385793          	srli	a5,a6,0x3
    998a:	b5e5                	j	9872 <__adddf3+0x370>
    998c:	fe150713          	addi	a4,a0,-31
    9990:	02000693          	li	a3,32
    9994:	00e7d733          	srl	a4,a5,a4
    9998:	00d60a63          	beq	a2,a3,99ac <__adddf3+0x4aa>
    999c:	04000693          	li	a3,64
    99a0:	40c68633          	sub	a2,a3,a2
    99a4:	00c79633          	sll	a2,a5,a2
    99a8:	00c96933          	or	s2,s2,a2
    99ac:	01203933          	snez	s2,s2
    99b0:	00e96933          	or	s2,s2,a4
    99b4:	4601                	li	a2,0
    99b6:	4481                	li	s1,0
    99b8:	b591                	j	97fc <__adddf3+0x2fa>
    99ba:	01ff0933          	add	s2,t5,t6
    99be:	010707b3          	add	a5,a4,a6
    99c2:	01e93633          	sltu	a2,s2,t5
    99c6:	963e                	add	a2,a2,a5
    99c8:	00861793          	slli	a5,a2,0x8
    99cc:	4485                	li	s1,1
    99ce:	e207d7e3          	bgez	a5,97fc <__adddf3+0x2fa>
    99d2:	4489                	li	s1,2
    99d4:	ff8007b7          	lui	a5,0xff800
    99d8:	17fd                	addi	a5,a5,-1
    99da:	8ff1                	and	a5,a5,a2
    99dc:	00195713          	srli	a4,s2,0x1
    99e0:	00197913          	andi	s2,s2,1
    99e4:	01276933          	or	s2,a4,s2
    99e8:	01f79893          	slli	a7,a5,0x1f
    99ec:	0128e933          	or	s2,a7,s2
    99f0:	0017d613          	srli	a2,a5,0x1
    99f4:	b115                	j	9618 <__adddf3+0x116>
    99f6:	fe0e0913          	addi	s2,t3,-32
    99fa:	02000793          	li	a5,32
    99fe:	012856b3          	srl	a3,a6,s2
    9a02:	00fe0a63          	beq	t3,a5,9a16 <__adddf3+0x514>
    9a06:	04000913          	li	s2,64
    9a0a:	41c90933          	sub	s2,s2,t3
    9a0e:	01281933          	sll	s2,a6,s2
    9a12:	012fefb3          	or	t6,t6,s2
    9a16:	01f03933          	snez	s2,t6
    9a1a:	00d96933          	or	s2,s2,a3
    9a1e:	b659                	j	95a4 <__adddf3+0xa2>
    9a20:	01e76933          	or	s2,a4,t5
    9a24:	01203933          	snez	s2,s2
    9a28:	412f8933          	sub	s2,t6,s2
    9a2c:	012fb7b3          	sltu	a5,t6,s2
    9a30:	40f80633          	sub	a2,a6,a5
    9a34:	849a                	mv	s1,t1
    9a36:	89f6                	mv	s3,t4
    9a38:	bea5                	j	95b0 <__adddf3+0xae>
    9a3a:	01e767b3          	or	a5,a4,t5
    9a3e:	18078263          	beqz	a5,9bc2 <__adddf3+0x6c0>
    9a42:	fff50793          	addi	a5,a0,-1
    9a46:	1c078463          	beqz	a5,9c0e <__adddf3+0x70c>
    9a4a:	7ff00693          	li	a3,2047
    9a4e:	12d50463          	beq	a0,a3,9b76 <__adddf3+0x674>
    9a52:	853e                	mv	a0,a5
    9a54:	bdd1                	j	9928 <__adddf3+0x426>
    9a56:	02000793          	li	a5,32
    9a5a:	41c787b3          	sub	a5,a5,t3
    9a5e:	00f816b3          	sll	a3,a6,a5
    9a62:	00ff9933          	sll	s2,t6,a5
    9a66:	01cfd633          	srl	a2,t6,t3
    9a6a:	8ed1                	or	a3,a3,a2
    9a6c:	01203933          	snez	s2,s2
    9a70:	01c857b3          	srl	a5,a6,t3
    9a74:	0126e933          	or	s2,a3,s2
    9a78:	973e                	add	a4,a4,a5
    9a7a:	bb5d                	j	9830 <__adddf3+0x32e>
    9a7c:	00361793          	slli	a5,a2,0x3
    9a80:	838d                	srli	a5,a5,0x3
    9a82:	01d81893          	slli	a7,a6,0x1d
    9a86:	0117e8b3          	or	a7,a5,a7
    9a8a:	84ae                	mv	s1,a1
    9a8c:	00385793          	srli	a5,a6,0x3
    9a90:	89f6                	mv	s3,t4
    9a92:	b349                	j	9814 <__adddf3+0x312>
    9a94:	c3ed                	beqz	a5,9b76 <__adddf3+0x674>
    9a96:	01f86933          	or	s2,a6,t6
    9a9a:	dc091fe3          	bnez	s2,9878 <__adddf3+0x376>
    9a9e:	050e                	slli	a0,a0,0x3
    9aa0:	01d71793          	slli	a5,a4,0x1d
    9aa4:	810d                	srli	a0,a0,0x3
    9aa6:	00f568b3          	or	a7,a0,a5
    9aaa:	00375793          	srli	a5,a4,0x3
    9aae:	b3d1                	j	9872 <__adddf3+0x370>
    9ab0:	0e088163          	beqz	a7,9b92 <__adddf3+0x690>
    9ab4:	00361693          	slli	a3,a2,0x3
    9ab8:	01d81793          	slli	a5,a6,0x1d
    9abc:	828d                	srli	a3,a3,0x3
    9abe:	00d7e8b3          	or	a7,a5,a3
    9ac2:	89f6                	mv	s3,t4
    9ac4:	00385793          	srli	a5,a6,0x3
    9ac8:	bb91                	j	981c <__adddf3+0x31a>
    9aca:	41ff0933          	sub	s2,t5,t6
    9ace:	410707b3          	sub	a5,a4,a6
    9ad2:	012f3f33          	sltu	t5,t5,s2
    9ad6:	41e78633          	sub	a2,a5,t5
    9ada:	4485                	li	s1,1
    9adc:	bcd1                	j	95b0 <__adddf3+0xae>
    9ade:	050e                	slli	a0,a0,0x3
    9ae0:	01d71793          	slli	a5,a4,0x1d
    9ae4:	810d                	srli	a0,a0,0x3
    9ae6:	00f568b3          	or	a7,a0,a5
    9aea:	84f2                	mv	s1,t3
    9aec:	00375793          	srli	a5,a4,0x3
    9af0:	b315                	j	9814 <__adddf3+0x312>
    9af2:	050e                	slli	a0,a0,0x3
    9af4:	01d71793          	slli	a5,a4,0x1d
    9af8:	810d                	srli	a0,a0,0x3
    9afa:	00a7e8b3          	or	a7,a5,a0
    9afe:	00375793          	srli	a5,a4,0x3
    9b02:	bb29                	j	981c <__adddf3+0x31a>
    9b04:	7ff00793          	li	a5,2047
    9b08:	d4f682e3          	beq	a3,a5,984c <__adddf3+0x34a>
    9b0c:	01ff0933          	add	s2,t5,t6
    9b10:	01e93633          	sltu	a2,s2,t5
    9b14:	010707b3          	add	a5,a4,a6
    9b18:	97b2                	add	a5,a5,a2
    9b1a:	01f79893          	slli	a7,a5,0x1f
    9b1e:	00195913          	srli	s2,s2,0x1
    9b22:	0128e933          	or	s2,a7,s2
    9b26:	0017d613          	srli	a2,a5,0x1
    9b2a:	84b6                	mv	s1,a3
    9b2c:	b9c1                	j	97fc <__adddf3+0x2fa>
    9b2e:	41ef8933          	sub	s2,t6,t5
    9b32:	40e80733          	sub	a4,a6,a4
    9b36:	012fb633          	sltu	a2,t6,s2
    9b3a:	40c70433          	sub	s0,a4,a2
    9b3e:	89f6                	mv	s3,t4
    9b40:	b449                	j	95c2 <__adddf3+0xc0>
    9b42:	01e76933          	or	s2,a4,t5
    9b46:	01203933          	snez	s2,s2
    9b4a:	bd01                	j	995a <__adddf3+0x458>
    9b4c:	fe058793          	addi	a5,a1,-32
    9b50:	02000693          	li	a3,32
    9b54:	00f757b3          	srl	a5,a4,a5
    9b58:	00d58a63          	beq	a1,a3,9b6c <__adddf3+0x66a>
    9b5c:	04000693          	li	a3,64
    9b60:	40b685b3          	sub	a1,a3,a1
    9b64:	00b71733          	sll	a4,a4,a1
    9b68:	00ef6f33          	or	t5,t5,a4
    9b6c:	01e03933          	snez	s2,t5
    9b70:	00f96933          	or	s2,s2,a5
    9b74:	bd55                	j	9a28 <__adddf3+0x526>
    9b76:	00361793          	slli	a5,a2,0x3
    9b7a:	838d                	srli	a5,a5,0x3
    9b7c:	01d81893          	slli	a7,a6,0x1d
    9b80:	0117e8b3          	or	a7,a5,a7
    9b84:	00385793          	srli	a5,a6,0x3
    9b88:	b1ed                	j	9872 <__adddf3+0x370>
    9b8a:	00c968b3          	or	a7,s2,a2
    9b8e:	c60897e3          	bnez	a7,97fc <__adddf3+0x2fa>
    9b92:	4781                	li	a5,0
    9b94:	4981                	li	s3,0
    9b96:	b159                	j	981c <__adddf3+0x31a>
    9b98:	41ef8933          	sub	s2,t6,t5
    9b9c:	40e807b3          	sub	a5,a6,a4
    9ba0:	012fb633          	sltu	a2,t6,s2
    9ba4:	40c78633          	sub	a2,a5,a2
    9ba8:	89f6                	mv	s3,t4
    9baa:	4485                	li	s1,1
    9bac:	b411                	j	95b0 <__adddf3+0xae>
    9bae:	00361693          	slli	a3,a2,0x3
    9bb2:	01d81793          	slli	a5,a6,0x1d
    9bb6:	828d                	srli	a3,a3,0x3
    9bb8:	00d7e8b3          	or	a7,a5,a3
    9bbc:	00385793          	srli	a5,a6,0x3
    9bc0:	b9b1                	j	981c <__adddf3+0x31a>
    9bc2:	00361693          	slli	a3,a2,0x3
    9bc6:	01d81793          	slli	a5,a6,0x1d
    9bca:	828d                	srli	a3,a3,0x3
    9bcc:	00d7e8b3          	or	a7,a5,a3
    9bd0:	84aa                	mv	s1,a0
    9bd2:	00385793          	srli	a5,a6,0x3
    9bd6:	b93d                	j	9814 <__adddf3+0x312>
    9bd8:	fe050793          	addi	a5,a0,-32
    9bdc:	02000693          	li	a3,32
    9be0:	00f757b3          	srl	a5,a4,a5
    9be4:	00d50a63          	beq	a0,a3,9bf8 <__adddf3+0x6f6>
    9be8:	04000693          	li	a3,64
    9bec:	40a68533          	sub	a0,a3,a0
    9bf0:	00a71733          	sll	a4,a4,a0
    9bf4:	00ef6f33          	or	t5,t5,a4
    9bf8:	01e03933          	snez	s2,t5
    9bfc:	00f96933          	or	s2,s2,a5
    9c00:	bba9                	j	995a <__adddf3+0x458>
    9c02:	4581                	li	a1,0
    9c04:	7ff00513          	li	a0,2047
    9c08:	000807b7          	lui	a5,0x80
    9c0c:	bca9                	j	9666 <__adddf3+0x164>
    9c0e:	01ff0933          	add	s2,t5,t6
    9c12:	010707b3          	add	a5,a4,a6
    9c16:	01f93633          	sltu	a2,s2,t6
    9c1a:	963e                	add	a2,a2,a5
    9c1c:	b375                	j	99c8 <__adddf3+0x4c6>
    9c1e:	00361693          	slli	a3,a2,0x3
    9c22:	01d81793          	slli	a5,a6,0x1d
    9c26:	828d                	srli	a3,a3,0x3
    9c28:	00d7e8b3          	or	a7,a5,a3
    9c2c:	00385793          	srli	a5,a6,0x3
    9c30:	b189                	j	9872 <__adddf3+0x370>

00009c32 <__divdf3>:
    9c32:	7139                	addi	sp,sp,-64
    9c34:	0145d793          	srli	a5,a1,0x14
    9c38:	dc22                	sw	s0,56(sp)
    9c3a:	d84a                	sw	s2,48(sp)
    9c3c:	d256                	sw	s5,36(sp)
    9c3e:	892a                	mv	s2,a0
    9c40:	00c59413          	slli	s0,a1,0xc
    9c44:	de06                	sw	ra,60(sp)
    9c46:	da26                	sw	s1,52(sp)
    9c48:	d64e                	sw	s3,44(sp)
    9c4a:	d452                	sw	s4,40(sp)
    9c4c:	d05a                	sw	s6,32(sp)
    9c4e:	ce5e                	sw	s7,28(sp)
    9c50:	7ff7f513          	andi	a0,a5,2047
    9c54:	8031                	srli	s0,s0,0xc
    9c56:	01f5da93          	srli	s5,a1,0x1f
    9c5a:	10050b63          	beqz	a0,9d70 <__divdf3+0x13e>
    9c5e:	7ff00793          	li	a5,2047
    9c62:	14f50b63          	beq	a0,a5,9db8 <__divdf3+0x186>
    9c66:	01d95a13          	srli	s4,s2,0x1d
    9c6a:	040e                	slli	s0,s0,0x3
    9c6c:	008a6433          	or	s0,s4,s0
    9c70:	00800a37          	lui	s4,0x800
    9c74:	01446a33          	or	s4,s0,s4
    9c78:	00391b13          	slli	s6,s2,0x3
    9c7c:	c0150493          	addi	s1,a0,-1023
    9c80:	4401                	li	s0,0
    9c82:	4b81                	li	s7,0
    9c84:	0146d813          	srli	a6,a3,0x14
    9c88:	00c69913          	slli	s2,a3,0xc
    9c8c:	7ff87813          	andi	a6,a6,2047
    9c90:	88b2                	mv	a7,a2
    9c92:	00c95913          	srli	s2,s2,0xc
    9c96:	01f6d993          	srli	s3,a3,0x1f
    9c9a:	08080e63          	beqz	a6,9d36 <__divdf3+0x104>
    9c9e:	7ff00793          	li	a5,2047
    9ca2:	04f80063          	beq	a6,a5,9ce2 <__divdf3+0xb0>
    9ca6:	01d65713          	srli	a4,a2,0x1d
    9caa:	090e                	slli	s2,s2,0x3
    9cac:	01276933          	or	s2,a4,s2
    9cb0:	c0180813          	addi	a6,a6,-1023 # ffc01 <_data_lma+0xf0b1d>
    9cb4:	008007b7          	lui	a5,0x800
    9cb8:	00f96733          	or	a4,s2,a5
    9cbc:	00361893          	slli	a7,a2,0x3
    9cc0:	410484b3          	sub	s1,s1,a6
    9cc4:	4581                	li	a1,0
    9cc6:	47bd                	li	a5,15
    9cc8:	013ac833          	xor	a6,s5,s3
    9ccc:	1a87e463          	bltu	a5,s0,9e74 <__divdf3+0x242>
    9cd0:	00005797          	auipc	a5,0x5
    9cd4:	29478793          	addi	a5,a5,660 # ef64 <p05.3319+0x24>
    9cd8:	040a                	slli	s0,s0,0x2
    9cda:	943e                	add	s0,s0,a5
    9cdc:	4010                	lw	a2,0(s0)
    9cde:	963e                	add	a2,a2,a5
    9ce0:	8602                	jr	a2
    9ce2:	00c96733          	or	a4,s2,a2
    9ce6:	80148493          	addi	s1,s1,-2047
    9cea:	10071263          	bnez	a4,9dee <__divdf3+0x1bc>
    9cee:	00246413          	ori	s0,s0,2
    9cf2:	4881                	li	a7,0
    9cf4:	4589                	li	a1,2
    9cf6:	bfc1                	j	9cc6 <__divdf3+0x94>
    9cf8:	7ff00613          	li	a2,2047
    9cfc:	4781                	li	a5,0
    9cfe:	4701                	li	a4,0
    9d00:	07b2                	slli	a5,a5,0xc
    9d02:	50f2                	lw	ra,60(sp)
    9d04:	5462                	lw	s0,56(sp)
    9d06:	0652                	slli	a2,a2,0x14
    9d08:	83b1                	srli	a5,a5,0xc
    9d0a:	087e                	slli	a6,a6,0x1f
    9d0c:	8fd1                	or	a5,a5,a2
    9d0e:	0107e7b3          	or	a5,a5,a6
    9d12:	54d2                	lw	s1,52(sp)
    9d14:	5942                	lw	s2,48(sp)
    9d16:	59b2                	lw	s3,44(sp)
    9d18:	5a22                	lw	s4,40(sp)
    9d1a:	5a92                	lw	s5,36(sp)
    9d1c:	5b02                	lw	s6,32(sp)
    9d1e:	4bf2                	lw	s7,28(sp)
    9d20:	853a                	mv	a0,a4
    9d22:	85be                	mv	a1,a5
    9d24:	6121                	addi	sp,sp,64
    9d26:	8082                	ret
    9d28:	4801                	li	a6,0
    9d2a:	7ff00613          	li	a2,2047
    9d2e:	000807b7          	lui	a5,0x80
    9d32:	4701                	li	a4,0
    9d34:	b7f1                	j	9d00 <__divdf3+0xce>
    9d36:	00c96733          	or	a4,s2,a2
    9d3a:	c74d                	beqz	a4,9de4 <__divdf3+0x1b2>
    9d3c:	30090863          	beqz	s2,a04c <__divdf3+0x41a>
    9d40:	854a                	mv	a0,s2
    9d42:	c432                	sw	a2,8(sp)
    9d44:	08d010ef          	jal	ra,b5d0 <__clzsi2>
    9d48:	4622                	lw	a2,8(sp)
    9d4a:	ff550713          	addi	a4,a0,-11
    9d4e:	47f5                	li	a5,29
    9d50:	ff850693          	addi	a3,a0,-8
    9d54:	8f99                	sub	a5,a5,a4
    9d56:	00d91933          	sll	s2,s2,a3
    9d5a:	00f657b3          	srl	a5,a2,a5
    9d5e:	0127e733          	or	a4,a5,s2
    9d62:	00d618b3          	sll	a7,a2,a3
    9d66:	9526                	add	a0,a0,s1
    9d68:	3f350493          	addi	s1,a0,1011
    9d6c:	4581                	li	a1,0
    9d6e:	bfa1                	j	9cc6 <__divdf3+0x94>
    9d70:	01246a33          	or	s4,s0,s2
    9d74:	060a0363          	beqz	s4,9dda <__divdf3+0x1a8>
    9d78:	c636                	sw	a3,12(sp)
    9d7a:	c432                	sw	a2,8(sp)
    9d7c:	2a040663          	beqz	s0,a028 <__divdf3+0x3f6>
    9d80:	8522                	mv	a0,s0
    9d82:	04f010ef          	jal	ra,b5d0 <__clzsi2>
    9d86:	4622                	lw	a2,8(sp)
    9d88:	46b2                	lw	a3,12(sp)
    9d8a:	84aa                	mv	s1,a0
    9d8c:	ff550713          	addi	a4,a0,-11
    9d90:	4a75                	li	s4,29
    9d92:	ff848b13          	addi	s6,s1,-8
    9d96:	40ea0a33          	sub	s4,s4,a4
    9d9a:	01641433          	sll	s0,s0,s6
    9d9e:	01495a33          	srl	s4,s2,s4
    9da2:	008a6a33          	or	s4,s4,s0
    9da6:	01691b33          	sll	s6,s2,s6
    9daa:	c0d00513          	li	a0,-1011
    9dae:	409504b3          	sub	s1,a0,s1
    9db2:	4401                	li	s0,0
    9db4:	4b81                	li	s7,0
    9db6:	b5f9                	j	9c84 <__divdf3+0x52>
    9db8:	01246a33          	or	s4,s0,s2
    9dbc:	000a1863          	bnez	s4,9dcc <__divdf3+0x19a>
    9dc0:	4421                	li	s0,8
    9dc2:	4b01                	li	s6,0
    9dc4:	7ff00493          	li	s1,2047
    9dc8:	4b89                	li	s7,2
    9dca:	bd6d                	j	9c84 <__divdf3+0x52>
    9dcc:	8a22                	mv	s4,s0
    9dce:	8b4a                	mv	s6,s2
    9dd0:	4431                	li	s0,12
    9dd2:	7ff00493          	li	s1,2047
    9dd6:	4b8d                	li	s7,3
    9dd8:	b575                	j	9c84 <__divdf3+0x52>
    9dda:	4411                	li	s0,4
    9ddc:	4b01                	li	s6,0
    9dde:	4481                	li	s1,0
    9de0:	4b85                	li	s7,1
    9de2:	b54d                	j	9c84 <__divdf3+0x52>
    9de4:	00146413          	ori	s0,s0,1
    9de8:	4881                	li	a7,0
    9dea:	4585                	li	a1,1
    9dec:	bde9                	j	9cc6 <__divdf3+0x94>
    9dee:	00346413          	ori	s0,s0,3
    9df2:	874a                	mv	a4,s2
    9df4:	458d                	li	a1,3
    9df6:	bdc1                	j	9cc6 <__divdf3+0x94>
    9df8:	2e050a63          	beqz	a0,a0ec <__divdf3+0x4ba>
    9dfc:	4785                	li	a5,1
    9dfe:	8f89                	sub	a5,a5,a0
    9e00:	03800693          	li	a3,56
    9e04:	32f6dd63          	bge	a3,a5,a13e <__divdf3+0x50c>
    9e08:	4601                	li	a2,0
    9e0a:	4781                	li	a5,0
    9e0c:	4701                	li	a4,0
    9e0e:	bdcd                	j	9d00 <__divdf3+0xce>
    9e10:	86ce                	mv	a3,s3
    9e12:	4789                	li	a5,2
    9e14:	3af58d63          	beq	a1,a5,a1ce <__divdf3+0x59c>
    9e18:	478d                	li	a5,3
    9e1a:	f0f587e3          	beq	a1,a5,9d28 <__divdf3+0xf6>
    9e1e:	4785                	li	a5,1
    9e20:	8836                	mv	a6,a3
    9e22:	fef583e3          	beq	a1,a5,9e08 <__divdf3+0x1d6>
    9e26:	3ff48513          	addi	a0,s1,1023
    9e2a:	fca057e3          	blez	a0,9df8 <__divdf3+0x1c6>
    9e2e:	0078f793          	andi	a5,a7,7
    9e32:	28079663          	bnez	a5,a0be <__divdf3+0x48c>
    9e36:	0038d693          	srli	a3,a7,0x3
    9e3a:	00771793          	slli	a5,a4,0x7
    9e3e:	0007d863          	bgez	a5,9e4e <__divdf3+0x21c>
    9e42:	ff0007b7          	lui	a5,0xff000
    9e46:	17fd                	addi	a5,a5,-1
    9e48:	8f7d                	and	a4,a4,a5
    9e4a:	40048513          	addi	a0,s1,1024
    9e4e:	7fe00793          	li	a5,2046
    9e52:	eaa7c3e3          	blt	a5,a0,9cf8 <__divdf3+0xc6>
    9e56:	01d71613          	slli	a2,a4,0x1d
    9e5a:	00971793          	slli	a5,a4,0x9
    9e5e:	83b1                	srli	a5,a5,0xc
    9e60:	00d66733          	or	a4,a2,a3
    9e64:	7ff57613          	andi	a2,a0,2047
    9e68:	bd61                	j	9d00 <__divdf3+0xce>
    9e6a:	86d6                	mv	a3,s5
    9e6c:	8752                	mv	a4,s4
    9e6e:	88da                	mv	a7,s6
    9e70:	85de                	mv	a1,s7
    9e72:	b745                	j	9e12 <__divdf3+0x1e0>
    9e74:	23476163          	bltu	a4,s4,a096 <__divdf3+0x464>
    9e78:	20ea0d63          	beq	s4,a4,a092 <__divdf3+0x460>
    9e7c:	86da                	mv	a3,s6
    9e7e:	14fd                	addi	s1,s1,-1
    9e80:	8452                	mv	s0,s4
    9e82:	4b01                	li	s6,0
    9e84:	00871793          	slli	a5,a4,0x8
    9e88:	0188d313          	srli	t1,a7,0x18
    9e8c:	00f36333          	or	t1,t1,a5
    9e90:	01035e93          	srli	t4,t1,0x10
    9e94:	03d457b3          	divu	a5,s0,t4
    9e98:	01031f13          	slli	t5,t1,0x10
    9e9c:	010f5f13          	srli	t5,t5,0x10
    9ea0:	0106d593          	srli	a1,a3,0x10
    9ea4:	00889e13          	slli	t3,a7,0x8
    9ea8:	03d47433          	remu	s0,s0,t4
    9eac:	02ff0733          	mul	a4,t5,a5
    9eb0:	0442                	slli	s0,s0,0x10
    9eb2:	8dc1                	or	a1,a1,s0
    9eb4:	00e5fb63          	bgeu	a1,a4,9eca <__divdf3+0x298>
    9eb8:	959a                	add	a1,a1,t1
    9eba:	fff78613          	addi	a2,a5,-1 # feffffff <__freertos_irq_stack_top+0xdefeffff>
    9ebe:	2665ee63          	bltu	a1,t1,a13a <__divdf3+0x508>
    9ec2:	26e5fc63          	bgeu	a1,a4,a13a <__divdf3+0x508>
    9ec6:	17f9                	addi	a5,a5,-2
    9ec8:	959a                	add	a1,a1,t1
    9eca:	8d99                	sub	a1,a1,a4
    9ecc:	03d5d733          	divu	a4,a1,t4
    9ed0:	06c2                	slli	a3,a3,0x10
    9ed2:	82c1                	srli	a3,a3,0x10
    9ed4:	03d5f5b3          	remu	a1,a1,t4
    9ed8:	02ef0633          	mul	a2,t5,a4
    9edc:	05c2                	slli	a1,a1,0x10
    9ede:	8dd5                	or	a1,a1,a3
    9ee0:	00c5fb63          	bgeu	a1,a2,9ef6 <__divdf3+0x2c4>
    9ee4:	959a                	add	a1,a1,t1
    9ee6:	fff70693          	addi	a3,a4,-1 # 7fffff <_data_lma+0x7f0f1b>
    9eea:	2465e663          	bltu	a1,t1,a136 <__divdf3+0x504>
    9eee:	24c5f463          	bgeu	a1,a2,a136 <__divdf3+0x504>
    9ef2:	1779                	addi	a4,a4,-2
    9ef4:	959a                	add	a1,a1,t1
    9ef6:	07c2                	slli	a5,a5,0x10
    9ef8:	6441                	lui	s0,0x10
    9efa:	8f5d                	or	a4,a4,a5
    9efc:	fff40793          	addi	a5,s0,-1 # ffff <_data_lma+0xf1b>
    9f00:	00f77533          	and	a0,a4,a5
    9f04:	01075893          	srli	a7,a4,0x10
    9f08:	010e5f93          	srli	t6,t3,0x10
    9f0c:	00fe77b3          	and	a5,t3,a5
    9f10:	02f502b3          	mul	t0,a0,a5
    9f14:	40c586b3          	sub	a3,a1,a2
    9f18:	02f883b3          	mul	t2,a7,a5
    9f1c:	0102d593          	srli	a1,t0,0x10
    9f20:	02af8633          	mul	a2,t6,a0
    9f24:	961e                	add	a2,a2,t2
    9f26:	962e                	add	a2,a2,a1
    9f28:	03f88533          	mul	a0,a7,t6
    9f2c:	00767363          	bgeu	a2,t2,9f32 <__divdf3+0x300>
    9f30:	9522                	add	a0,a0,s0
    9f32:	68c1                	lui	a7,0x10
    9f34:	18fd                	addi	a7,a7,-1
    9f36:	01065593          	srli	a1,a2,0x10
    9f3a:	01167633          	and	a2,a2,a7
    9f3e:	0642                	slli	a2,a2,0x10
    9f40:	0112f8b3          	and	a7,t0,a7
    9f44:	95aa                	add	a1,a1,a0
    9f46:	9646                	add	a2,a2,a7
    9f48:	12b6e663          	bltu	a3,a1,a074 <__divdf3+0x442>
    9f4c:	12b68263          	beq	a3,a1,a070 <__divdf3+0x43e>
    9f50:	40cb0633          	sub	a2,s6,a2
    9f54:	8e8d                	sub	a3,a3,a1
    9f56:	00cb3b33          	sltu	s6,s6,a2
    9f5a:	41668b33          	sub	s6,a3,s6
    9f5e:	3ff48513          	addi	a0,s1,1023
    9f62:	17630c63          	beq	t1,s6,a0da <__divdf3+0x4a8>
    9f66:	03db58b3          	divu	a7,s6,t4
    9f6a:	01065593          	srli	a1,a2,0x10
    9f6e:	03db7b33          	remu	s6,s6,t4
    9f72:	031f06b3          	mul	a3,t5,a7
    9f76:	0b42                	slli	s6,s6,0x10
    9f78:	0165eb33          	or	s6,a1,s6
    9f7c:	00db7b63          	bgeu	s6,a3,9f92 <__divdf3+0x360>
    9f80:	9b1a                	add	s6,s6,t1
    9f82:	fff88593          	addi	a1,a7,-1 # ffff <_data_lma+0xf1b>
    9f86:	206b6d63          	bltu	s6,t1,a1a0 <__divdf3+0x56e>
    9f8a:	20db7b63          	bgeu	s6,a3,a1a0 <__divdf3+0x56e>
    9f8e:	18f9                	addi	a7,a7,-2
    9f90:	9b1a                	add	s6,s6,t1
    9f92:	40db0b33          	sub	s6,s6,a3
    9f96:	03db56b3          	divu	a3,s6,t4
    9f9a:	0642                	slli	a2,a2,0x10
    9f9c:	8241                	srli	a2,a2,0x10
    9f9e:	03db7b33          	remu	s6,s6,t4
    9fa2:	02df0f33          	mul	t5,t5,a3
    9fa6:	0b42                	slli	s6,s6,0x10
    9fa8:	01666633          	or	a2,a2,s6
    9fac:	01e67b63          	bgeu	a2,t5,9fc2 <__divdf3+0x390>
    9fb0:	961a                	add	a2,a2,t1
    9fb2:	fff68593          	addi	a1,a3,-1 # 7fffff <_data_lma+0x7f0f1b>
    9fb6:	1e666763          	bltu	a2,t1,a1a4 <__divdf3+0x572>
    9fba:	1fe67563          	bgeu	a2,t5,a1a4 <__divdf3+0x572>
    9fbe:	16f9                	addi	a3,a3,-2
    9fc0:	961a                	add	a2,a2,t1
    9fc2:	08c2                	slli	a7,a7,0x10
    9fc4:	00d8e8b3          	or	a7,a7,a3
    9fc8:	01089593          	slli	a1,a7,0x10
    9fcc:	0108d293          	srli	t0,a7,0x10
    9fd0:	81c1                	srli	a1,a1,0x10
    9fd2:	02f58eb3          	mul	t4,a1,a5
    9fd6:	41e60633          	sub	a2,a2,t5
    9fda:	02bf85b3          	mul	a1,t6,a1
    9fde:	010ed693          	srli	a3,t4,0x10
    9fe2:	02f287b3          	mul	a5,t0,a5
    9fe6:	95be                	add	a1,a1,a5
    9fe8:	96ae                	add	a3,a3,a1
    9fea:	025f8fb3          	mul	t6,t6,t0
    9fee:	00f6f463          	bgeu	a3,a5,9ff6 <__divdf3+0x3c4>
    9ff2:	67c1                	lui	a5,0x10
    9ff4:	9fbe                	add	t6,t6,a5
    9ff6:	65c1                	lui	a1,0x10
    9ff8:	15fd                	addi	a1,a1,-1
    9ffa:	0106d793          	srli	a5,a3,0x10
    9ffe:	8eed                	and	a3,a3,a1
    a000:	06c2                	slli	a3,a3,0x10
    a002:	00befeb3          	and	t4,t4,a1
    a006:	9fbe                	add	t6,t6,a5
    a008:	96f6                	add	a3,a3,t4
    a00a:	09f67f63          	bgeu	a2,t6,a0a8 <__divdf3+0x476>
    a00e:	961a                	add	a2,a2,t1
    a010:	fff88793          	addi	a5,a7,-1
    a014:	1a666963          	bltu	a2,t1,a1c6 <__divdf3+0x594>
    a018:	19f66863          	bltu	a2,t6,a1a8 <__divdf3+0x576>
    a01c:	1bf60f63          	beq	a2,t6,a1da <__divdf3+0x5a8>
    a020:	88be                	mv	a7,a5
    a022:	0018e893          	ori	a7,a7,1
    a026:	b511                	j	9e2a <__divdf3+0x1f8>
    a028:	854a                	mv	a0,s2
    a02a:	5a6010ef          	jal	ra,b5d0 <__clzsi2>
    a02e:	01550713          	addi	a4,a0,21
    a032:	45f1                	li	a1,28
    a034:	02050493          	addi	s1,a0,32
    a038:	4622                	lw	a2,8(sp)
    a03a:	46b2                	lw	a3,12(sp)
    a03c:	d4e5dae3          	bge	a1,a4,9d90 <__divdf3+0x15e>
    a040:	ff850413          	addi	s0,a0,-8
    a044:	00891a33          	sll	s4,s2,s0
    a048:	4b01                	li	s6,0
    a04a:	b385                	j	9daa <__divdf3+0x178>
    a04c:	8532                	mv	a0,a2
    a04e:	c432                	sw	a2,8(sp)
    a050:	580010ef          	jal	ra,b5d0 <__clzsi2>
    a054:	01550713          	addi	a4,a0,21
    a058:	46f1                	li	a3,28
    a05a:	87aa                	mv	a5,a0
    a05c:	4622                	lw	a2,8(sp)
    a05e:	02050513          	addi	a0,a0,32
    a062:	cee6d6e3          	bge	a3,a4,9d4e <__divdf3+0x11c>
    a066:	17e1                	addi	a5,a5,-8
    a068:	00f61733          	sll	a4,a2,a5
    a06c:	4881                	li	a7,0
    a06e:	b9e5                	j	9d66 <__divdf3+0x134>
    a070:	eecb70e3          	bgeu	s6,a2,9f50 <__divdf3+0x31e>
    a074:	9b72                	add	s6,s6,t3
    a076:	01cb3533          	sltu	a0,s6,t3
    a07a:	951a                	add	a0,a0,t1
    a07c:	96aa                	add	a3,a3,a0
    a07e:	fff70513          	addi	a0,a4,-1
    a082:	02d37863          	bgeu	t1,a3,a0b2 <__divdf3+0x480>
    a086:	10b6e663          	bltu	a3,a1,a192 <__divdf3+0x560>
    a08a:	10d58263          	beq	a1,a3,a18e <__divdf3+0x55c>
    a08e:	872a                	mv	a4,a0
    a090:	b5c1                	j	9f50 <__divdf3+0x31e>
    a092:	df1b65e3          	bltu	s6,a7,9e7c <__divdf3+0x24a>
    a096:	001b5593          	srli	a1,s6,0x1
    a09a:	01fa1693          	slli	a3,s4,0x1f
    a09e:	001a5413          	srli	s0,s4,0x1
    a0a2:	8ecd                	or	a3,a3,a1
    a0a4:	0b7e                	slli	s6,s6,0x1f
    a0a6:	bbf9                	j	9e84 <__divdf3+0x252>
    a0a8:	f7f61de3          	bne	a2,t6,a022 <__divdf3+0x3f0>
    a0ac:	d6068fe3          	beqz	a3,9e2a <__divdf3+0x1f8>
    a0b0:	bfb9                	j	a00e <__divdf3+0x3dc>
    a0b2:	fcd31ee3          	bne	t1,a3,a08e <__divdf3+0x45c>
    a0b6:	fdcb78e3          	bgeu	s6,t3,a086 <__divdf3+0x454>
    a0ba:	872a                	mv	a4,a0
    a0bc:	bd51                	j	9f50 <__divdf3+0x31e>
    a0be:	00f8f793          	andi	a5,a7,15
    a0c2:	4691                	li	a3,4
    a0c4:	d6d789e3          	beq	a5,a3,9e36 <__divdf3+0x204>
    a0c8:	ffc8b793          	sltiu	a5,a7,-4
    a0cc:	00488693          	addi	a3,a7,4
    a0d0:	0017c793          	xori	a5,a5,1
    a0d4:	828d                	srli	a3,a3,0x3
    a0d6:	973e                	add	a4,a4,a5
    a0d8:	b38d                	j	9e3a <__divdf3+0x208>
    a0da:	4681                	li	a3,0
    a0dc:	4785                	li	a5,1
    a0de:	fea04ce3          	bgtz	a0,a0d6 <__divdf3+0x4a4>
    a0e2:	58fd                	li	a7,-1
    a0e4:	d0051ce3          	bnez	a0,9dfc <__divdf3+0x1ca>
    a0e8:	c0100493          	li	s1,-1023
    a0ec:	4785                	li	a5,1
    a0ee:	41e48513          	addi	a0,s1,1054
    a0f2:	00a716b3          	sll	a3,a4,a0
    a0f6:	00f8d633          	srl	a2,a7,a5
    a0fa:	00a89533          	sll	a0,a7,a0
    a0fe:	8ed1                	or	a3,a3,a2
    a100:	00a03533          	snez	a0,a0
    a104:	8ec9                	or	a3,a3,a0
    a106:	0076f613          	andi	a2,a3,7
    a10a:	00f75733          	srl	a4,a4,a5
    a10e:	ce01                	beqz	a2,a126 <__divdf3+0x4f4>
    a110:	00f6f793          	andi	a5,a3,15
    a114:	4611                	li	a2,4
    a116:	00c78863          	beq	a5,a2,a126 <__divdf3+0x4f4>
    a11a:	00468793          	addi	a5,a3,4
    a11e:	00d7b6b3          	sltu	a3,a5,a3
    a122:	9736                	add	a4,a4,a3
    a124:	86be                	mv	a3,a5
    a126:	00871793          	slli	a5,a4,0x8
    a12a:	0407d863          	bgez	a5,a17a <__divdf3+0x548>
    a12e:	4605                	li	a2,1
    a130:	4781                	li	a5,0
    a132:	4701                	li	a4,0
    a134:	b6f1                	j	9d00 <__divdf3+0xce>
    a136:	8736                	mv	a4,a3
    a138:	bb7d                	j	9ef6 <__divdf3+0x2c4>
    a13a:	87b2                	mv	a5,a2
    a13c:	b379                	j	9eca <__divdf3+0x298>
    a13e:	46fd                	li	a3,31
    a140:	faf6d7e3          	bge	a3,a5,a0ee <__divdf3+0x4bc>
    a144:	5605                	li	a2,-31
    a146:	8e09                	sub	a2,a2,a0
    a148:	02000693          	li	a3,32
    a14c:	00c75633          	srl	a2,a4,a2
    a150:	00d78863          	beq	a5,a3,a160 <__divdf3+0x52e>
    a154:	43e48793          	addi	a5,s1,1086
    a158:	00f717b3          	sll	a5,a4,a5
    a15c:	00f8e8b3          	or	a7,a7,a5
    a160:	011036b3          	snez	a3,a7
    a164:	8ed1                	or	a3,a3,a2
    a166:	0076f613          	andi	a2,a3,7
    a16a:	4781                	li	a5,0
    a16c:	ce01                	beqz	a2,a184 <__divdf3+0x552>
    a16e:	00f6f793          	andi	a5,a3,15
    a172:	4611                	li	a2,4
    a174:	4701                	li	a4,0
    a176:	fac792e3          	bne	a5,a2,a11a <__divdf3+0x4e8>
    a17a:	00971793          	slli	a5,a4,0x9
    a17e:	01d71613          	slli	a2,a4,0x1d
    a182:	83b1                	srli	a5,a5,0xc
    a184:	0036d713          	srli	a4,a3,0x3
    a188:	8f51                	or	a4,a4,a2
    a18a:	4601                	li	a2,0
    a18c:	be95                	j	9d00 <__divdf3+0xce>
    a18e:	f0cb70e3          	bgeu	s6,a2,a08e <__divdf3+0x45c>
    a192:	9b72                	add	s6,s6,t3
    a194:	01cb3533          	sltu	a0,s6,t3
    a198:	951a                	add	a0,a0,t1
    a19a:	1779                	addi	a4,a4,-2
    a19c:	96aa                	add	a3,a3,a0
    a19e:	bb4d                	j	9f50 <__divdf3+0x31e>
    a1a0:	88ae                	mv	a7,a1
    a1a2:	bbc5                	j	9f92 <__divdf3+0x360>
    a1a4:	86ae                	mv	a3,a1
    a1a6:	bd31                	j	9fc2 <__divdf3+0x390>
    a1a8:	001e1793          	slli	a5,t3,0x1
    a1ac:	01c7be33          	sltu	t3,a5,t3
    a1b0:	9372                	add	t1,t1,t3
    a1b2:	961a                	add	a2,a2,t1
    a1b4:	18f9                	addi	a7,a7,-2
    a1b6:	8e3e                	mv	t3,a5
    a1b8:	e7f615e3          	bne	a2,t6,a022 <__divdf3+0x3f0>
    a1bc:	c6de07e3          	beq	t3,a3,9e2a <__divdf3+0x1f8>
    a1c0:	0018e893          	ori	a7,a7,1
    a1c4:	b19d                	j	9e2a <__divdf3+0x1f8>
    a1c6:	88be                	mv	a7,a5
    a1c8:	fff60ae3          	beq	a2,t6,a1bc <__divdf3+0x58a>
    a1cc:	bd99                	j	a022 <__divdf3+0x3f0>
    a1ce:	8836                	mv	a6,a3
    a1d0:	7ff00613          	li	a2,2047
    a1d4:	4781                	li	a5,0
    a1d6:	4701                	li	a4,0
    a1d8:	b625                	j	9d00 <__divdf3+0xce>
    a1da:	fcde67e3          	bltu	t3,a3,a1a8 <__divdf3+0x576>
    a1de:	88be                	mv	a7,a5
    a1e0:	fede10e3          	bne	t3,a3,a1c0 <__divdf3+0x58e>
    a1e4:	b199                	j	9e2a <__divdf3+0x1f8>

0000a1e6 <__eqdf2>:
    a1e6:	0145d713          	srli	a4,a1,0x14
    a1ea:	001007b7          	lui	a5,0x100
    a1ee:	17fd                	addi	a5,a5,-1
    a1f0:	0146d813          	srli	a6,a3,0x14
    a1f4:	7ff77713          	andi	a4,a4,2047
    a1f8:	7ff00893          	li	a7,2047
    a1fc:	00b7fe33          	and	t3,a5,a1
    a200:	8eaa                	mv	t4,a0
    a202:	8ff5                	and	a5,a5,a3
    a204:	81fd                	srli	a1,a1,0x1f
    a206:	8f32                	mv	t5,a2
    a208:	7ff87813          	andi	a6,a6,2047
    a20c:	82fd                	srli	a3,a3,0x1f
    a20e:	01170b63          	beq	a4,a7,a224 <__eqdf2+0x3e>
    a212:	4305                	li	t1,1
    a214:	01180663          	beq	a6,a7,a220 <__eqdf2+0x3a>
    a218:	01071463          	bne	a4,a6,a220 <__eqdf2+0x3a>
    a21c:	00fe0d63          	beq	t3,a5,a236 <__eqdf2+0x50>
    a220:	851a                	mv	a0,t1
    a222:	8082                	ret
    a224:	00ae68b3          	or	a7,t3,a0
    a228:	4305                	li	t1,1
    a22a:	fe089be3          	bnez	a7,a220 <__eqdf2+0x3a>
    a22e:	fee819e3          	bne	a6,a4,a220 <__eqdf2+0x3a>
    a232:	8fd1                	or	a5,a5,a2
    a234:	f7f5                	bnez	a5,a220 <__eqdf2+0x3a>
    a236:	4305                	li	t1,1
    a238:	ffee94e3          	bne	t4,t5,a220 <__eqdf2+0x3a>
    a23c:	4301                	li	t1,0
    a23e:	fed581e3          	beq	a1,a3,a220 <__eqdf2+0x3a>
    a242:	4305                	li	t1,1
    a244:	ff71                	bnez	a4,a220 <__eqdf2+0x3a>
    a246:	00ae6533          	or	a0,t3,a0
    a24a:	00a03333          	snez	t1,a0
    a24e:	bfc9                	j	a220 <__eqdf2+0x3a>

0000a250 <__gedf2>:
    a250:	0145d713          	srli	a4,a1,0x14
    a254:	001007b7          	lui	a5,0x100
    a258:	17fd                	addi	a5,a5,-1
    a25a:	0146d813          	srli	a6,a3,0x14
    a25e:	7ff77713          	andi	a4,a4,2047
    a262:	7ff00893          	li	a7,2047
    a266:	00b7f333          	and	t1,a5,a1
    a26a:	8e2a                	mv	t3,a0
    a26c:	8ff5                	and	a5,a5,a3
    a26e:	81fd                	srli	a1,a1,0x1f
    a270:	8eb2                	mv	t4,a2
    a272:	7ff87813          	andi	a6,a6,2047
    a276:	82fd                	srli	a3,a3,0x1f
    a278:	03170863          	beq	a4,a7,a2a8 <__gedf2+0x58>
    a27c:	03180063          	beq	a6,a7,a29c <__gedf2+0x4c>
    a280:	eb0d                	bnez	a4,a2b2 <__gedf2+0x62>
    a282:	00a368b3          	or	a7,t1,a0
    a286:	00081463          	bnez	a6,a28e <__gedf2+0x3e>
    a28a:	8e5d                	or	a2,a2,a5
    a28c:	ca29                	beqz	a2,a2de <__gedf2+0x8e>
    a28e:	04088563          	beqz	a7,a2d8 <__gedf2+0x88>
    a292:	02d58863          	beq	a1,a3,a2c2 <__gedf2+0x72>
    a296:	4505                	li	a0,1
    a298:	ed95                	bnez	a1,a2d4 <__gedf2+0x84>
    a29a:	8082                	ret
    a29c:	00c7e8b3          	or	a7,a5,a2
    a2a0:	fe0880e3          	beqz	a7,a280 <__gedf2+0x30>
    a2a4:	5579                	li	a0,-2
    a2a6:	8082                	ret
    a2a8:	00a36533          	or	a0,t1,a0
    a2ac:	fd65                	bnez	a0,a2a4 <__gedf2+0x54>
    a2ae:	02e80c63          	beq	a6,a4,a2e6 <__gedf2+0x96>
    a2b2:	00081463          	bnez	a6,a2ba <__gedf2+0x6a>
    a2b6:	8e5d                	or	a2,a2,a5
    a2b8:	de79                	beqz	a2,a296 <__gedf2+0x46>
    a2ba:	fcd59ee3          	bne	a1,a3,a296 <__gedf2+0x46>
    a2be:	fce84ce3          	blt	a6,a4,a296 <__gedf2+0x46>
    a2c2:	01074863          	blt	a4,a6,a2d2 <__gedf2+0x82>
    a2c6:	fc67e8e3          	bltu	a5,t1,a296 <__gedf2+0x46>
    a2ca:	02f30363          	beq	t1,a5,a2f0 <__gedf2+0xa0>
    a2ce:	00f37f63          	bgeu	t1,a5,a2ec <__gedf2+0x9c>
    a2d2:	e581                	bnez	a1,a2da <__gedf2+0x8a>
    a2d4:	557d                	li	a0,-1
    a2d6:	8082                	ret
    a2d8:	def5                	beqz	a3,a2d4 <__gedf2+0x84>
    a2da:	4505                	li	a0,1
    a2dc:	8082                	ret
    a2de:	4501                	li	a0,0
    a2e0:	fa089be3          	bnez	a7,a296 <__gedf2+0x46>
    a2e4:	8082                	ret
    a2e6:	8e5d                	or	a2,a2,a5
    a2e8:	da69                	beqz	a2,a2ba <__gedf2+0x6a>
    a2ea:	bf6d                	j	a2a4 <__gedf2+0x54>
    a2ec:	4501                	li	a0,0
    a2ee:	8082                	ret
    a2f0:	fbcee3e3          	bltu	t4,t3,a296 <__gedf2+0x46>
    a2f4:	4501                	li	a0,0
    a2f6:	fbde72e3          	bgeu	t3,t4,a29a <__gedf2+0x4a>
    a2fa:	f1e5                	bnez	a1,a2da <__gedf2+0x8a>
    a2fc:	bfe1                	j	a2d4 <__gedf2+0x84>

0000a2fe <__ledf2>:
    a2fe:	0145d713          	srli	a4,a1,0x14
    a302:	001007b7          	lui	a5,0x100
    a306:	17fd                	addi	a5,a5,-1
    a308:	0146d813          	srli	a6,a3,0x14
    a30c:	7ff77713          	andi	a4,a4,2047
    a310:	7ff00893          	li	a7,2047
    a314:	00b7fe33          	and	t3,a5,a1
    a318:	8eaa                	mv	t4,a0
    a31a:	8ff5                	and	a5,a5,a3
    a31c:	81fd                	srli	a1,a1,0x1f
    a31e:	8f32                	mv	t5,a2
    a320:	7ff87813          	andi	a6,a6,2047
    a324:	82fd                	srli	a3,a3,0x1f
    a326:	03170e63          	beq	a4,a7,a362 <__ledf2+0x64>
    a32a:	01180d63          	beq	a6,a7,a344 <__ledf2+0x46>
    a32e:	e329                	bnez	a4,a370 <__ledf2+0x72>
    a330:	00ae68b3          	or	a7,t3,a0
    a334:	00081f63          	bnez	a6,a352 <__ledf2+0x54>
    a338:	8e5d                	or	a2,a2,a5
    a33a:	ee01                	bnez	a2,a352 <__ledf2+0x54>
    a33c:	4301                	li	t1,0
    a33e:	04088c63          	beqz	a7,a396 <__ledf2+0x98>
    a342:	a821                	j	a35a <__ledf2+0x5c>
    a344:	00c7e8b3          	or	a7,a5,a2
    a348:	4309                	li	t1,2
    a34a:	04089663          	bnez	a7,a396 <__ledf2+0x98>
    a34e:	d36d                	beqz	a4,a330 <__ledf2+0x32>
    a350:	a005                	j	a370 <__ledf2+0x72>
    a352:	04088463          	beqz	a7,a39a <__ledf2+0x9c>
    a356:	02d58563          	beq	a1,a3,a380 <__ledf2+0x82>
    a35a:	4305                	li	t1,1
    a35c:	cd8d                	beqz	a1,a396 <__ledf2+0x98>
    a35e:	537d                	li	t1,-1
    a360:	a81d                	j	a396 <__ledf2+0x98>
    a362:	00ae68b3          	or	a7,t3,a0
    a366:	4309                	li	t1,2
    a368:	02089763          	bnez	a7,a396 <__ledf2+0x98>
    a36c:	02e80a63          	beq	a6,a4,a3a0 <__ledf2+0xa2>
    a370:	00081463          	bnez	a6,a378 <__ledf2+0x7a>
    a374:	8e5d                	or	a2,a2,a5
    a376:	d275                	beqz	a2,a35a <__ledf2+0x5c>
    a378:	fed591e3          	bne	a1,a3,a35a <__ledf2+0x5c>
    a37c:	fce84fe3          	blt	a6,a4,a35a <__ledf2+0x5c>
    a380:	01074963          	blt	a4,a6,a392 <__ledf2+0x94>
    a384:	fdc7ebe3          	bltu	a5,t3,a35a <__ledf2+0x5c>
    a388:	00fe0f63          	beq	t3,a5,a3a6 <__ledf2+0xa8>
    a38c:	4301                	li	t1,0
    a38e:	00fe7463          	bgeu	t3,a5,a396 <__ledf2+0x98>
    a392:	d5f1                	beqz	a1,a35e <__ledf2+0x60>
    a394:	4305                	li	t1,1
    a396:	851a                	mv	a0,t1
    a398:	8082                	ret
    a39a:	feed                	bnez	a3,a394 <__ledf2+0x96>
    a39c:	537d                	li	t1,-1
    a39e:	bfe5                	j	a396 <__ledf2+0x98>
    a3a0:	8e5d                	or	a2,a2,a5
    a3a2:	da79                	beqz	a2,a378 <__ledf2+0x7a>
    a3a4:	bfcd                	j	a396 <__ledf2+0x98>
    a3a6:	fbdf6ae3          	bltu	t5,t4,a35a <__ledf2+0x5c>
    a3aa:	4301                	li	t1,0
    a3ac:	ffeef5e3          	bgeu	t4,t5,a396 <__ledf2+0x98>
    a3b0:	f1f5                	bnez	a1,a394 <__ledf2+0x96>
    a3b2:	b775                	j	a35e <__ledf2+0x60>

0000a3b4 <__muldf3>:
    a3b4:	7139                	addi	sp,sp,-64
    a3b6:	d84a                	sw	s2,48(sp)
    a3b8:	0145d913          	srli	s2,a1,0x14
    a3bc:	d64e                	sw	s3,44(sp)
    a3be:	d452                	sw	s4,40(sp)
    a3c0:	d256                	sw	s5,36(sp)
    a3c2:	00c59993          	slli	s3,a1,0xc
    a3c6:	de06                	sw	ra,60(sp)
    a3c8:	dc22                	sw	s0,56(sp)
    a3ca:	da26                	sw	s1,52(sp)
    a3cc:	d05a                	sw	s6,32(sp)
    a3ce:	ce5e                	sw	s7,28(sp)
    a3d0:	7ff97913          	andi	s2,s2,2047
    a3d4:	8a2a                	mv	s4,a0
    a3d6:	00c9d993          	srli	s3,s3,0xc
    a3da:	01f5da93          	srli	s5,a1,0x1f
    a3de:	0e090d63          	beqz	s2,a4d8 <__muldf3+0x124>
    a3e2:	7ff00793          	li	a5,2047
    a3e6:	18f90663          	beq	s2,a5,a572 <__muldf3+0x1be>
    a3ea:	01d55413          	srli	s0,a0,0x1d
    a3ee:	098e                	slli	s3,s3,0x3
    a3f0:	013469b3          	or	s3,s0,s3
    a3f4:	00800437          	lui	s0,0x800
    a3f8:	0089e433          	or	s0,s3,s0
    a3fc:	00351493          	slli	s1,a0,0x3
    a400:	c0190913          	addi	s2,s2,-1023
    a404:	4981                	li	s3,0
    a406:	4b81                	li	s7,0
    a408:	0146d713          	srli	a4,a3,0x14
    a40c:	00c69a13          	slli	s4,a3,0xc
    a410:	7ff77713          	andi	a4,a4,2047
    a414:	85b2                	mv	a1,a2
    a416:	00ca5a13          	srli	s4,s4,0xc
    a41a:	01f6db13          	srli	s6,a3,0x1f
    a41e:	10070b63          	beqz	a4,a534 <__muldf3+0x180>
    a422:	7ff00793          	li	a5,2047
    a426:	04f70363          	beq	a4,a5,a46c <__muldf3+0xb8>
    a42a:	01d65793          	srli	a5,a2,0x1d
    a42e:	0a0e                	slli	s4,s4,0x3
    a430:	0147ea33          	or	s4,a5,s4
    a434:	c0170713          	addi	a4,a4,-1023
    a438:	008007b7          	lui	a5,0x800
    a43c:	00fa67b3          	or	a5,s4,a5
    a440:	00361593          	slli	a1,a2,0x3
    a444:	993a                	add	s2,s2,a4
    a446:	4881                	li	a7,0
    a448:	016ac733          	xor	a4,s5,s6
    a44c:	46bd                	li	a3,15
    a44e:	853a                	mv	a0,a4
    a450:	00190813          	addi	a6,s2,1
    a454:	1736e863          	bltu	a3,s3,a5c4 <__muldf3+0x210>
    a458:	00005617          	auipc	a2,0x5
    a45c:	b4c60613          	addi	a2,a2,-1204 # efa4 <p05.3319+0x64>
    a460:	098a                	slli	s3,s3,0x2
    a462:	99b2                	add	s3,s3,a2
    a464:	0009a683          	lw	a3,0(s3)
    a468:	96b2                	add	a3,a3,a2
    a46a:	8682                	jr	a3
    a46c:	00ca67b3          	or	a5,s4,a2
    a470:	7ff90913          	addi	s2,s2,2047
    a474:	12079963          	bnez	a5,a5a6 <__muldf3+0x1f2>
    a478:	0029e993          	ori	s3,s3,2
    a47c:	4581                	li	a1,0
    a47e:	4889                	li	a7,2
    a480:	b7e1                	j	a448 <__muldf3+0x94>
    a482:	4701                	li	a4,0
    a484:	7ff00793          	li	a5,2047
    a488:	00080437          	lui	s0,0x80
    a48c:	4481                	li	s1,0
    a48e:	0432                	slli	s0,s0,0xc
    a490:	07d2                	slli	a5,a5,0x14
    a492:	8031                	srli	s0,s0,0xc
    a494:	077e                	slli	a4,a4,0x1f
    a496:	8c5d                	or	s0,s0,a5
    a498:	8c59                	or	s0,s0,a4
    a49a:	85a2                	mv	a1,s0
    a49c:	50f2                	lw	ra,60(sp)
    a49e:	5462                	lw	s0,56(sp)
    a4a0:	8526                	mv	a0,s1
    a4a2:	5942                	lw	s2,48(sp)
    a4a4:	54d2                	lw	s1,52(sp)
    a4a6:	59b2                	lw	s3,44(sp)
    a4a8:	5a22                	lw	s4,40(sp)
    a4aa:	5a92                	lw	s5,36(sp)
    a4ac:	5b02                	lw	s6,32(sp)
    a4ae:	4bf2                	lw	s7,28(sp)
    a4b0:	6121                	addi	sp,sp,64
    a4b2:	8082                	ret
    a4b4:	855a                	mv	a0,s6
    a4b6:	843e                	mv	s0,a5
    a4b8:	84ae                	mv	s1,a1
    a4ba:	8bc6                	mv	s7,a7
    a4bc:	4789                	li	a5,2
    a4be:	0efb8d63          	beq	s7,a5,a5b8 <__muldf3+0x204>
    a4c2:	478d                	li	a5,3
    a4c4:	fafb8fe3          	beq	s7,a5,a482 <__muldf3+0xce>
    a4c8:	4785                	li	a5,1
    a4ca:	872a                	mv	a4,a0
    a4cc:	38fb9e63          	bne	s7,a5,a868 <__muldf3+0x4b4>
    a4d0:	4781                	li	a5,0
    a4d2:	4401                	li	s0,0
    a4d4:	4481                	li	s1,0
    a4d6:	bf65                	j	a48e <__muldf3+0xda>
    a4d8:	00a9e433          	or	s0,s3,a0
    a4dc:	c061                	beqz	s0,a59c <__muldf3+0x1e8>
    a4de:	c636                	sw	a3,12(sp)
    a4e0:	c432                	sw	a2,8(sp)
    a4e2:	2a098c63          	beqz	s3,a79a <__muldf3+0x3e6>
    a4e6:	854e                	mv	a0,s3
    a4e8:	0e8010ef          	jal	ra,b5d0 <__clzsi2>
    a4ec:	4622                	lw	a2,8(sp)
    a4ee:	46b2                	lw	a3,12(sp)
    a4f0:	87aa                	mv	a5,a0
    a4f2:	ff550713          	addi	a4,a0,-11
    a4f6:	4475                	li	s0,29
    a4f8:	ff878493          	addi	s1,a5,-8 # 7ffff8 <_data_lma+0x7f0f14>
    a4fc:	8c19                	sub	s0,s0,a4
    a4fe:	009999b3          	sll	s3,s3,s1
    a502:	008a5433          	srl	s0,s4,s0
    a506:	01346433          	or	s0,s0,s3
    a50a:	009a14b3          	sll	s1,s4,s1
    a50e:	0146d713          	srli	a4,a3,0x14
    a512:	c0d00913          	li	s2,-1011
    a516:	00c69a13          	slli	s4,a3,0xc
    a51a:	7ff77713          	andi	a4,a4,2047
    a51e:	40f90933          	sub	s2,s2,a5
    a522:	4981                	li	s3,0
    a524:	4b81                	li	s7,0
    a526:	85b2                	mv	a1,a2
    a528:	00ca5a13          	srli	s4,s4,0xc
    a52c:	01f6db13          	srli	s6,a3,0x1f
    a530:	ee0719e3          	bnez	a4,a422 <__muldf3+0x6e>
    a534:	00ca67b3          	or	a5,s4,a2
    a538:	c7b1                	beqz	a5,a584 <__muldf3+0x1d0>
    a53a:	220a0f63          	beqz	s4,a778 <__muldf3+0x3c4>
    a53e:	8552                	mv	a0,s4
    a540:	c432                	sw	a2,8(sp)
    a542:	08e010ef          	jal	ra,b5d0 <__clzsi2>
    a546:	4622                	lw	a2,8(sp)
    a548:	872a                	mv	a4,a0
    a54a:	ff550693          	addi	a3,a0,-11
    a54e:	47f5                	li	a5,29
    a550:	ff870593          	addi	a1,a4,-8
    a554:	8f95                	sub	a5,a5,a3
    a556:	00ba1a33          	sll	s4,s4,a1
    a55a:	00f657b3          	srl	a5,a2,a5
    a55e:	0147e7b3          	or	a5,a5,s4
    a562:	00b615b3          	sll	a1,a2,a1
    a566:	40e90933          	sub	s2,s2,a4
    a56a:	c0d90913          	addi	s2,s2,-1011
    a56e:	4881                	li	a7,0
    a570:	bde1                	j	a448 <__muldf3+0x94>
    a572:	00a9e433          	or	s0,s3,a0
    a576:	ec01                	bnez	s0,a58e <__muldf3+0x1da>
    a578:	49a1                	li	s3,8
    a57a:	4481                	li	s1,0
    a57c:	7ff00913          	li	s2,2047
    a580:	4b89                	li	s7,2
    a582:	b559                	j	a408 <__muldf3+0x54>
    a584:	0019e993          	ori	s3,s3,1
    a588:	4581                	li	a1,0
    a58a:	4885                	li	a7,1
    a58c:	bd75                	j	a448 <__muldf3+0x94>
    a58e:	844e                	mv	s0,s3
    a590:	84aa                	mv	s1,a0
    a592:	49b1                	li	s3,12
    a594:	7ff00913          	li	s2,2047
    a598:	4b8d                	li	s7,3
    a59a:	b5bd                	j	a408 <__muldf3+0x54>
    a59c:	4991                	li	s3,4
    a59e:	4481                	li	s1,0
    a5a0:	4901                	li	s2,0
    a5a2:	4b85                	li	s7,1
    a5a4:	b595                	j	a408 <__muldf3+0x54>
    a5a6:	0039e993          	ori	s3,s3,3
    a5aa:	87d2                	mv	a5,s4
    a5ac:	488d                	li	a7,3
    a5ae:	bd69                	j	a448 <__muldf3+0x94>
    a5b0:	4789                	li	a5,2
    a5b2:	8556                	mv	a0,s5
    a5b4:	f0fb97e3          	bne	s7,a5,a4c2 <__muldf3+0x10e>
    a5b8:	872a                	mv	a4,a0
    a5ba:	7ff00793          	li	a5,2047
    a5be:	4401                	li	s0,0
    a5c0:	4481                	li	s1,0
    a5c2:	b5f1                	j	a48e <__muldf3+0xda>
    a5c4:	6ec1                	lui	t4,0x10
    a5c6:	fffe8613          	addi	a2,t4,-1 # ffff <_data_lma+0xf1b>
    a5ca:	0104d693          	srli	a3,s1,0x10
    a5ce:	0105de13          	srli	t3,a1,0x10
    a5d2:	8cf1                	and	s1,s1,a2
    a5d4:	8df1                	and	a1,a1,a2
    a5d6:	02958633          	mul	a2,a1,s1
    a5da:	02b68333          	mul	t1,a3,a1
    a5de:	01065893          	srli	a7,a2,0x10
    a5e2:	029e0533          	mul	a0,t3,s1
    a5e6:	951a                	add	a0,a0,t1
    a5e8:	98aa                	add	a7,a7,a0
    a5ea:	03c682b3          	mul	t0,a3,t3
    a5ee:	0068f363          	bgeu	a7,t1,a5f4 <__muldf3+0x240>
    a5f2:	92f6                	add	t0,t0,t4
    a5f4:	6fc1                	lui	t6,0x10
    a5f6:	ffff8313          	addi	t1,t6,-1 # ffff <_data_lma+0xf1b>
    a5fa:	0067f533          	and	a0,a5,t1
    a5fe:	0107d393          	srli	t2,a5,0x10
    a602:	0068f7b3          	and	a5,a7,t1
    a606:	07c2                	slli	a5,a5,0x10
    a608:	00667333          	and	t1,a2,t1
    a60c:	933e                	add	t1,t1,a5
    a60e:	02950633          	mul	a2,a0,s1
    a612:	0108d893          	srli	a7,a7,0x10
    a616:	02a687b3          	mul	a5,a3,a0
    a61a:	01065f13          	srli	t5,a2,0x10
    a61e:	029384b3          	mul	s1,t2,s1
    a622:	94be                	add	s1,s1,a5
    a624:	94fa                	add	s1,s1,t5
    a626:	02768eb3          	mul	t4,a3,t2
    a62a:	00f4f363          	bgeu	s1,a5,a630 <__muldf3+0x27c>
    a62e:	9efe                	add	t4,t4,t6
    a630:	6a41                	lui	s4,0x10
    a632:	fffa0793          	addi	a5,s4,-1 # ffff <_data_lma+0xf1b>
    a636:	01045f93          	srli	t6,s0,0x10
    a63a:	00f476b3          	and	a3,s0,a5
    a63e:	00f4f9b3          	and	s3,s1,a5
    a642:	8e7d                	and	a2,a2,a5
    a644:	80c1                	srli	s1,s1,0x10
    a646:	02d58433          	mul	s0,a1,a3
    a64a:	09c2                	slli	s3,s3,0x10
    a64c:	01d48f33          	add	t5,s1,t4
    a650:	99b2                	add	s3,s3,a2
    a652:	98ce                	add	a7,a7,s3
    a654:	02de07b3          	mul	a5,t3,a3
    a658:	01045e93          	srli	t4,s0,0x10
    a65c:	02bf85b3          	mul	a1,t6,a1
    a660:	97ae                	add	a5,a5,a1
    a662:	9ebe                	add	t4,t4,a5
    a664:	03fe0e33          	mul	t3,t3,t6
    a668:	00bef363          	bgeu	t4,a1,a66e <__muldf3+0x2ba>
    a66c:	9e52                	add	t3,t3,s4
    a66e:	67c1                	lui	a5,0x10
    a670:	fff78593          	addi	a1,a5,-1 # ffff <_data_lma+0xf1b>
    a674:	00bef633          	and	a2,t4,a1
    a678:	8c6d                	and	s0,s0,a1
    a67a:	0642                	slli	a2,a2,0x10
    a67c:	9622                	add	a2,a2,s0
    a67e:	010ede93          	srli	t4,t4,0x10
    a682:	02d505b3          	mul	a1,a0,a3
    a686:	9e76                	add	t3,t3,t4
    a688:	02af8533          	mul	a0,t6,a0
    a68c:	0105d413          	srli	s0,a1,0x10
    a690:	02d386b3          	mul	a3,t2,a3
    a694:	96aa                	add	a3,a3,a0
    a696:	96a2                	add	a3,a3,s0
    a698:	03f38fb3          	mul	t6,t2,t6
    a69c:	00a6f363          	bgeu	a3,a0,a6a2 <__muldf3+0x2ee>
    a6a0:	9fbe                	add	t6,t6,a5
    a6a2:	6541                	lui	a0,0x10
    a6a4:	157d                	addi	a0,a0,-1
    a6a6:	00a6f7b3          	and	a5,a3,a0
    a6aa:	07c2                	slli	a5,a5,0x10
    a6ac:	8d6d                	and	a0,a0,a1
    a6ae:	97aa                	add	a5,a5,a0
    a6b0:	005885b3          	add	a1,a7,t0
    a6b4:	0135b9b3          	sltu	s3,a1,s3
    a6b8:	97fa                	add	a5,a5,t5
    a6ba:	95b2                	add	a1,a1,a2
    a6bc:	01378433          	add	s0,a5,s3
    a6c0:	00c5b633          	sltu	a2,a1,a2
    a6c4:	01c40eb3          	add	t4,s0,t3
    a6c8:	00ce8533          	add	a0,t4,a2
    a6cc:	01343433          	sltu	s0,s0,s3
    a6d0:	01e7b7b3          	sltu	a5,a5,t5
    a6d4:	8fc1                	or	a5,a5,s0
    a6d6:	01cebe33          	sltu	t3,t4,t3
    a6da:	0106d413          	srli	s0,a3,0x10
    a6de:	00c53633          	sltu	a2,a0,a2
    a6e2:	943e                	add	s0,s0,a5
    a6e4:	00ce6633          	or	a2,t3,a2
    a6e8:	00959493          	slli	s1,a1,0x9
    a6ec:	9432                	add	s0,s0,a2
    a6ee:	947e                	add	s0,s0,t6
    a6f0:	0064e4b3          	or	s1,s1,t1
    a6f4:	0426                	slli	s0,s0,0x9
    a6f6:	01755693          	srli	a3,a0,0x17
    a6fa:	009034b3          	snez	s1,s1
    a6fe:	81dd                	srli	a1,a1,0x17
    a700:	00951793          	slli	a5,a0,0x9
    a704:	8ccd                	or	s1,s1,a1
    a706:	8c55                	or	s0,s0,a3
    a708:	8cdd                	or	s1,s1,a5
    a70a:	00741793          	slli	a5,s0,0x7
    a70e:	0007db63          	bgez	a5,a724 <__muldf3+0x370>
    a712:	0014d793          	srli	a5,s1,0x1
    a716:	8885                	andi	s1,s1,1
    a718:	01f41693          	slli	a3,s0,0x1f
    a71c:	8cdd                	or	s1,s1,a5
    a71e:	8cd5                	or	s1,s1,a3
    a720:	8005                	srli	s0,s0,0x1
    a722:	8942                	mv	s2,a6
    a724:	3ff90793          	addi	a5,s2,1023
    a728:	08f05963          	blez	a5,a7ba <__muldf3+0x406>
    a72c:	0074f693          	andi	a3,s1,7
    a730:	ce81                	beqz	a3,a748 <__muldf3+0x394>
    a732:	00f4f693          	andi	a3,s1,15
    a736:	4611                	li	a2,4
    a738:	00c68863          	beq	a3,a2,a748 <__muldf3+0x394>
    a73c:	00448693          	addi	a3,s1,4
    a740:	0096b4b3          	sltu	s1,a3,s1
    a744:	9426                	add	s0,s0,s1
    a746:	84b6                	mv	s1,a3
    a748:	00741693          	slli	a3,s0,0x7
    a74c:	0006d863          	bgez	a3,a75c <__muldf3+0x3a8>
    a750:	ff0007b7          	lui	a5,0xff000
    a754:	17fd                	addi	a5,a5,-1
    a756:	8c7d                	and	s0,s0,a5
    a758:	40090793          	addi	a5,s2,1024
    a75c:	7fe00693          	li	a3,2046
    a760:	0ef6cf63          	blt	a3,a5,a85e <__muldf3+0x4aa>
    a764:	0034d693          	srli	a3,s1,0x3
    a768:	01d41493          	slli	s1,s0,0x1d
    a76c:	0426                	slli	s0,s0,0x9
    a76e:	8cd5                	or	s1,s1,a3
    a770:	8031                	srli	s0,s0,0xc
    a772:	7ff7f793          	andi	a5,a5,2047
    a776:	bb21                	j	a48e <__muldf3+0xda>
    a778:	8532                	mv	a0,a2
    a77a:	c432                	sw	a2,8(sp)
    a77c:	655000ef          	jal	ra,b5d0 <__clzsi2>
    a780:	01550693          	addi	a3,a0,21 # 10015 <_data_lma+0xf31>
    a784:	47f1                	li	a5,28
    a786:	02050713          	addi	a4,a0,32
    a78a:	4622                	lw	a2,8(sp)
    a78c:	dcd7d1e3          	bge	a5,a3,a54e <__muldf3+0x19a>
    a790:	1561                	addi	a0,a0,-8
    a792:	00a617b3          	sll	a5,a2,a0
    a796:	4581                	li	a1,0
    a798:	b3f9                	j	a566 <__muldf3+0x1b2>
    a79a:	637000ef          	jal	ra,b5d0 <__clzsi2>
    a79e:	01550713          	addi	a4,a0,21
    a7a2:	45f1                	li	a1,28
    a7a4:	02050793          	addi	a5,a0,32
    a7a8:	4622                	lw	a2,8(sp)
    a7aa:	46b2                	lw	a3,12(sp)
    a7ac:	d4e5d5e3          	bge	a1,a4,a4f6 <__muldf3+0x142>
    a7b0:	1561                	addi	a0,a0,-8
    a7b2:	00aa1433          	sll	s0,s4,a0
    a7b6:	4481                	li	s1,0
    a7b8:	bb99                	j	a50e <__muldf3+0x15a>
    a7ba:	4685                	li	a3,1
    a7bc:	8e9d                	sub	a3,a3,a5
    a7be:	e7b1                	bnez	a5,a80a <__muldf3+0x456>
    a7c0:	41e90913          	addi	s2,s2,1054
    a7c4:	012497b3          	sll	a5,s1,s2
    a7c8:	00d4d4b3          	srl	s1,s1,a3
    a7cc:	01241933          	sll	s2,s0,s2
    a7d0:	00f037b3          	snez	a5,a5
    a7d4:	009964b3          	or	s1,s2,s1
    a7d8:	8cdd                	or	s1,s1,a5
    a7da:	0074f793          	andi	a5,s1,7
    a7de:	00d456b3          	srl	a3,s0,a3
    a7e2:	cf81                	beqz	a5,a7fa <__muldf3+0x446>
    a7e4:	00f4f793          	andi	a5,s1,15
    a7e8:	4611                	li	a2,4
    a7ea:	00c78863          	beq	a5,a2,a7fa <__muldf3+0x446>
    a7ee:	00448793          	addi	a5,s1,4
    a7f2:	0097b4b3          	sltu	s1,a5,s1
    a7f6:	96a6                	add	a3,a3,s1
    a7f8:	84be                	mv	s1,a5
    a7fa:	00869793          	slli	a5,a3,0x8
    a7fe:	0407d863          	bgez	a5,a84e <__muldf3+0x49a>
    a802:	4785                	li	a5,1
    a804:	4401                	li	s0,0
    a806:	4481                	li	s1,0
    a808:	b159                	j	a48e <__muldf3+0xda>
    a80a:	03800613          	li	a2,56
    a80e:	ccd641e3          	blt	a2,a3,a4d0 <__muldf3+0x11c>
    a812:	467d                	li	a2,31
    a814:	fad656e3          	bge	a2,a3,a7c0 <__muldf3+0x40c>
    a818:	5605                	li	a2,-31
    a81a:	40f607b3          	sub	a5,a2,a5
    a81e:	02000593          	li	a1,32
    a822:	00f45633          	srl	a2,s0,a5
    a826:	00b68763          	beq	a3,a1,a834 <__muldf3+0x480>
    a82a:	43e90913          	addi	s2,s2,1086
    a82e:	012417b3          	sll	a5,s0,s2
    a832:	8cdd                	or	s1,s1,a5
    a834:	009034b3          	snez	s1,s1
    a838:	8cd1                	or	s1,s1,a2
    a83a:	0074f693          	andi	a3,s1,7
    a83e:	4401                	li	s0,0
    a840:	ca99                	beqz	a3,a856 <__muldf3+0x4a2>
    a842:	00f4f793          	andi	a5,s1,15
    a846:	4611                	li	a2,4
    a848:	4681                	li	a3,0
    a84a:	fac792e3          	bne	a5,a2,a7ee <__muldf3+0x43a>
    a84e:	00969413          	slli	s0,a3,0x9
    a852:	8031                	srli	s0,s0,0xc
    a854:	06f6                	slli	a3,a3,0x1d
    a856:	808d                	srli	s1,s1,0x3
    a858:	8cd5                	or	s1,s1,a3
    a85a:	4781                	li	a5,0
    a85c:	b90d                	j	a48e <__muldf3+0xda>
    a85e:	7ff00793          	li	a5,2047
    a862:	4401                	li	s0,0
    a864:	4481                	li	s1,0
    a866:	b125                	j	a48e <__muldf3+0xda>
    a868:	8942                	mv	s2,a6
    a86a:	bd6d                	j	a724 <__muldf3+0x370>

0000a86c <__subdf3>:
    a86c:	00100737          	lui	a4,0x100
    a870:	177d                	addi	a4,a4,-1
    a872:	1101                	addi	sp,sp,-32
    a874:	00b77333          	and	t1,a4,a1
    a878:	0146d893          	srli	a7,a3,0x14
    a87c:	8f75                	and	a4,a4,a3
    a87e:	01d65e93          	srli	t4,a2,0x1d
    a882:	cc22                	sw	s0,24(sp)
    a884:	ca26                	sw	s1,20(sp)
    a886:	030e                	slli	t1,t1,0x3
    a888:	0145d493          	srli	s1,a1,0x14
    a88c:	01d55793          	srli	a5,a0,0x1d
    a890:	070e                	slli	a4,a4,0x3
    a892:	ce06                	sw	ra,28(sp)
    a894:	c84a                	sw	s2,16(sp)
    a896:	c64e                	sw	s3,12(sp)
    a898:	7ff8f893          	andi	a7,a7,2047
    a89c:	7ff00e13          	li	t3,2047
    a8a0:	00eee733          	or	a4,t4,a4
    a8a4:	7ff4f493          	andi	s1,s1,2047
    a8a8:	01f5d413          	srli	s0,a1,0x1f
    a8ac:	0067e333          	or	t1,a5,t1
    a8b0:	00351f13          	slli	t5,a0,0x3
    a8b4:	82fd                	srli	a3,a3,0x1f
    a8b6:	00361e93          	slli	t4,a2,0x3
    a8ba:	19c88063          	beq	a7,t3,aa3a <__subdf3+0x1ce>
    a8be:	0016c693          	xori	a3,a3,1
    a8c2:	411485b3          	sub	a1,s1,a7
    a8c6:	12d40563          	beq	s0,a3,a9f0 <__subdf3+0x184>
    a8ca:	18b05163          	blez	a1,aa4c <__subdf3+0x1e0>
    a8ce:	1a088b63          	beqz	a7,aa84 <__subdf3+0x218>
    a8d2:	008007b7          	lui	a5,0x800
    a8d6:	8f5d                	or	a4,a4,a5
    a8d8:	59c48163          	beq	s1,t3,ae5a <__subdf3+0x5ee>
    a8dc:	03800793          	li	a5,56
    a8e0:	34b7c463          	blt	a5,a1,ac28 <__subdf3+0x3bc>
    a8e4:	47fd                	li	a5,31
    a8e6:	48b7c563          	blt	a5,a1,ad70 <__subdf3+0x504>
    a8ea:	02000793          	li	a5,32
    a8ee:	8f8d                	sub	a5,a5,a1
    a8f0:	00bed9b3          	srl	s3,t4,a1
    a8f4:	00f71833          	sll	a6,a4,a5
    a8f8:	00fe9eb3          	sll	t4,t4,a5
    a8fc:	01386833          	or	a6,a6,s3
    a900:	00b75733          	srl	a4,a4,a1
    a904:	01d039b3          	snez	s3,t4
    a908:	01386833          	or	a6,a6,s3
    a90c:	40e30333          	sub	t1,t1,a4
    a910:	410f09b3          	sub	s3,t5,a6
    a914:	013f37b3          	sltu	a5,t5,s3
    a918:	40f30633          	sub	a2,t1,a5
    a91c:	00861793          	slli	a5,a2,0x8
    a920:	2407d363          	bgez	a5,ab66 <__subdf3+0x2fa>
    a924:	00800937          	lui	s2,0x800
    a928:	197d                	addi	s2,s2,-1
    a92a:	01267933          	and	s2,a2,s2
    a92e:	2c090f63          	beqz	s2,ac0c <__subdf3+0x3a0>
    a932:	854a                	mv	a0,s2
    a934:	49d000ef          	jal	ra,b5d0 <__clzsi2>
    a938:	ff850713          	addi	a4,a0,-8
    a93c:	02000793          	li	a5,32
    a940:	8f99                	sub	a5,a5,a4
    a942:	00f9d7b3          	srl	a5,s3,a5
    a946:	00e91633          	sll	a2,s2,a4
    a94a:	8fd1                	or	a5,a5,a2
    a94c:	00e999b3          	sll	s3,s3,a4
    a950:	2a974463          	blt	a4,s1,abf8 <__subdf3+0x38c>
    a954:	8f05                	sub	a4,a4,s1
    a956:	00170613          	addi	a2,a4,1 # 100001 <_data_lma+0xf0f1d>
    a95a:	46fd                	li	a3,31
    a95c:	3ac6c563          	blt	a3,a2,ad06 <__subdf3+0x49a>
    a960:	02000713          	li	a4,32
    a964:	8f11                	sub	a4,a4,a2
    a966:	00c9d6b3          	srl	a3,s3,a2
    a96a:	00e99833          	sll	a6,s3,a4
    a96e:	00e79733          	sll	a4,a5,a4
    a972:	8f55                	or	a4,a4,a3
    a974:	01003833          	snez	a6,a6
    a978:	010769b3          	or	s3,a4,a6
    a97c:	00c7d633          	srl	a2,a5,a2
    a980:	4481                	li	s1,0
    a982:	0079f793          	andi	a5,s3,7
    a986:	cf81                	beqz	a5,a99e <__subdf3+0x132>
    a988:	00f9f693          	andi	a3,s3,15
    a98c:	4791                	li	a5,4
    a98e:	00f68863          	beq	a3,a5,a99e <__subdf3+0x132>
    a992:	00498693          	addi	a3,s3,4
    a996:	0136b833          	sltu	a6,a3,s3
    a99a:	9642                	add	a2,a2,a6
    a99c:	89b6                	mv	s3,a3
    a99e:	00861793          	slli	a5,a2,0x8
    a9a2:	1c07d663          	bgez	a5,ab6e <__subdf3+0x302>
    a9a6:	00148713          	addi	a4,s1,1
    a9aa:	7ff00793          	li	a5,2047
    a9ae:	8805                	andi	s0,s0,1
    a9b0:	20f70663          	beq	a4,a5,abbc <__subdf3+0x350>
    a9b4:	ff8007b7          	lui	a5,0xff800
    a9b8:	17fd                	addi	a5,a5,-1
    a9ba:	8ff1                	and	a5,a5,a2
    a9bc:	01d79813          	slli	a6,a5,0x1d
    a9c0:	0039d993          	srli	s3,s3,0x3
    a9c4:	07a6                	slli	a5,a5,0x9
    a9c6:	01386833          	or	a6,a6,s3
    a9ca:	83b1                	srli	a5,a5,0xc
    a9cc:	7ff77713          	andi	a4,a4,2047
    a9d0:	00c79693          	slli	a3,a5,0xc
    a9d4:	0752                	slli	a4,a4,0x14
    a9d6:	82b1                	srli	a3,a3,0xc
    a9d8:	047e                	slli	s0,s0,0x1f
    a9da:	8ed9                	or	a3,a3,a4
    a9dc:	8ec1                	or	a3,a3,s0
    a9de:	40f2                	lw	ra,28(sp)
    a9e0:	4462                	lw	s0,24(sp)
    a9e2:	44d2                	lw	s1,20(sp)
    a9e4:	4942                	lw	s2,16(sp)
    a9e6:	49b2                	lw	s3,12(sp)
    a9e8:	8542                	mv	a0,a6
    a9ea:	85b6                	mv	a1,a3
    a9ec:	6105                	addi	sp,sp,32
    a9ee:	8082                	ret
    a9f0:	0ab05663          	blez	a1,aa9c <__subdf3+0x230>
    a9f4:	12088a63          	beqz	a7,ab28 <__subdf3+0x2bc>
    a9f8:	008007b7          	lui	a5,0x800
    a9fc:	8f5d                	or	a4,a4,a5
    a9fe:	2dc48763          	beq	s1,t3,accc <__subdf3+0x460>
    aa02:	03800793          	li	a5,56
    aa06:	18b7c763          	blt	a5,a1,ab94 <__subdf3+0x328>
    aa0a:	47fd                	li	a5,31
    aa0c:	3cb7d263          	bge	a5,a1,add0 <__subdf3+0x564>
    aa10:	fe058813          	addi	a6,a1,-32 # ffe0 <_data_lma+0xefc>
    aa14:	02000793          	li	a5,32
    aa18:	010759b3          	srl	s3,a4,a6
    aa1c:	00f58a63          	beq	a1,a5,aa30 <__subdf3+0x1c4>
    aa20:	04000793          	li	a5,64
    aa24:	40b785b3          	sub	a1,a5,a1
    aa28:	00b71733          	sll	a4,a4,a1
    aa2c:	00eeeeb3          	or	t4,t4,a4
    aa30:	01d03833          	snez	a6,t4
    aa34:	01386833          	or	a6,a6,s3
    aa38:	a295                	j	ab9c <__subdf3+0x330>
    aa3a:	01d767b3          	or	a5,a4,t4
    aa3e:	80148593          	addi	a1,s1,-2047
    aa42:	e399                	bnez	a5,aa48 <__subdf3+0x1dc>
    aa44:	0016c693          	xori	a3,a3,1
    aa48:	04d40a63          	beq	s0,a3,aa9c <__subdf3+0x230>
    aa4c:	e1d1                	bnez	a1,aad0 <__subdf3+0x264>
    aa4e:	00148793          	addi	a5,s1,1
    aa52:	7fe7f793          	andi	a5,a5,2046
    aa56:	1e079963          	bnez	a5,ac48 <__subdf3+0x3dc>
    aa5a:	01e367b3          	or	a5,t1,t5
    aa5e:	01d76833          	or	a6,a4,t4
    aa62:	16049263          	bnez	s1,abc6 <__subdf3+0x35a>
    aa66:	3c078263          	beqz	a5,ae2a <__subdf3+0x5be>
    aa6a:	42081663          	bnez	a6,ae96 <__subdf3+0x62a>
    aa6e:	00351813          	slli	a6,a0,0x3
    aa72:	01d31693          	slli	a3,t1,0x1d
    aa76:	00385813          	srli	a6,a6,0x3
    aa7a:	0106e833          	or	a6,a3,a6
    aa7e:	00335793          	srli	a5,t1,0x3
    aa82:	a219                	j	ab88 <__subdf3+0x31c>
    aa84:	01d767b3          	or	a5,a4,t4
    aa88:	1a078563          	beqz	a5,ac32 <__subdf3+0x3c6>
    aa8c:	fff58793          	addi	a5,a1,-1
    aa90:	3a078b63          	beqz	a5,ae46 <__subdf3+0x5da>
    aa94:	23c58c63          	beq	a1,t3,accc <__subdf3+0x460>
    aa98:	85be                	mv	a1,a5
    aa9a:	b589                	j	a8dc <__subdf3+0x70>
    aa9c:	1c059963          	bnez	a1,ac6e <__subdf3+0x402>
    aaa0:	00148693          	addi	a3,s1,1
    aaa4:	7fe6f793          	andi	a5,a3,2046
    aaa8:	efc1                	bnez	a5,ab40 <__subdf3+0x2d4>
    aaaa:	01e367b3          	or	a5,t1,t5
    aaae:	36049063          	bnez	s1,ae0e <__subdf3+0x5a2>
    aab2:	44078d63          	beqz	a5,af0c <__subdf3+0x6a0>
    aab6:	01d767b3          	or	a5,a4,t4
    aaba:	46079463          	bnez	a5,af22 <__subdf3+0x6b6>
    aabe:	050e                	slli	a0,a0,0x3
    aac0:	01d31813          	slli	a6,t1,0x1d
    aac4:	810d                	srli	a0,a0,0x3
    aac6:	00a86833          	or	a6,a6,a0
    aaca:	00335793          	srli	a5,t1,0x3
    aace:	a86d                	j	ab88 <__subdf3+0x31c>
    aad0:	409885b3          	sub	a1,a7,s1
    aad4:	20049763          	bnez	s1,ace2 <__subdf3+0x476>
    aad8:	01e367b3          	or	a5,t1,t5
    aadc:	30078d63          	beqz	a5,adf6 <__subdf3+0x58a>
    aae0:	fff58793          	addi	a5,a1,-1
    aae4:	40078963          	beqz	a5,aef6 <__subdf3+0x68a>
    aae8:	7ff00513          	li	a0,2047
    aaec:	20a58363          	beq	a1,a0,acf2 <__subdf3+0x486>
    aaf0:	85be                	mv	a1,a5
    aaf2:	03800793          	li	a5,56
    aaf6:	2ab7c263          	blt	a5,a1,ad9a <__subdf3+0x52e>
    aafa:	47fd                	li	a5,31
    aafc:	3cb7c863          	blt	a5,a1,aecc <__subdf3+0x660>
    ab00:	02000793          	li	a5,32
    ab04:	8f8d                	sub	a5,a5,a1
    ab06:	00f31833          	sll	a6,t1,a5
    ab0a:	00bf5633          	srl	a2,t5,a1
    ab0e:	00ff17b3          	sll	a5,t5,a5
    ab12:	00c86833          	or	a6,a6,a2
    ab16:	00f039b3          	snez	s3,a5
    ab1a:	00b35333          	srl	t1,t1,a1
    ab1e:	01386833          	or	a6,a6,s3
    ab22:	40670733          	sub	a4,a4,t1
    ab26:	acb5                	j	ada2 <__subdf3+0x536>
    ab28:	01d767b3          	or	a5,a4,t4
    ab2c:	10078363          	beqz	a5,ac32 <__subdf3+0x3c6>
    ab30:	fff58793          	addi	a5,a1,-1
    ab34:	1e078f63          	beqz	a5,ad32 <__subdf3+0x4c6>
    ab38:	2fc58063          	beq	a1,t3,ae18 <__subdf3+0x5ac>
    ab3c:	85be                	mv	a1,a5
    ab3e:	b5d1                	j	aa02 <__subdf3+0x196>
    ab40:	7ff00793          	li	a5,2047
    ab44:	06f68b63          	beq	a3,a5,abba <__subdf3+0x34e>
    ab48:	9efa                	add	t4,t4,t5
    ab4a:	01eeb633          	sltu	a2,t4,t5
    ab4e:	00e307b3          	add	a5,t1,a4
    ab52:	97b2                	add	a5,a5,a2
    ab54:	01f79813          	slli	a6,a5,0x1f
    ab58:	001ede93          	srli	t4,t4,0x1
    ab5c:	01d869b3          	or	s3,a6,t4
    ab60:	0017d613          	srli	a2,a5,0x1
    ab64:	84b6                	mv	s1,a3
    ab66:	0079f793          	andi	a5,s3,7
    ab6a:	e0079fe3          	bnez	a5,a988 <__subdf3+0x11c>
    ab6e:	01d61793          	slli	a5,a2,0x1d
    ab72:	0039d813          	srli	a6,s3,0x3
    ab76:	00f86833          	or	a6,a6,a5
    ab7a:	85a6                	mv	a1,s1
    ab7c:	00365793          	srli	a5,a2,0x3
    ab80:	7ff00713          	li	a4,2047
    ab84:	06e58063          	beq	a1,a4,abe4 <__subdf3+0x378>
    ab88:	07b2                	slli	a5,a5,0xc
    ab8a:	83b1                	srli	a5,a5,0xc
    ab8c:	7ff5f713          	andi	a4,a1,2047
    ab90:	8805                	andi	s0,s0,1
    ab92:	bd3d                	j	a9d0 <__subdf3+0x164>
    ab94:	01d76733          	or	a4,a4,t4
    ab98:	00e03833          	snez	a6,a4
    ab9c:	01e809b3          	add	s3,a6,t5
    aba0:	01e9b7b3          	sltu	a5,s3,t5
    aba4:	00678633          	add	a2,a5,t1
    aba8:	00861793          	slli	a5,a2,0x8
    abac:	fa07dde3          	bgez	a5,ab66 <__subdf3+0x2fa>
    abb0:	0485                	addi	s1,s1,1
    abb2:	7ff00793          	li	a5,2047
    abb6:	18f49c63          	bne	s1,a5,ad4e <__subdf3+0x4e2>
    abba:	8805                	andi	s0,s0,1
    abbc:	7ff00713          	li	a4,2047
    abc0:	4781                	li	a5,0
    abc2:	4801                	li	a6,0
    abc4:	b531                	j	a9d0 <__subdf3+0x164>
    abc6:	10079163          	bnez	a5,acc8 <__subdf3+0x45c>
    abca:	3c080163          	beqz	a6,af8c <__subdf3+0x720>
    abce:	00361813          	slli	a6,a2,0x3
    abd2:	01d71793          	slli	a5,a4,0x1d
    abd6:	00385813          	srli	a6,a6,0x3
    abda:	00f86833          	or	a6,a6,a5
    abde:	8436                	mv	s0,a3
    abe0:	00375793          	srli	a5,a4,0x3
    abe4:	00f867b3          	or	a5,a6,a5
    abe8:	dbe9                	beqz	a5,abba <__subdf3+0x34e>
    abea:	4401                	li	s0,0
    abec:	7ff00713          	li	a4,2047
    abf0:	000807b7          	lui	a5,0x80
    abf4:	4801                	li	a6,0
    abf6:	bbe9                	j	a9d0 <__subdf3+0x164>
    abf8:	ff800637          	lui	a2,0xff800
    abfc:	167d                	addi	a2,a2,-1
    abfe:	8e7d                	and	a2,a2,a5
    ac00:	0079f793          	andi	a5,s3,7
    ac04:	8c99                	sub	s1,s1,a4
    ac06:	d80791e3          	bnez	a5,a988 <__subdf3+0x11c>
    ac0a:	b795                	j	ab6e <__subdf3+0x302>
    ac0c:	854e                	mv	a0,s3
    ac0e:	1c3000ef          	jal	ra,b5d0 <__clzsi2>
    ac12:	01850713          	addi	a4,a0,24
    ac16:	47fd                	li	a5,31
    ac18:	d2e7d2e3          	bge	a5,a4,a93c <__subdf3+0xd0>
    ac1c:	ff850613          	addi	a2,a0,-8
    ac20:	00c997b3          	sll	a5,s3,a2
    ac24:	4981                	li	s3,0
    ac26:	b32d                	j	a950 <__subdf3+0xe4>
    ac28:	01d76833          	or	a6,a4,t4
    ac2c:	01003833          	snez	a6,a6
    ac30:	b1c5                	j	a910 <__subdf3+0xa4>
    ac32:	00351813          	slli	a6,a0,0x3
    ac36:	01d31793          	slli	a5,t1,0x1d
    ac3a:	00385813          	srli	a6,a6,0x3
    ac3e:	00f86833          	or	a6,a6,a5
    ac42:	00335793          	srli	a5,t1,0x3
    ac46:	bf2d                	j	ab80 <__subdf3+0x314>
    ac48:	41df09b3          	sub	s3,t5,t4
    ac4c:	40e30933          	sub	s2,t1,a4
    ac50:	013f3633          	sltu	a2,t5,s3
    ac54:	40c90933          	sub	s2,s2,a2
    ac58:	00891793          	slli	a5,s2,0x8
    ac5c:	2007ca63          	bltz	a5,ae70 <__subdf3+0x604>
    ac60:	0129e833          	or	a6,s3,s2
    ac64:	cc0815e3          	bnez	a6,a92e <__subdf3+0xc2>
    ac68:	4781                	li	a5,0
    ac6a:	4401                	li	s0,0
    ac6c:	bf31                	j	ab88 <__subdf3+0x31c>
    ac6e:	409885b3          	sub	a1,a7,s1
    ac72:	14048163          	beqz	s1,adb4 <__subdf3+0x548>
    ac76:	008006b7          	lui	a3,0x800
    ac7a:	7ff00793          	li	a5,2047
    ac7e:	00d36333          	or	t1,t1,a3
    ac82:	20f88163          	beq	a7,a5,ae84 <__subdf3+0x618>
    ac86:	03800793          	li	a5,56
    ac8a:	22b7cc63          	blt	a5,a1,aec2 <__subdf3+0x656>
    ac8e:	47fd                	li	a5,31
    ac90:	2cb7c963          	blt	a5,a1,af62 <__subdf3+0x6f6>
    ac94:	02000793          	li	a5,32
    ac98:	8f8d                	sub	a5,a5,a1
    ac9a:	00f31833          	sll	a6,t1,a5
    ac9e:	00bf56b3          	srl	a3,t5,a1
    aca2:	00ff17b3          	sll	a5,t5,a5
    aca6:	00d86833          	or	a6,a6,a3
    acaa:	00f039b3          	snez	s3,a5
    acae:	00b35333          	srl	t1,t1,a1
    acb2:	01386833          	or	a6,a6,s3
    acb6:	971a                	add	a4,a4,t1
    acb8:	01d809b3          	add	s3,a6,t4
    acbc:	01d9b7b3          	sltu	a5,s3,t4
    acc0:	00e78633          	add	a2,a5,a4
    acc4:	84c6                	mv	s1,a7
    acc6:	b5cd                	j	aba8 <__subdf3+0x33c>
    acc8:	f20811e3          	bnez	a6,abea <__subdf3+0x37e>
    accc:	00351813          	slli	a6,a0,0x3
    acd0:	01d31793          	slli	a5,t1,0x1d
    acd4:	00385813          	srli	a6,a6,0x3
    acd8:	00f86833          	or	a6,a6,a5
    acdc:	00335793          	srli	a5,t1,0x3
    ace0:	b711                	j	abe4 <__subdf3+0x378>
    ace2:	00800537          	lui	a0,0x800
    ace6:	7ff00793          	li	a5,2047
    acea:	00a36333          	or	t1,t1,a0
    acee:	e0f892e3          	bne	a7,a5,aaf2 <__subdf3+0x286>
    acf2:	060e                	slli	a2,a2,0x3
    acf4:	01d71813          	slli	a6,a4,0x1d
    acf8:	820d                	srli	a2,a2,0x3
    acfa:	00c86833          	or	a6,a6,a2
    acfe:	00375793          	srli	a5,a4,0x3
    ad02:	8436                	mv	s0,a3
    ad04:	b5c5                	j	abe4 <__subdf3+0x378>
    ad06:	1705                	addi	a4,a4,-31
    ad08:	02000693          	li	a3,32
    ad0c:	00e7d733          	srl	a4,a5,a4
    ad10:	00d60a63          	beq	a2,a3,ad24 <__subdf3+0x4b8>
    ad14:	04000693          	li	a3,64
    ad18:	40c68633          	sub	a2,a3,a2
    ad1c:	00c79633          	sll	a2,a5,a2
    ad20:	00c9e9b3          	or	s3,s3,a2
    ad24:	01303833          	snez	a6,s3
    ad28:	00e869b3          	or	s3,a6,a4
    ad2c:	4601                	li	a2,0
    ad2e:	4481                	li	s1,0
    ad30:	bd1d                	j	ab66 <__subdf3+0x2fa>
    ad32:	01df09b3          	add	s3,t5,t4
    ad36:	00e307b3          	add	a5,t1,a4
    ad3a:	01e9bf33          	sltu	t5,s3,t5
    ad3e:	01e78633          	add	a2,a5,t5
    ad42:	00861793          	slli	a5,a2,0x8
    ad46:	4485                	li	s1,1
    ad48:	e007dfe3          	bgez	a5,ab66 <__subdf3+0x2fa>
    ad4c:	4489                	li	s1,2
    ad4e:	ff8007b7          	lui	a5,0xff800
    ad52:	17fd                	addi	a5,a5,-1
    ad54:	8ff1                	and	a5,a5,a2
    ad56:	0019d713          	srli	a4,s3,0x1
    ad5a:	0019f813          	andi	a6,s3,1
    ad5e:	01076833          	or	a6,a4,a6
    ad62:	01f79993          	slli	s3,a5,0x1f
    ad66:	0109e9b3          	or	s3,s3,a6
    ad6a:	0017d613          	srli	a2,a5,0x1
    ad6e:	b911                	j	a982 <__subdf3+0x116>
    ad70:	fe058813          	addi	a6,a1,-32
    ad74:	02000793          	li	a5,32
    ad78:	010759b3          	srl	s3,a4,a6
    ad7c:	00f58a63          	beq	a1,a5,ad90 <__subdf3+0x524>
    ad80:	04000793          	li	a5,64
    ad84:	40b785b3          	sub	a1,a5,a1
    ad88:	00b71733          	sll	a4,a4,a1
    ad8c:	00eeeeb3          	or	t4,t4,a4
    ad90:	01d03833          	snez	a6,t4
    ad94:	01386833          	or	a6,a6,s3
    ad98:	bea5                	j	a910 <__subdf3+0xa4>
    ad9a:	01e36333          	or	t1,t1,t5
    ad9e:	00603833          	snez	a6,t1
    ada2:	410e89b3          	sub	s3,t4,a6
    ada6:	013eb7b3          	sltu	a5,t4,s3
    adaa:	40f70633          	sub	a2,a4,a5
    adae:	84c6                	mv	s1,a7
    adb0:	8436                	mv	s0,a3
    adb2:	b6ad                	j	a91c <__subdf3+0xb0>
    adb4:	01e367b3          	or	a5,t1,t5
    adb8:	18078763          	beqz	a5,af46 <__subdf3+0x6da>
    adbc:	fff58793          	addi	a5,a1,-1
    adc0:	1c078c63          	beqz	a5,af98 <__subdf3+0x72c>
    adc4:	7ff00693          	li	a3,2047
    adc8:	0ad58e63          	beq	a1,a3,ae84 <__subdf3+0x618>
    adcc:	85be                	mv	a1,a5
    adce:	bd65                	j	ac86 <__subdf3+0x41a>
    add0:	02000793          	li	a5,32
    add4:	8f8d                	sub	a5,a5,a1
    add6:	00bed9b3          	srl	s3,t4,a1
    adda:	00f71833          	sll	a6,a4,a5
    adde:	00fe9eb3          	sll	t4,t4,a5
    ade2:	01386833          	or	a6,a6,s3
    ade6:	00b75733          	srl	a4,a4,a1
    adea:	01d039b3          	snez	s3,t4
    adee:	01386833          	or	a6,a6,s3
    adf2:	933a                	add	t1,t1,a4
    adf4:	b365                	j	ab9c <__subdf3+0x330>
    adf6:	00361813          	slli	a6,a2,0x3
    adfa:	01d71793          	slli	a5,a4,0x1d
    adfe:	00385813          	srli	a6,a6,0x3
    ae02:	0107e833          	or	a6,a5,a6
    ae06:	8436                	mv	s0,a3
    ae08:	00375793          	srli	a5,a4,0x3
    ae0c:	bb95                	j	ab80 <__subdf3+0x314>
    ae0e:	cbbd                	beqz	a5,ae84 <__subdf3+0x618>
    ae10:	01d76733          	or	a4,a4,t4
    ae14:	dc071be3          	bnez	a4,abea <__subdf3+0x37e>
    ae18:	050e                	slli	a0,a0,0x3
    ae1a:	01d31813          	slli	a6,t1,0x1d
    ae1e:	810d                	srli	a0,a0,0x3
    ae20:	00a86833          	or	a6,a6,a0
    ae24:	00335793          	srli	a5,t1,0x3
    ae28:	bb75                	j	abe4 <__subdf3+0x378>
    ae2a:	e2080fe3          	beqz	a6,ac68 <__subdf3+0x3fc>
    ae2e:	00361813          	slli	a6,a2,0x3
    ae32:	01d71793          	slli	a5,a4,0x1d
    ae36:	00385813          	srli	a6,a6,0x3
    ae3a:	00f86833          	or	a6,a6,a5
    ae3e:	8436                	mv	s0,a3
    ae40:	00375793          	srli	a5,a4,0x3
    ae44:	b391                	j	ab88 <__subdf3+0x31c>
    ae46:	41df09b3          	sub	s3,t5,t4
    ae4a:	40e307b3          	sub	a5,t1,a4
    ae4e:	013f3f33          	sltu	t5,t5,s3
    ae52:	41e78633          	sub	a2,a5,t5
    ae56:	4485                	li	s1,1
    ae58:	b4d1                	j	a91c <__subdf3+0xb0>
    ae5a:	00351813          	slli	a6,a0,0x3
    ae5e:	01d31693          	slli	a3,t1,0x1d
    ae62:	00385813          	srli	a6,a6,0x3
    ae66:	0106e833          	or	a6,a3,a6
    ae6a:	00335793          	srli	a5,t1,0x3
    ae6e:	bb9d                	j	abe4 <__subdf3+0x378>
    ae70:	41ee89b3          	sub	s3,t4,t5
    ae74:	40670633          	sub	a2,a4,t1
    ae78:	013eb933          	sltu	s2,t4,s3
    ae7c:	41260933          	sub	s2,a2,s2
    ae80:	8436                	mv	s0,a3
    ae82:	b475                	j	a92e <__subdf3+0xc2>
    ae84:	060e                	slli	a2,a2,0x3
    ae86:	01d71813          	slli	a6,a4,0x1d
    ae8a:	820d                	srli	a2,a2,0x3
    ae8c:	00c86833          	or	a6,a6,a2
    ae90:	00375793          	srli	a5,a4,0x3
    ae94:	bb81                	j	abe4 <__subdf3+0x378>
    ae96:	41df09b3          	sub	s3,t5,t4
    ae9a:	40e307b3          	sub	a5,t1,a4
    ae9e:	013f3633          	sltu	a2,t5,s3
    aea2:	40c78633          	sub	a2,a5,a2
    aea6:	00861793          	slli	a5,a2,0x8
    aeaa:	0a07d763          	bgez	a5,af58 <__subdf3+0x6ec>
    aeae:	41ee89b3          	sub	s3,t4,t5
    aeb2:	406707b3          	sub	a5,a4,t1
    aeb6:	013ebeb3          	sltu	t4,t4,s3
    aeba:	41d78633          	sub	a2,a5,t4
    aebe:	8436                	mv	s0,a3
    aec0:	b4c9                	j	a982 <__subdf3+0x116>
    aec2:	01e36333          	or	t1,t1,t5
    aec6:	00603833          	snez	a6,t1
    aeca:	b3fd                	j	acb8 <__subdf3+0x44c>
    aecc:	fe058813          	addi	a6,a1,-32
    aed0:	02000793          	li	a5,32
    aed4:	010359b3          	srl	s3,t1,a6
    aed8:	00f58a63          	beq	a1,a5,aeec <__subdf3+0x680>
    aedc:	04000793          	li	a5,64
    aee0:	40b785b3          	sub	a1,a5,a1
    aee4:	00b31333          	sll	t1,t1,a1
    aee8:	006f6f33          	or	t5,t5,t1
    aeec:	01e03833          	snez	a6,t5
    aef0:	01386833          	or	a6,a6,s3
    aef4:	b57d                	j	ada2 <__subdf3+0x536>
    aef6:	41ee89b3          	sub	s3,t4,t5
    aefa:	406707b3          	sub	a5,a4,t1
    aefe:	013ebeb3          	sltu	t4,t4,s3
    af02:	41d78633          	sub	a2,a5,t4
    af06:	8436                	mv	s0,a3
    af08:	4485                	li	s1,1
    af0a:	bc09                	j	a91c <__subdf3+0xb0>
    af0c:	00361813          	slli	a6,a2,0x3
    af10:	01d71793          	slli	a5,a4,0x1d
    af14:	00385813          	srli	a6,a6,0x3
    af18:	00f86833          	or	a6,a6,a5
    af1c:	00375793          	srli	a5,a4,0x3
    af20:	b1a5                	j	ab88 <__subdf3+0x31c>
    af22:	01df09b3          	add	s3,t5,t4
    af26:	00e307b3          	add	a5,t1,a4
    af2a:	01e9bf33          	sltu	t5,s3,t5
    af2e:	01e78633          	add	a2,a5,t5
    af32:	00861793          	slli	a5,a2,0x8
    af36:	c207d8e3          	bgez	a5,ab66 <__subdf3+0x2fa>
    af3a:	ff8007b7          	lui	a5,0xff800
    af3e:	17fd                	addi	a5,a5,-1
    af40:	8e7d                	and	a2,a2,a5
    af42:	4485                	li	s1,1
    af44:	b10d                	j	ab66 <__subdf3+0x2fa>
    af46:	060e                	slli	a2,a2,0x3
    af48:	01d71813          	slli	a6,a4,0x1d
    af4c:	820d                	srli	a2,a2,0x3
    af4e:	00c86833          	or	a6,a6,a2
    af52:	00375793          	srli	a5,a4,0x3
    af56:	b12d                	j	ab80 <__subdf3+0x314>
    af58:	00c9e833          	or	a6,s3,a2
    af5c:	d00806e3          	beqz	a6,ac68 <__subdf3+0x3fc>
    af60:	b119                	j	ab66 <__subdf3+0x2fa>
    af62:	fe058813          	addi	a6,a1,-32
    af66:	02000793          	li	a5,32
    af6a:	010359b3          	srl	s3,t1,a6
    af6e:	00f58a63          	beq	a1,a5,af82 <__subdf3+0x716>
    af72:	04000793          	li	a5,64
    af76:	40b785b3          	sub	a1,a5,a1
    af7a:	00b31333          	sll	t1,t1,a1
    af7e:	006f6f33          	or	t5,t5,t1
    af82:	01e03833          	snez	a6,t5
    af86:	01386833          	or	a6,a6,s3
    af8a:	b33d                	j	acb8 <__subdf3+0x44c>
    af8c:	4401                	li	s0,0
    af8e:	7ff00713          	li	a4,2047
    af92:	000807b7          	lui	a5,0x80
    af96:	bc2d                	j	a9d0 <__subdf3+0x164>
    af98:	01df09b3          	add	s3,t5,t4
    af9c:	00e307b3          	add	a5,t1,a4
    afa0:	01d9beb3          	sltu	t4,s3,t4
    afa4:	01d78633          	add	a2,a5,t4
    afa8:	bb69                	j	ad42 <__subdf3+0x4d6>

0000afaa <__unorddf2>:
    afaa:	0145d713          	srli	a4,a1,0x14
    afae:	001007b7          	lui	a5,0x100
    afb2:	17fd                	addi	a5,a5,-1
    afb4:	fff74713          	not	a4,a4
    afb8:	0146d813          	srli	a6,a3,0x14
    afbc:	8dfd                	and	a1,a1,a5
    afbe:	8ff5                	and	a5,a5,a3
    afc0:	01571693          	slli	a3,a4,0x15
    afc4:	7ff87813          	andi	a6,a6,2047
    afc8:	ca99                	beqz	a3,afde <__unorddf2+0x34>
    afca:	7ff00713          	li	a4,2047
    afce:	4501                	li	a0,0
    afd0:	00e80363          	beq	a6,a4,afd6 <__unorddf2+0x2c>
    afd4:	8082                	ret
    afd6:	8fd1                	or	a5,a5,a2
    afd8:	00f03533          	snez	a0,a5
    afdc:	8082                	ret
    afde:	8dc9                	or	a1,a1,a0
    afe0:	4505                	li	a0,1
    afe2:	d5e5                	beqz	a1,afca <__unorddf2+0x20>
    afe4:	8082                	ret

0000afe6 <__fixdfsi>:
    afe6:	0145d793          	srli	a5,a1,0x14
    afea:	001006b7          	lui	a3,0x100
    afee:	fff68713          	addi	a4,a3,-1 # fffff <_data_lma+0xf0f1b>
    aff2:	7ff7f793          	andi	a5,a5,2047
    aff6:	3fe00613          	li	a2,1022
    affa:	8f6d                	and	a4,a4,a1
    affc:	81fd                	srli	a1,a1,0x1f
    affe:	00f65c63          	bge	a2,a5,b016 <__fixdfsi+0x30>
    b002:	41d00613          	li	a2,1053
    b006:	00f65a63          	bge	a2,a5,b01a <__fixdfsi+0x34>
    b00a:	80000537          	lui	a0,0x80000
    b00e:	fff54513          	not	a0,a0
    b012:	952e                	add	a0,a0,a1
    b014:	8082                	ret
    b016:	4501                	li	a0,0
    b018:	8082                	ret
    b01a:	43300613          	li	a2,1075
    b01e:	8e1d                	sub	a2,a2,a5
    b020:	487d                	li	a6,31
    b022:	8f55                	or	a4,a4,a3
    b024:	00c85d63          	bge	a6,a2,b03e <__fixdfsi+0x58>
    b028:	41300693          	li	a3,1043
    b02c:	40f687b3          	sub	a5,a3,a5
    b030:	00f757b3          	srl	a5,a4,a5
    b034:	40f00533          	neg	a0,a5
    b038:	f1e5                	bnez	a1,b018 <__fixdfsi+0x32>
    b03a:	853e                	mv	a0,a5
    b03c:	8082                	ret
    b03e:	bed78793          	addi	a5,a5,-1043 # ffbed <_data_lma+0xf0b09>
    b042:	00f717b3          	sll	a5,a4,a5
    b046:	00c55533          	srl	a0,a0,a2
    b04a:	8fc9                	or	a5,a5,a0
    b04c:	b7e5                	j	b034 <__fixdfsi+0x4e>

0000b04e <__fixunsdfsi>:
    b04e:	0145d793          	srli	a5,a1,0x14
    b052:	001006b7          	lui	a3,0x100
    b056:	fff68713          	addi	a4,a3,-1 # fffff <_data_lma+0xf0f1b>
    b05a:	7ff7f793          	andi	a5,a5,2047
    b05e:	3fe00613          	li	a2,1022
    b062:	882a                	mv	a6,a0
    b064:	8f6d                	and	a4,a4,a1
    b066:	4501                	li	a0,0
    b068:	81fd                	srli	a1,a1,0x1f
    b06a:	00f65463          	bge	a2,a5,b072 <__fixunsdfsi+0x24>
    b06e:	c199                	beqz	a1,b074 <__fixunsdfsi+0x26>
    b070:	8082                	ret
    b072:	8082                	ret
    b074:	41e00613          	li	a2,1054
    b078:	557d                	li	a0,-1
    b07a:	fef64be3          	blt	a2,a5,b070 <__fixunsdfsi+0x22>
    b07e:	43300513          	li	a0,1075
    b082:	8d1d                	sub	a0,a0,a5
    b084:	467d                	li	a2,31
    b086:	8f55                	or	a4,a4,a3
    b088:	00a64a63          	blt	a2,a0,b09c <__fixunsdfsi+0x4e>
    b08c:	bed78793          	addi	a5,a5,-1043
    b090:	00f71733          	sll	a4,a4,a5
    b094:	00a85533          	srl	a0,a6,a0
    b098:	8d59                	or	a0,a0,a4
    b09a:	8082                	ret
    b09c:	41300513          	li	a0,1043
    b0a0:	40f507b3          	sub	a5,a0,a5
    b0a4:	00f75533          	srl	a0,a4,a5
    b0a8:	8082                	ret

0000b0aa <__floatsidf>:
    b0aa:	1141                	addi	sp,sp,-16
    b0ac:	c606                	sw	ra,12(sp)
    b0ae:	c422                	sw	s0,8(sp)
    b0b0:	c226                	sw	s1,4(sp)
    b0b2:	cd05                	beqz	a0,b0ea <__floatsidf+0x40>
    b0b4:	41f55793          	srai	a5,a0,0x1f
    b0b8:	00a7c4b3          	xor	s1,a5,a0
    b0bc:	8c9d                	sub	s1,s1,a5
    b0be:	842a                	mv	s0,a0
    b0c0:	8526                	mv	a0,s1
    b0c2:	2339                	jal	b5d0 <__clzsi2>
    b0c4:	41e00693          	li	a3,1054
    b0c8:	8e89                	sub	a3,a3,a0
    b0ca:	47a9                	li	a5,10
    b0cc:	807d                	srli	s0,s0,0x1f
    b0ce:	7ff6f693          	andi	a3,a3,2047
    b0d2:	02a7cd63          	blt	a5,a0,b10c <__floatsidf+0x62>
    b0d6:	472d                	li	a4,11
    b0d8:	8f09                	sub	a4,a4,a0
    b0da:	00e4d7b3          	srl	a5,s1,a4
    b0de:	0555                	addi	a0,a0,21
    b0e0:	07b2                	slli	a5,a5,0xc
    b0e2:	00a494b3          	sll	s1,s1,a0
    b0e6:	83b1                	srli	a5,a5,0xc
    b0e8:	a029                	j	b0f2 <__floatsidf+0x48>
    b0ea:	4401                	li	s0,0
    b0ec:	4681                	li	a3,0
    b0ee:	4781                	li	a5,0
    b0f0:	4481                	li	s1,0
    b0f2:	07b2                	slli	a5,a5,0xc
    b0f4:	06d2                	slli	a3,a3,0x14
    b0f6:	83b1                	srli	a5,a5,0xc
    b0f8:	047e                	slli	s0,s0,0x1f
    b0fa:	8fd5                	or	a5,a5,a3
    b0fc:	8fc1                	or	a5,a5,s0
    b0fe:	40b2                	lw	ra,12(sp)
    b100:	4422                	lw	s0,8(sp)
    b102:	8526                	mv	a0,s1
    b104:	85be                	mv	a1,a5
    b106:	4492                	lw	s1,4(sp)
    b108:	0141                	addi	sp,sp,16
    b10a:	8082                	ret
    b10c:	1555                	addi	a0,a0,-11
    b10e:	00a497b3          	sll	a5,s1,a0
    b112:	07b2                	slli	a5,a5,0xc
    b114:	83b1                	srli	a5,a5,0xc
    b116:	4481                	li	s1,0
    b118:	bfe9                	j	b0f2 <__floatsidf+0x48>

0000b11a <__floatunsidf>:
    b11a:	cd15                	beqz	a0,b156 <__floatunsidf+0x3c>
    b11c:	1141                	addi	sp,sp,-16
    b11e:	c422                	sw	s0,8(sp)
    b120:	c606                	sw	ra,12(sp)
    b122:	842a                	mv	s0,a0
    b124:	2175                	jal	b5d0 <__clzsi2>
    b126:	41e00693          	li	a3,1054
    b12a:	8e89                	sub	a3,a3,a0
    b12c:	47a9                	li	a5,10
    b12e:	7ff6f693          	andi	a3,a3,2047
    b132:	02a7dc63          	bge	a5,a0,b16a <__floatunsidf+0x50>
    b136:	1555                	addi	a0,a0,-11
    b138:	00a417b3          	sll	a5,s0,a0
    b13c:	07b2                	slli	a5,a5,0xc
    b13e:	83b1                	srli	a5,a5,0xc
    b140:	4701                	li	a4,0
    b142:	40b2                	lw	ra,12(sp)
    b144:	4422                	lw	s0,8(sp)
    b146:	07b2                	slli	a5,a5,0xc
    b148:	06d2                	slli	a3,a3,0x14
    b14a:	83b1                	srli	a5,a5,0xc
    b14c:	8fd5                	or	a5,a5,a3
    b14e:	853a                	mv	a0,a4
    b150:	85be                	mv	a1,a5
    b152:	0141                	addi	sp,sp,16
    b154:	8082                	ret
    b156:	4781                	li	a5,0
    b158:	4681                	li	a3,0
    b15a:	07b2                	slli	a5,a5,0xc
    b15c:	06d2                	slli	a3,a3,0x14
    b15e:	83b1                	srli	a5,a5,0xc
    b160:	4701                	li	a4,0
    b162:	8fd5                	or	a5,a5,a3
    b164:	853a                	mv	a0,a4
    b166:	85be                	mv	a1,a5
    b168:	8082                	ret
    b16a:	472d                	li	a4,11
    b16c:	8f09                	sub	a4,a4,a0
    b16e:	00e457b3          	srl	a5,s0,a4
    b172:	07b2                	slli	a5,a5,0xc
    b174:	01550713          	addi	a4,a0,21 # 80000015 <__freertos_irq_stack_top+0x5fff0015>
    b178:	00e41733          	sll	a4,s0,a4
    b17c:	83b1                	srli	a5,a5,0xc
    b17e:	b7d1                	j	b142 <__floatunsidf+0x28>

0000b180 <__lesf2>:
    b180:	01755693          	srli	a3,a0,0x17
    b184:	008007b7          	lui	a5,0x800
    b188:	17fd                	addi	a5,a5,-1
    b18a:	0175d613          	srli	a2,a1,0x17
    b18e:	0ff6f693          	andi	a3,a3,255
    b192:	0ff00813          	li	a6,255
    b196:	00a7f8b3          	and	a7,a5,a0
    b19a:	01f55713          	srli	a4,a0,0x1f
    b19e:	8fed                	and	a5,a5,a1
    b1a0:	0ff67613          	andi	a2,a2,255
    b1a4:	81fd                	srli	a1,a1,0x1f
    b1a6:	03068763          	beq	a3,a6,b1d4 <__lesf2+0x54>
    b1aa:	01060963          	beq	a2,a6,b1bc <__lesf2+0x3c>
    b1ae:	ea85                	bnez	a3,b1de <__lesf2+0x5e>
    b1b0:	ea11                	bnez	a2,b1c4 <__lesf2+0x44>
    b1b2:	eb89                	bnez	a5,b1c4 <__lesf2+0x44>
    b1b4:	4501                	li	a0,0
    b1b6:	00089b63          	bnez	a7,b1cc <__lesf2+0x4c>
    b1ba:	8082                	ret
    b1bc:	4509                	li	a0,2
    b1be:	fff5                	bnez	a5,b1ba <__lesf2+0x3a>
    b1c0:	dae5                	beqz	a3,b1b0 <__lesf2+0x30>
    b1c2:	a831                	j	b1de <__lesf2+0x5e>
    b1c4:	02088c63          	beqz	a7,b1fc <__lesf2+0x7c>
    b1c8:	04b70063          	beq	a4,a1,b208 <__lesf2+0x88>
    b1cc:	4505                	li	a0,1
    b1ce:	d775                	beqz	a4,b1ba <__lesf2+0x3a>
    b1d0:	557d                	li	a0,-1
    b1d2:	8082                	ret
    b1d4:	4509                	li	a0,2
    b1d6:	02089863          	bnez	a7,b206 <__lesf2+0x86>
    b1da:	02d60463          	beq	a2,a3,b202 <__lesf2+0x82>
    b1de:	e211                	bnez	a2,b1e2 <__lesf2+0x62>
    b1e0:	d7f5                	beqz	a5,b1cc <__lesf2+0x4c>
    b1e2:	feb715e3          	bne	a4,a1,b1cc <__lesf2+0x4c>
    b1e6:	fed643e3          	blt	a2,a3,b1cc <__lesf2+0x4c>
    b1ea:	00c6c763          	blt	a3,a2,b1f8 <__lesf2+0x78>
    b1ee:	fd17efe3          	bltu	a5,a7,b1cc <__lesf2+0x4c>
    b1f2:	4501                	li	a0,0
    b1f4:	fcf8f3e3          	bgeu	a7,a5,b1ba <__lesf2+0x3a>
    b1f8:	e319                	bnez	a4,b1fe <__lesf2+0x7e>
    b1fa:	bfd9                	j	b1d0 <__lesf2+0x50>
    b1fc:	d9f1                	beqz	a1,b1d0 <__lesf2+0x50>
    b1fe:	4505                	li	a0,1
    b200:	8082                	ret
    b202:	d3e5                	beqz	a5,b1e2 <__lesf2+0x62>
    b204:	8082                	ret
    b206:	8082                	ret
    b208:	4681                	li	a3,0
    b20a:	b7c5                	j	b1ea <__lesf2+0x6a>

0000b20c <__unordsf2>:
    b20c:	01755693          	srli	a3,a0,0x17
    b210:	008007b7          	lui	a5,0x800
    b214:	17fd                	addi	a5,a5,-1
    b216:	0175d613          	srli	a2,a1,0x17
    b21a:	0ff6f693          	andi	a3,a3,255
    b21e:	0ff00813          	li	a6,255
    b222:	00a7f733          	and	a4,a5,a0
    b226:	0ff67613          	andi	a2,a2,255
    b22a:	8fed                	and	a5,a5,a1
    b22c:	01068b63          	beq	a3,a6,b242 <__unordsf2+0x36>
    b230:	0ff00713          	li	a4,255
    b234:	4501                	li	a0,0
    b236:	00e60363          	beq	a2,a4,b23c <__unordsf2+0x30>
    b23a:	8082                	ret
    b23c:	00f03533          	snez	a0,a5
    b240:	8082                	ret
    b242:	4505                	li	a0,1
    b244:	d775                	beqz	a4,b230 <__unordsf2+0x24>
    b246:	8082                	ret

0000b248 <__truncdfsf2>:
    b248:	0145d693          	srli	a3,a1,0x14
    b24c:	00c59793          	slli	a5,a1,0xc
    b250:	7ff6f693          	andi	a3,a3,2047
    b254:	83b1                	srli	a5,a5,0xc
    b256:	00168613          	addi	a2,a3,1
    b25a:	078e                	slli	a5,a5,0x3
    b25c:	01d55713          	srli	a4,a0,0x1d
    b260:	7fe67613          	andi	a2,a2,2046
    b264:	81fd                	srli	a1,a1,0x1f
    b266:	8f5d                	or	a4,a4,a5
    b268:	00351893          	slli	a7,a0,0x3
    b26c:	ce35                	beqz	a2,b2e8 <__truncdfsf2+0xa0>
    b26e:	c8068813          	addi	a6,a3,-896
    b272:	0fe00793          	li	a5,254
    b276:	0107dd63          	bge	a5,a6,b290 <__truncdfsf2+0x48>
    b27a:	4781                	li	a5,0
    b27c:	00979513          	slli	a0,a5,0x9
    b280:	0ff00693          	li	a3,255
    b284:	06de                	slli	a3,a3,0x17
    b286:	8125                	srli	a0,a0,0x9
    b288:	05fe                	slli	a1,a1,0x1f
    b28a:	8d55                	or	a0,a0,a3
    b28c:	8d4d                	or	a0,a0,a1
    b28e:	8082                	ret
    b290:	0b005563          	blez	a6,b33a <__truncdfsf2+0xf2>
    b294:	00651793          	slli	a5,a0,0x6
    b298:	070e                	slli	a4,a4,0x3
    b29a:	00f037b3          	snez	a5,a5
    b29e:	8fd9                	or	a5,a5,a4
    b2a0:	01d8d893          	srli	a7,a7,0x1d
    b2a4:	0117e7b3          	or	a5,a5,a7
    b2a8:	0077f713          	andi	a4,a5,7
    b2ac:	10070163          	beqz	a4,b3ae <__truncdfsf2+0x166>
    b2b0:	00f7f713          	andi	a4,a5,15
    b2b4:	4691                	li	a3,4
    b2b6:	00d70363          	beq	a4,a3,b2bc <__truncdfsf2+0x74>
    b2ba:	0791                	addi	a5,a5,4
    b2bc:	04000737          	lui	a4,0x4000
    b2c0:	8f7d                	and	a4,a4,a5
    b2c2:	c775                	beqz	a4,b3ae <__truncdfsf2+0x166>
    b2c4:	00180713          	addi	a4,a6,1
    b2c8:	0ff00613          	li	a2,255
    b2cc:	0ff77693          	andi	a3,a4,255
    b2d0:	fac705e3          	beq	a4,a2,b27a <__truncdfsf2+0x32>
    b2d4:	079a                	slli	a5,a5,0x6
    b2d6:	83a5                	srli	a5,a5,0x9
    b2d8:	00979513          	slli	a0,a5,0x9
    b2dc:	06de                	slli	a3,a3,0x17
    b2de:	8125                	srli	a0,a0,0x9
    b2e0:	05fe                	slli	a1,a1,0x1f
    b2e2:	8d55                	or	a0,a0,a3
    b2e4:	8d4d                	or	a0,a0,a1
    b2e6:	8082                	ret
    b2e8:	011767b3          	or	a5,a4,a7
    b2ec:	ee99                	bnez	a3,b30a <__truncdfsf2+0xc2>
    b2ee:	cf85                	beqz	a5,b326 <__truncdfsf2+0xde>
    b2f0:	4795                	li	a5,5
    b2f2:	079a                	slli	a5,a5,0x6
    b2f4:	83a5                	srli	a5,a5,0x9
    b2f6:	00979513          	slli	a0,a5,0x9
    b2fa:	0ff6f693          	andi	a3,a3,255
    b2fe:	06de                	slli	a3,a3,0x17
    b300:	8125                	srli	a0,a0,0x9
    b302:	05fe                	slli	a1,a1,0x1f
    b304:	8d55                	or	a0,a0,a3
    b306:	8d4d                	or	a0,a0,a1
    b308:	8082                	ret
    b30a:	dba5                	beqz	a5,b27a <__truncdfsf2+0x32>
    b30c:	004007b7          	lui	a5,0x400
    b310:	00979513          	slli	a0,a5,0x9
    b314:	0ff00693          	li	a3,255
    b318:	06de                	slli	a3,a3,0x17
    b31a:	4581                	li	a1,0
    b31c:	8125                	srli	a0,a0,0x9
    b31e:	05fe                	slli	a1,a1,0x1f
    b320:	8d55                	or	a0,a0,a3
    b322:	8d4d                	or	a0,a0,a1
    b324:	8082                	ret
    b326:	4781                	li	a5,0
    b328:	00979513          	slli	a0,a5,0x9
    b32c:	4681                	li	a3,0
    b32e:	06de                	slli	a3,a3,0x17
    b330:	8125                	srli	a0,a0,0x9
    b332:	05fe                	slli	a1,a1,0x1f
    b334:	8d55                	or	a0,a0,a3
    b336:	8d4d                	or	a0,a0,a1
    b338:	8082                	ret
    b33a:	57a5                	li	a5,-23
    b33c:	04f84863          	blt	a6,a5,b38c <__truncdfsf2+0x144>
    b340:	47f9                	li	a5,30
    b342:	00800637          	lui	a2,0x800
    b346:	410787b3          	sub	a5,a5,a6
    b34a:	457d                	li	a0,31
    b34c:	8e59                	or	a2,a2,a4
    b34e:	04f55163          	bge	a0,a5,b390 <__truncdfsf2+0x148>
    b352:	5779                	li	a4,-2
    b354:	41070733          	sub	a4,a4,a6
    b358:	02000513          	li	a0,32
    b35c:	00e65733          	srl	a4,a2,a4
    b360:	00a78863          	beq	a5,a0,b370 <__truncdfsf2+0x128>
    b364:	ca268693          	addi	a3,a3,-862
    b368:	00d616b3          	sll	a3,a2,a3
    b36c:	00d8e8b3          	or	a7,a7,a3
    b370:	011037b3          	snez	a5,a7
    b374:	8fd9                	or	a5,a5,a4
    b376:	0077f713          	andi	a4,a5,7
    b37a:	4801                	li	a6,0
    b37c:	fb15                	bnez	a4,b2b0 <__truncdfsf2+0x68>
    b37e:	00579713          	slli	a4,a5,0x5
    b382:	4685                	li	a3,1
    b384:	f40748e3          	bltz	a4,b2d4 <__truncdfsf2+0x8c>
    b388:	4681                	li	a3,0
    b38a:	b7a5                	j	b2f2 <__truncdfsf2+0xaa>
    b38c:	4681                	li	a3,0
    b38e:	b78d                	j	b2f0 <__truncdfsf2+0xa8>
    b390:	c8268693          	addi	a3,a3,-894
    b394:	00d89733          	sll	a4,a7,a3
    b398:	00e03733          	snez	a4,a4
    b39c:	00d616b3          	sll	a3,a2,a3
    b3a0:	00f8d8b3          	srl	a7,a7,a5
    b3a4:	00d767b3          	or	a5,a4,a3
    b3a8:	00f8e7b3          	or	a5,a7,a5
    b3ac:	b7e9                	j	b376 <__truncdfsf2+0x12e>
    b3ae:	86c2                	mv	a3,a6
    b3b0:	b789                	j	b2f2 <__truncdfsf2+0xaa>

0000b3b2 <__trunctfdf2>:
    b3b2:	00c52803          	lw	a6,12(a0)
    b3b6:	4118                	lw	a4,0(a0)
    b3b8:	4154                	lw	a3,4(a0)
    b3ba:	450c                	lw	a1,8(a0)
    b3bc:	6521                	lui	a0,0x8
    b3be:	fff50793          	addi	a5,a0,-1 # 7fff <__gethex+0x167>
    b3c2:	01085613          	srli	a2,a6,0x10
    b3c6:	00359e13          	slli	t3,a1,0x3
    b3ca:	8e7d                	and	a2,a2,a5
    b3cc:	01d75893          	srli	a7,a4,0x1d
    b3d0:	01d6d793          	srli	a5,a3,0x1d
    b3d4:	01081313          	slli	t1,a6,0x10
    b3d8:	068e                	slli	a3,a3,0x3
    b3da:	1141                	addi	sp,sp,-16
    b3dc:	01c7e7b3          	or	a5,a5,t3
    b3e0:	0116e6b3          	or	a3,a3,a7
    b3e4:	01035313          	srli	t1,t1,0x10
    b3e8:	00371e13          	slli	t3,a4,0x3
    b3ec:	00160893          	addi	a7,a2,1 # 800001 <_data_lma+0x7f0f1d>
    b3f0:	1579                	addi	a0,a0,-2
    b3f2:	81f5                	srli	a1,a1,0x1d
    b3f4:	030e                	slli	t1,t1,0x3
    b3f6:	c43e                	sw	a5,8(sp)
    b3f8:	c236                	sw	a3,4(sp)
    b3fa:	c072                	sw	t3,0(sp)
    b3fc:	00a8f533          	and	a0,a7,a0
    b400:	01f85813          	srli	a6,a6,0x1f
    b404:	0065e5b3          	or	a1,a1,t1
    b408:	c905                	beqz	a0,b438 <__trunctfdf2+0x86>
    b40a:	7771                	lui	a4,0xffffc
    b40c:	40070713          	addi	a4,a4,1024 # ffffc400 <__freertos_irq_stack_top+0xdffec400>
    b410:	963a                	add	a2,a2,a4
    b412:	7fe00713          	li	a4,2046
    b416:	04c75d63          	bge	a4,a2,b470 <__trunctfdf2+0xbe>
    b41a:	7ff00613          	li	a2,2047
    b41e:	4701                	li	a4,0
    b420:	4781                	li	a5,0
    b422:	0732                	slli	a4,a4,0xc
    b424:	0652                	slli	a2,a2,0x14
    b426:	8331                	srli	a4,a4,0xc
    b428:	087e                	slli	a6,a6,0x1f
    b42a:	8f51                	or	a4,a4,a2
    b42c:	01076733          	or	a4,a4,a6
    b430:	853e                	mv	a0,a5
    b432:	85ba                	mv	a1,a4
    b434:	0141                	addi	sp,sp,16
    b436:	8082                	ret
    b438:	8fd5                	or	a5,a5,a3
    b43a:	8fcd                	or	a5,a5,a1
    b43c:	01c7e7b3          	or	a5,a5,t3
    b440:	e205                	bnez	a2,b460 <__trunctfdf2+0xae>
    b442:	cbf1                	beqz	a5,b516 <__trunctfdf2+0x164>
    b444:	4781                	li	a5,0
    b446:	4695                	li	a3,5
    b448:	0036d593          	srli	a1,a3,0x3
    b44c:	00979713          	slli	a4,a5,0x9
    b450:	01d79693          	slli	a3,a5,0x1d
    b454:	00b6e7b3          	or	a5,a3,a1
    b458:	8331                	srli	a4,a4,0xc
    b45a:	7ff67613          	andi	a2,a2,2047
    b45e:	b7d1                	j	b422 <__trunctfdf2+0x70>
    b460:	dfcd                	beqz	a5,b41a <__trunctfdf2+0x68>
    b462:	4801                	li	a6,0
    b464:	7ff00613          	li	a2,2047
    b468:	00080737          	lui	a4,0x80
    b46c:	4781                	li	a5,0
    b46e:	bf55                	j	b422 <__trunctfdf2+0x70>
    b470:	0ac04663          	bgtz	a2,b51c <__trunctfdf2+0x16a>
    b474:	fcc00793          	li	a5,-52
    b478:	0ef64f63          	blt	a2,a5,b576 <__trunctfdf2+0x1c4>
    b47c:	03d00793          	li	a5,61
    b480:	40c78633          	sub	a2,a5,a2
    b484:	40565793          	srai	a5,a2,0x5
    b488:	00080737          	lui	a4,0x80
    b48c:	8dd9                	or	a1,a1,a4
    b48e:	00279513          	slli	a0,a5,0x2
    b492:	870a                	mv	a4,sp
    b494:	4681                	li	a3,0
    b496:	c62e                	sw	a1,12(sp)
    b498:	00a108b3          	add	a7,sp,a0
    b49c:	0711                	addi	a4,a4,4
    b49e:	8a7d                	andi	a2,a2,31
    b4a0:	01c6e6b3          	or	a3,a3,t3
    b4a4:	01170963          	beq	a4,a7,b4b6 <__trunctfdf2+0x104>
    b4a8:	00072e03          	lw	t3,0(a4) # 80000 <_data_lma+0x70f1c>
    b4ac:	0711                	addi	a4,a4,4
    b4ae:	01c6e6b3          	or	a3,a3,t3
    b4b2:	ff171be3          	bne	a4,a7,b4a8 <__trunctfdf2+0xf6>
    b4b6:	470d                	li	a4,3
    b4b8:	8f1d                	sub	a4,a4,a5
    b4ba:	ca79                	beqz	a2,b590 <__trunctfdf2+0x1de>
    b4bc:	01010893          	addi	a7,sp,16
    b4c0:	98aa                	add	a7,a7,a0
    b4c2:	ff08a883          	lw	a7,-16(a7)
    b4c6:	02000e13          	li	t3,32
    b4ca:	40ce0e33          	sub	t3,t3,a2
    b4ce:	01c898b3          	sll	a7,a7,t3
    b4d2:	0116e6b3          	or	a3,a3,a7
    b4d6:	cb75                	beqz	a4,b5ca <__trunctfdf2+0x218>
    b4d8:	070a                	slli	a4,a4,0x2
    b4da:	950a                	add	a0,a0,sp
    b4dc:	00e10eb3          	add	t4,sp,a4
    b4e0:	888a                	mv	a7,sp
    b4e2:	410c                	lw	a1,0(a0)
    b4e4:	00452303          	lw	t1,4(a0)
    b4e8:	0891                	addi	a7,a7,4
    b4ea:	00c5d5b3          	srl	a1,a1,a2
    b4ee:	01c31333          	sll	t1,t1,t3
    b4f2:	0065e5b3          	or	a1,a1,t1
    b4f6:	feb8ae23          	sw	a1,-4(a7)
    b4fa:	0511                	addi	a0,a0,4
    b4fc:	ff1e93e3          	bne	t4,a7,b4e2 <__trunctfdf2+0x130>
    b500:	4591                	li	a1,4
    b502:	40f587b3          	sub	a5,a1,a5
    b506:	45b2                	lw	a1,12(sp)
    b508:	0808                	addi	a0,sp,16
    b50a:	972a                	add	a4,a4,a0
    b50c:	00c5d5b3          	srl	a1,a1,a2
    b510:	feb72823          	sw	a1,-16(a4)
    b514:	a861                	j	b5ac <__trunctfdf2+0x1fa>
    b516:	4601                	li	a2,0
    b518:	4701                	li	a4,0
    b51a:	b721                	j	b422 <__trunctfdf2+0x70>
    b51c:	00469713          	slli	a4,a3,0x4
    b520:	00479513          	slli	a0,a5,0x4
    b524:	01c76733          	or	a4,a4,t3
    b528:	82f1                	srli	a3,a3,0x1c
    b52a:	83f1                	srli	a5,a5,0x1c
    b52c:	0592                	slli	a1,a1,0x4
    b52e:	00e03733          	snez	a4,a4
    b532:	8ec9                	or	a3,a3,a0
    b534:	8fcd                	or	a5,a5,a1
    b536:	8ed9                	or	a3,a3,a4
    b538:	0076f713          	andi	a4,a3,7
    b53c:	c711                	beqz	a4,b548 <__trunctfdf2+0x196>
    b53e:	00f6f713          	andi	a4,a3,15
    b542:	4591                	li	a1,4
    b544:	02b71c63          	bne	a4,a1,b57c <__trunctfdf2+0x1ca>
    b548:	00800737          	lui	a4,0x800
    b54c:	8f7d                	and	a4,a4,a5
    b54e:	ee070de3          	beqz	a4,b448 <__trunctfdf2+0x96>
    b552:	0605                	addi	a2,a2,1
    b554:	7ff00713          	li	a4,2047
    b558:	ece601e3          	beq	a2,a4,b41a <__trunctfdf2+0x68>
    b55c:	ff800737          	lui	a4,0xff800
    b560:	177d                	addi	a4,a4,-1
    b562:	8f7d                	and	a4,a4,a5
    b564:	01d71793          	slli	a5,a4,0x1d
    b568:	828d                	srli	a3,a3,0x3
    b56a:	0726                	slli	a4,a4,0x9
    b56c:	7ff67613          	andi	a2,a2,2047
    b570:	8fd5                	or	a5,a5,a3
    b572:	8331                	srli	a4,a4,0xc
    b574:	b57d                	j	b422 <__trunctfdf2+0x70>
    b576:	4685                	li	a3,1
    b578:	4781                	li	a5,0
    b57a:	4601                	li	a2,0
    b57c:	ffc6b713          	sltiu	a4,a3,-4
    b580:	00174713          	xori	a4,a4,1
    b584:	97ba                	add	a5,a5,a4
    b586:	00800737          	lui	a4,0x800
    b58a:	0691                	addi	a3,a3,4
    b58c:	8f7d                	and	a4,a4,a5
    b58e:	b7c1                	j	b54e <__trunctfdf2+0x19c>
    b590:	858a                	mv	a1,sp
    b592:	00a588b3          	add	a7,a1,a0
    b596:	0008a883          	lw	a7,0(a7)
    b59a:	0591                	addi	a1,a1,4
    b59c:	0605                	addi	a2,a2,1
    b59e:	ff15ae23          	sw	a7,-4(a1)
    b5a2:	fec758e3          	bge	a4,a2,b592 <__trunctfdf2+0x1e0>
    b5a6:	4711                	li	a4,4
    b5a8:	40f707b3          	sub	a5,a4,a5
    b5ac:	078a                	slli	a5,a5,0x2
    b5ae:	978a                	add	a5,a5,sp
    b5b0:	0818                	addi	a4,sp,16
    b5b2:	0007a023          	sw	zero,0(a5) # 400000 <_data_lma+0x3f0f1c>
    b5b6:	0791                	addi	a5,a5,4
    b5b8:	fee79de3          	bne	a5,a4,b5b2 <__trunctfdf2+0x200>
    b5bc:	4702                	lw	a4,0(sp)
    b5be:	00d036b3          	snez	a3,a3
    b5c2:	4792                	lw	a5,4(sp)
    b5c4:	8ed9                	or	a3,a3,a4
    b5c6:	4601                	li	a2,0
    b5c8:	bf85                	j	b538 <__trunctfdf2+0x186>
    b5ca:	4785                	li	a5,1
    b5cc:	4701                	li	a4,0
    b5ce:	bf2d                	j	b508 <__trunctfdf2+0x156>

0000b5d0 <__clzsi2>:
    b5d0:	67c1                	lui	a5,0x10
    b5d2:	02f57c63          	bgeu	a0,a5,b60a <__clzsi2+0x3a>
    b5d6:	0ff00793          	li	a5,255
    b5da:	02000713          	li	a4,32
    b5de:	00a7eb63          	bltu	a5,a0,b5f4 <__clzsi2+0x24>
    b5e2:	00004797          	auipc	a5,0x4
    b5e6:	a0278793          	addi	a5,a5,-1534 # efe4 <__clz_tab>
    b5ea:	97aa                	add	a5,a5,a0
    b5ec:	2388                	lbu	a0,0(a5)
    b5ee:	40a70533          	sub	a0,a4,a0
    b5f2:	8082                	ret
    b5f4:	8121                	srli	a0,a0,0x8
    b5f6:	00004797          	auipc	a5,0x4
    b5fa:	9ee78793          	addi	a5,a5,-1554 # efe4 <__clz_tab>
    b5fe:	97aa                	add	a5,a5,a0
    b600:	2388                	lbu	a0,0(a5)
    b602:	4761                	li	a4,24
    b604:	40a70533          	sub	a0,a4,a0
    b608:	8082                	ret
    b60a:	010007b7          	lui	a5,0x1000
    b60e:	00f56d63          	bltu	a0,a5,b628 <__clzsi2+0x58>
    b612:	8161                	srli	a0,a0,0x18
    b614:	00004797          	auipc	a5,0x4
    b618:	9d078793          	addi	a5,a5,-1584 # efe4 <__clz_tab>
    b61c:	97aa                	add	a5,a5,a0
    b61e:	2388                	lbu	a0,0(a5)
    b620:	4721                	li	a4,8
    b622:	40a70533          	sub	a0,a4,a0
    b626:	8082                	ret
    b628:	8141                	srli	a0,a0,0x10
    b62a:	00004797          	auipc	a5,0x4
    b62e:	9ba78793          	addi	a5,a5,-1606 # efe4 <__clz_tab>
    b632:	97aa                	add	a5,a5,a0
    b634:	2388                	lbu	a0,0(a5)
    b636:	4741                	li	a4,16
    b638:	40a70533          	sub	a0,a4,a0
    b63c:	8082                	ret

0000b63e <_close>:
    b63e:	05800793          	li	a5,88
    b642:	1fff8717          	auipc	a4,0x1fff8
    b646:	e8f72723          	sw	a5,-370(a4) # 200034d0 <errno>
    b64a:	557d                	li	a0,-1
    b64c:	8082                	ret

0000b64e <_fstat>:
    b64e:	05800793          	li	a5,88
    b652:	1fff8717          	auipc	a4,0x1fff8
    b656:	e6f72f23          	sw	a5,-386(a4) # 200034d0 <errno>
    b65a:	557d                	li	a0,-1
    b65c:	8082                	ret

0000b65e <_isatty>:
    b65e:	05800793          	li	a5,88
    b662:	1fff8717          	auipc	a4,0x1fff8
    b666:	e6f72723          	sw	a5,-402(a4) # 200034d0 <errno>
    b66a:	4501                	li	a0,0
    b66c:	8082                	ret

0000b66e <_lseek>:
    b66e:	05800793          	li	a5,88
    b672:	1fff8717          	auipc	a4,0x1fff8
    b676:	e4f72f23          	sw	a5,-418(a4) # 200034d0 <errno>
    b67a:	557d                	li	a0,-1
    b67c:	8082                	ret

0000b67e <_read>:
    b67e:	05800793          	li	a5,88
    b682:	1fff8717          	auipc	a4,0x1fff8
    b686:	e4f72723          	sw	a5,-434(a4) # 200034d0 <errno>
    b68a:	557d                	li	a0,-1
    b68c:	8082                	ret

0000b68e <_sbrk>:
    b68e:	1fff5797          	auipc	a5,0x1fff5
    b692:	c1678793          	addi	a5,a5,-1002 # 200002a4 <heap_end.1518>
    b696:	439c                	lw	a5,0(a5)
    b698:	cb81                	beqz	a5,b6a8 <_sbrk+0x1a>
    b69a:	953e                	add	a0,a0,a5
    b69c:	1fff5717          	auipc	a4,0x1fff5
    b6a0:	c0a72423          	sw	a0,-1016(a4) # 200002a4 <heap_end.1518>
    b6a4:	853e                	mv	a0,a5
    b6a6:	8082                	ret
    b6a8:	1fff8797          	auipc	a5,0x1fff8
    b6ac:	e2c78793          	addi	a5,a5,-468 # 200034d4 <_ebss>
    b6b0:	953e                	add	a0,a0,a5
    b6b2:	1fff5717          	auipc	a4,0x1fff5
    b6b6:	bea72923          	sw	a0,-1038(a4) # 200002a4 <heap_end.1518>
    b6ba:	853e                	mv	a0,a5
    b6bc:	8082                	ret
    b6be:	0000                	unimp
    b6c0:	a8e6                	sh	s1,22(s1)
    b6c2:	e5a1                	bnez	a1,b70a <_sbrk+0x7c>
    b6c4:	979d                	srai	a5,a5,0x27
    b6c6:	88e5                	andi	s1,s1,25
    b6c8:	e59d                	bnez	a1,b6f6 <_sbrk+0x68>
    b6ca:	8ce58ba7          	0x8ce58ba7
    b6ce:	0d96                	slli	s11,s11,0x5
    b6d0:	0000                	unimp
    b6d2:	0000                	unimp
    b6d4:	5441                	li	s0,-16
    b6d6:	000d                	c.nop	3
    b6d8:	5441                	li	s0,-16
    b6da:	0d49                	addi	s10,s10,18
    b6dc:	0000                	unimp
    b6de:	0000                	unimp
    b6e0:	6946                	flw	fs2,80(sp)
    b6e2:	6f62                	flw	ft10,24(sp)
    b6e4:	006d6f63          	bltu	s10,t1,b702 <_sbrk+0x74>
    b6e8:	9fe6                	add	t6,t6,s9
    b6ea:	e8a5                	bnez	s1,b75a <_sbrk+0xcc>
    b6ec:	bfe4a2af          	0xbfe4a2af
    b6f0:	e6a1                	bnez	a3,b738 <_sbrk+0xaa>
    b6f2:	af81                	j	be42 <asc2_1206+0x22e>
    b6f4:	a4e5                	j	b9dc <_sbrk+0x34e>
    b6f6:	e8b1                	bnez	s1,b74a <_sbrk+0xbc>
    b6f8:	a5b4                	sb	a3,10(a1)
    b6fa:	0000                	unimp
    b6fc:	e68889e7          	jalr	s3,-408(a7)
    b700:	ac9c                	sb	a5,24(s1)
    b702:	bfe4                	sb	s1,31(a5)
    b704:	e6a1                	bnez	a3,b74c <_sbrk+0xbe>
    b706:	af81                	j	be56 <asc2_1206+0x242>
    b708:	ade6                	sh	s1,30(a1)
    b70a:	aea1e7a3          	0xaea1e7a3
    b70e:	0000                	unimp
    b710:	5441                	li	s0,-16
    b712:	5247432b          	0x5247432b
    b716:	4745                	li	a4,17
    b718:	00000d3f 5247432b 	0x5247432b00000d3f
    b720:	4745                	li	a4,17
    b722:	203a                	lhu	a4,2(s0)
    b724:	2c30                	lbu	a2,26(s0)
    b726:	0031                	c.nop	12
    b728:	5350                	lw	a2,36(a4)
    b72a:	b3e6                	sh	s1,38(a5)
    b72c:	e5a8                	fsw	fa0,72(a1)
    b72e:	8c86                	mv	s9,ra
    b730:	97e6                	add	a5,a5,s9
    b732:	e6a0                	fsw	fs0,72(a3)
    b734:	8895                	andi	s1,s1,5
    b736:	0000                	unimp
    b738:	5350                	lw	a2,36(a4)
    b73a:	b3e6                	sh	s1,38(a5)
    b73c:	e5a8                	fsw	fa0,72(a1)
    b73e:	8c86                	mv	s9,ra
    b740:	9ce6                	add	s9,s9,s9
    b742:	e689                	bnez	a3,b74c <_sbrk+0xbe>
    b744:	8895                	andi	s1,s1,5
    b746:	0000                	unimp
    b748:	5441                	li	s0,-16
    b74a:	4d43542b          	0x4d43542b
    b74e:	5451                	li	s0,-12
    b750:	5054                	lw	a3,36(s0)
    b752:	4255                	li	tp,21
    b754:	223d                	jal	b882 <_sbrk+0x1f4>
    b756:	7424                	flw	fs1,104(s0)
    b758:	6968                	flw	fa0,84(a0)
    b75a:	676e                	flw	fa4,216(sp)
    b75c:	2f70752f          	0x2f70752f
    b760:	7270                	flw	fa2,100(a2)
    b762:	7265706f          	j	62e88 <_data_lma+0x53da4>
    b766:	7974                	flw	fa3,116(a0)
    b768:	4a325a2f          	0x4a325a2f
    b76c:	4f35434b          	fnmsub.q	ft6,fa0,fs3,fs1,rmm
    b770:	434c                	lw	a1,4(a4)
    b772:	6d732f37          	lui	t5,0x6d732
    b776:	7261                	lui	tp,0xffff8
    b778:	4374                	lw	a3,68(a4)
    b77a:	7261                	lui	tp,0xffff8
    b77c:	2274                	lbu	a3,6(a2)
    b77e:	312c                	lbu	a1,3(a0)
    b780:	222c                	lbu	a1,2(a2)
    b782:	6d225c7b          	0x6d225c7b
    b786:	7465                	lui	s0,0xffff9
    b788:	6f68                	flw	fa0,92(a4)
    b78a:	5c64                	lw	s1,124(s0)
    b78c:	3a22                	lhu	s0,50(a2)
    b78e:	225c                	lbu	a5,4(a2)
    b790:	6572                	flw	fa0,28(sp)
    b792:	6f70                	flw	fa2,92(a4)
    b794:	7472                	flw	fs0,60(sp)
    b796:	225c                	lbu	a5,4(a2)
    b798:	5c2c                	lw	a1,120(s0)
    b79a:	6322                	flw	ft6,8(sp)
    b79c:	696c                	flw	fa1,84(a0)
    b79e:	6e65                	lui	t3,0x19
    b7a0:	5474                	lw	a3,108(s0)
    b7a2:	6e656b6f          	jal	s6,61e88 <_data_lma+0x52da4>
    b7a6:	225c                	lbu	a5,4(a2)
    b7a8:	5c3a                	lw	s8,172(sp)
    b7aa:	3122                	lhu	s0,34(a0)
    b7ac:	3332                	lhu	a2,34(a4)
    b7ae:	225c                	lbu	a5,4(a2)
    b7b0:	5c2c                	lw	a1,120(s0)
    b7b2:	7022                	flw	ft0,40(sp)
    b7b4:	7261                	lui	tp,0xffff8
    b7b6:	6d61                	lui	s10,0x18
    b7b8:	3a225c73          	csrrwi	s8,pmpcfg2,4
    b7bc:	70225c7b          	0x70225c7b
    b7c0:	6f72                	flw	ft10,28(sp)
    b7c2:	7564                	flw	fs1,108(a0)
    b7c4:	44497463          	bgeu	s2,tp,bc0c <_sbrk+0x57e>
    b7c8:	225c                	lbu	a5,4(a2)
    b7ca:	5c3a                	lw	s8,172(sp)
    b7cc:	2522                	lhu	s0,10(a0)
    b7ce:	2c225c73          	csrrwi	s8,0x2c2,4
    b7d2:	225c                	lbu	a5,4(a2)
    b7d4:	6441                	lui	s0,0x10
    b7d6:	6f64                	flw	fs1,92(a4)
    b7d8:	4472                	lw	s0,28(sp)
    b7da:	6c65                	lui	s8,0x19
    b7dc:	7465                	lui	s0,0xffff9
    b7de:	5c65                	li	s8,-7
    b7e0:	3a22                	lhu	s0,50(a2)
    b7e2:	225c                	lbu	a5,4(a2)
    b7e4:	7325                	lui	t1,0xfffe9
    b7e6:	225c                	lbu	a5,4(a2)
    b7e8:	7d7d                	lui	s10,0xfffff
    b7ea:	0d22                	slli	s10,s10,0x8
    b7ec:	000a                	c.slli	zero,0x2
    b7ee:	0000                	unimp
    b7f0:	614e                	flw	ft2,208(sp)
    b7f2:	656d                	lui	a0,0x1b
    b7f4:	0000                	unimp
    b7f6:	0000                	unimp
    b7f8:	7270                	flw	fa2,100(a2)
    b7fa:	6375646f          	jal	s0,62630 <_data_lma+0x5354c>
    b7fe:	4e74                	lw	a3,92(a2)
    b800:	6d61                	lui	s10,0x18
    b802:	3d65                	jal	b6ba <_sbrk+0x2c>
    b804:	7325                	lui	t1,0xfffe9
    b806:	000a                	c.slli	zero,0x2
    b808:	4449                	li	s0,18
    b80a:	0000                	unimp
    b80c:	7270                	flw	fa2,100(a2)
    b80e:	6375646f          	jal	s0,62644 <_data_lma+0x53560>
    b812:	4974                	lw	a3,84(a0)
    b814:	3d44                	lbu	s1,29(a0)
    b816:	7325                	lui	t1,0xfffe9
    b818:	000a                	c.slli	zero,0x2
    b81a:	0000                	unimp
    b81c:	7250                	flw	fa2,36(a2)
    b81e:	6369                	lui	t1,0x1a
    b820:	0065                	c.nop	25
    b822:	0000                	unimp
    b824:	7270                	flw	fa2,100(a2)
    b826:	6375646f          	jal	s0,6265c <_data_lma+0x53578>
    b82a:	5074                	lw	a3,100(s0)
    b82c:	6972                	flw	fs2,28(sp)
    b82e:	74536563          	bltu	t1,t0,bf78 <asc2_1206+0x364>
    b832:	3d72                	lhu	a2,62(a0)
    b834:	7325                	lui	t1,0xfffe9
    b836:	000a                	c.slli	zero,0x2
    b838:	67696557          	0x67696557
    b83c:	7468                	flw	fa0,108(s0)
    b83e:	0000                	unimp
    b840:	7270                	flw	fa2,100(a2)
    b842:	6375646f          	jal	s0,62678 <_data_lma+0x53594>
    b846:	5774                	lw	a3,108(a4)
    b848:	6965                	lui	s2,0x19
    b84a:	53746867          	0x53746867
    b84e:	7274                	flw	fa3,100(a2)
    b850:	253d                	jal	be7e <asc2_1206+0x26a>
    b852:	00000a73          	0xa73
    b856:	0000                	unimp
    b858:	5441                	li	s0,-16
    b85a:	50494d2b          	0x50494d2b
    b85e:	4c4c4143          	0x4c4c4143
    b862:	00000d3f 4d2b0000 	0x4d2b000000000d3f
    b86a:	5049                	c.li	zero,-14
    b86c:	4c4c4143          	0x4c4c4143
    b870:	203a                	lhu	a4,2(s0)
    b872:	0031                	c.nop	12
    b874:	bfe8                	sb	a0,31(a5)
    b876:	e698                	fsw	fa4,8(a3)
    b878:	aa9c                	sb	a5,16(a3)
    b87a:	8ee8                	0x8ee8
    b87c:	968fe5b7          	lui	a1,0x968fe
    b880:	88e5                	andi	s1,s1,25
    b882:	49b0                	lw	a2,80(a1)
    b884:	0050                	addi	a2,sp,4
    b886:	0000                	unimp
    b888:	5441                	li	s0,-16
    b88a:	50494d2b          	0x50494d2b
    b88e:	4c4c4143          	0x4c4c4143
    b892:	313d                	jal	b4c0 <__trunctfdf2+0x10e>
    b894:	000d                	c.nop	3
    b896:	0000                	unimp
    b898:	8ee8                	0x8ee8
    b89a:	968fe5b7          	lui	a1,0x968fe
    b89e:	5049                	c.li	zero,-14
    b8a0:	88e6                	mv	a7,s9
    b8a2:	e590                	fsw	fa2,8(a1)
    b8a4:	9f8a                	add	t6,t6,sp
    b8a6:	0000                	unimp
    b8a8:	5441                	li	s0,-16
    b8aa:	4443542b          	0x4443542b
    b8ae:	5645                	li	a2,-15
    b8b0:	4e49                	li	t3,18
    b8b2:	4f46                	lw	t5,80(sp)
    b8b4:	3d544553          	0x3d544553
    b8b8:	2c31                	jal	bad4 <_sbrk+0x446>
    b8ba:	5a22                	lw	s4,40(sp)
    b8bc:	4a32                	lw	s4,12(sp)
    b8be:	4f35434b          	fnmsub.q	ft6,fa0,fs3,fs1,rmm
    b8c2:	434c                	lw	a1,4(a4)
    b8c4:	222c2237          	lui	tp,0x222c2
    b8c8:	72616d73          	csrrsi	s10,0x726,2
    b8cc:	4374                	lw	a3,68(a4)
    b8ce:	7261                	lui	tp,0xffff8
    b8d0:	2274                	lbu	a3,6(a2)
    b8d2:	222c                	lbu	a1,2(a2)
    b8d4:	7668                	flw	fa0,108(a2)
    b8d6:	7452                	flw	fs0,52(sp)
    b8d8:	3552                	lhu	a2,44(a0)
    b8da:	50657053          	0x50657053
    b8de:	7768                	flw	fa0,108(a4)
    b8e0:	7144                	flw	fs1,36(a0)
    b8e2:	354c                	lbu	a1,13(a0)
    b8e4:	576e                	lw	a4,248(sp)
    b8e6:	5244                	lw	s1,36(a2)
    b8e8:	5132                	lw	sp,44(sp)
    b8ea:	3d3d                	jal	b728 <_sbrk+0x9a>
    b8ec:	0d22                	slli	s10,s10,0x8
    b8ee:	0000                	unimp
    b8f0:	4443542b          	0x4443542b
    b8f4:	5645                	li	a2,-15
    b8f6:	4e49                	li	t3,18
    b8f8:	4f46                	lw	t5,80(sp)
    b8fa:	3a544553          	0x3a544553
    b8fe:	4f20                	lw	s0,88(a4)
    b900:	0000004b          	fnmsub.s	ft0,ft0,ft0,ft0,rne
    b904:	b9e5                	j	b5fc <__clzsi2+0x2c>
    b906:	b08fe5b3          	0xb08fe5b3
    b90a:	bfe4                	sb	s1,31(a5)
    b90c:	e6a1                	bnez	a3,b954 <_sbrk+0x2c6>
    b90e:	af81                	j	c05e <asc2_1206+0x44a>
    b910:	aee8                	sb	a0,30(a3)
    b912:	e7be                	fsw	fa5,204(sp)
    b914:	aebd                	j	bc92 <asc2_1206+0x7e>
    b916:	a4e5                	j	bbfe <_sbrk+0x570>
    b918:	e8b1                	bnez	s1,b96c <_sbrk+0x2de>
    b91a:	a5b4                	sb	a3,10(a1)
    b91c:	0000                	unimp
    b91e:	0000                	unimp
    b920:	b9e5                	j	b618 <__clzsi2+0x48>
    b922:	b08fe5b3          	0xb08fe5b3
    b926:	bfe4                	sb	s1,31(a5)
    b928:	e6a1                	bnez	a3,b970 <_sbrk+0x2e2>
    b92a:	af81                	j	c07a <asc2_1206+0x466>
    b92c:	aee8                	sb	a0,30(a3)
    b92e:	e7be                	fsw	fa5,204(sp)
    b930:	aebd                	j	bcae <asc2_1206+0x9a>
    b932:	88e6                	mv	a7,s9
    b934:	e590                	fsw	fa2,8(a1)
    b936:	9f8a                	add	t6,t6,sp
    b938:	0000                	unimp
    b93a:	0000                	unimp
    b93c:	5441                	li	s0,-16
    b93e:	4d43542b          	0x4d43542b
    b942:	5451                	li	s0,-12
    b944:	4354                	lw	a3,4(a4)
    b946:	3d4e4e4f          	0x3d4e4e4f
    b94a:	2c31                	jal	bb66 <_sbrk+0x4d8>
    b94c:	3032                	lhu	a2,34(s0)
    b94e:	3030                	lbu	a2,3(s0)
    b950:	2c30                	lbu	a2,26(s0)
    b952:	3432                	lhu	a2,42(s0)
    b954:	2c30                	lbu	a2,26(s0)
    b956:	2c31                	jal	bb72 <_sbrk+0x4e4>
    b958:	0d31                	addi	s10,s10,12
    b95a:	0000                	unimp
    b95c:	4d43542b          	0x4d43542b
    b960:	5451                	li	s0,-12
    b962:	4354                	lw	a3,4(a4)
    b964:	3a4e4e4f          	fnmadd.d	ft8,ft8,ft4,ft7,rmm
    b968:	4f20                	lw	s0,88(a4)
    b96a:	432b004b          	fnmsub.d	ft0,fs6,fs2,fs0,rne
    b96e:	454d                	li	a0,19
    b970:	4520                	lw	s0,72(a0)
    b972:	5252                	lw	tp,52(sp)
    b974:	203a524f          	fnmadd.s	ft4,fs4,ft3,ft4,unknown
    b978:	0034                	addi	a3,sp,8
    b97a:	0000                	unimp
    b97c:	bfe8                	sb	a0,31(a5)
    b97e:	e69e                	fsw	ft7,76(sp)
    b980:	a58e                	sh	a1,8(a1)
    b982:	88e6                	mv	a7,s9
    b984:	e590                	fsw	fa2,8(a1)
    b986:	9f8a                	add	t6,t6,sp
    b988:	0000                	unimp
    b98a:	0000                	unimp
    b98c:	bfe8                	sb	a0,31(a5)
    b98e:	e69e                	fsw	ft7,76(sp)
    b990:	a58e                	sh	a1,8(a1)
    b992:	a4e5                	j	bc7a <asc2_1206+0x66>
    b994:	e8b1                	bnez	s1,b9e8 <_sbrk+0x35a>
    b996:	a5b4                	sb	a3,10(a1)
    b998:	0000                	unimp
    b99a:	0000                	unimp
    b99c:	5441                	li	s0,-16
    b99e:	4d43542b          	0x4d43542b
    b9a2:	5451                	li	s0,-12
    b9a4:	5354                	lw	a3,36(a4)
    b9a6:	4255                	li	tp,21
    b9a8:	223d                	jal	bad6 <_sbrk+0x448>
    b9aa:	7424                	flw	fs1,104(s0)
    b9ac:	6968                	flw	fa0,84(a0)
    b9ae:	676e                	flw	fa4,216(sp)
    b9b0:	776f642f          	0x776f642f
    b9b4:	2f6e                	lhu	a1,30(a4)
    b9b6:	7270                	flw	fa2,100(a2)
    b9b8:	7265706f          	j	630de <_data_lma+0x53ffa>
    b9bc:	7974                	flw	fa3,116(a0)
    b9be:	4a325a2f          	0x4a325a2f
    b9c2:	4f35434b          	fnmsub.q	ft6,fa0,fs3,fs1,rmm
    b9c6:	434c                	lw	a1,4(a4)
    b9c8:	6d732f37          	lui	t5,0x6d732
    b9cc:	7261                	lui	tp,0xffff8
    b9ce:	4374                	lw	a3,68(a4)
    b9d0:	7261                	lui	tp,0xffff8
    b9d2:	2274                	lbu	a3,6(a2)
    b9d4:	312c                	lbu	a1,3(a0)
    b9d6:	000d                	c.nop	3
    b9d8:	4d43542b          	0x4d43542b
    b9dc:	5451                	li	s0,-12
    b9de:	5354                	lw	a3,36(a4)
    b9e0:	4255                	li	tp,21
    b9e2:	203a                	lhu	a4,2(s0)
    b9e4:	00004b4f          	fnmadd.s	fs6,ft0,ft0,ft0,rmm
    b9e8:	aee8                	sb	a0,30(a3)
    b9ea:	e9a2                	fsw	fs0,208(sp)
    b9ec:	8598                	lbu	a4,11(sp)
    b9ee:	a0e6                	sh	s1,6(s1)
    b9f0:	beade787          	0xbeade787
    b9f4:	a4e5                	j	bcdc <asc2_1206+0xc8>
    b9f6:	e8b1                	bnez	s1,ba4a <_sbrk+0x3bc>
    b9f8:	a5b4                	sb	a3,10(a1)
    b9fa:	0000                	unimp
    b9fc:	aee8                	sb	a0,30(a3)
    b9fe:	e9a2                	fsw	fs0,208(sp)
    ba00:	8598                	lbu	a4,11(sp)
    ba02:	a0e6                	sh	s1,6(s1)
    ba04:	beade787          	0xbeade787
    ba08:	88e6                	mv	a7,s9
    ba0a:	e590                	fsw	fa2,8(a1)
    ba0c:	9f8a                	add	t6,t6,sp
    ba0e:	0000                	unimp
    ba10:	72617473          	csrrci	s0,0x726,2
    ba14:	5f74                	lw	a3,124(a4)
    ba16:	6174                	flw	fa3,68(a0)
    ba18:	00006b73          	csrrsi	s6,ustatus,0
    ba1c:	6174                	flw	fa3,68(a0)
    ba1e:	00316b73          	csrrsi	s6,fcsr,2
    ba22:	0000                	unimp
    ba24:	5376                	lw	t1,124(sp)
    ba26:	7265                	lui	tp,0xffff9
    ba28:	6169                	addi	sp,sp,208
    ba2a:	546c                	lw	a1,108(s0)
    ba2c:	7361                	lui	t1,0xffff8
    ba2e:	4c76006b          	0x4c76006b
    ba32:	756b6f6f          	jal	t5,c2188 <_data_lma+0xb30a4>
    ba36:	5470                	lw	a2,108(s0)
    ba38:	7361                	lui	t1,0xffff8
    ba3a:	6564006b          	0x6564006b
    ba3e:	656c                	flw	fa1,76(a0)
    ba40:	6574                	flw	fa3,76(a0)
    ba42:	0000                	unimp
    ba44:	7061                	c.lui	zero,0xffff8
    ba46:	6c70                	flw	fa2,92(s0)
    ba48:	0065                	c.nop	25
    ba4a:	0000                	unimp
    ba4c:	52414d53          	0x52414d53
    ba50:	2054                	lbu	a3,4(s0)
    ba52:	504f4853          	0x504f4853
    ba56:	4950                	lw	a2,20(a0)
    ba58:	474e                	lw	a4,208(sp)
    ba5a:	54524143          	0x54524143
    ba5e:	0000                	unimp
    ba60:	3a41                	jal	b3f0 <__trunctfdf2+0x3e>
    ba62:	6441                	lui	s0,0x10
    ba64:	0064                	addi	s1,sp,12
    ba66:	0000                	unimp
    ba68:	3a42                	lhu	s0,52(a2)
    ba6a:	6544                	flw	fs1,12(a0)
    ba6c:	656c                	flw	fa1,76(a0)
    ba6e:	6574                	flw	fa3,76(a0)
    ba70:	0000                	unimp
    ba72:	0000                	unimp
    ba74:	64413a43          	0x64413a43
    ba78:	0064                	addi	s1,sp,12
    ba7a:	0000                	unimp
    ba7c:	7246                	flw	ft4,112(sp)
    ba7e:	6975                	lui	s2,0x1d
    ba80:	0074                	addi	a3,sp,12
    ba82:	0000                	unimp
    ba84:	3a44                	lbu	s1,21(a2)
    ba86:	6544                	flw	fs1,12(a0)
    ba88:	656c                	flw	fa1,76(a0)
    ba8a:	6574                	flw	fa3,76(a0)
    ba8c:	0000                	unimp
    ba8e:	0000                	unimp
    ba90:	3a45                	jal	b440 <__trunctfdf2+0x8e>
    ba92:	6142                	flw	ft2,16(sp)
    ba94:	00006b63          	bltu	zero,zero,baaa <_sbrk+0x41c>
    ba98:	3a46                	lhu	s1,52(a2)
    ba9a:	6150                	flw	fa2,4(a0)
    ba9c:	0079                	c.nop	30
    ba9e:	0000                	unimp
    baa0:	3a46                	lhu	s1,52(a2)
    baa2:	616d532f          	0x616d532f
    baa6:	7472                	flw	fs0,60(sp)
    baa8:	74726143          	0x74726143
    baac:	5452                	lw	s0,52(sp)
    baae:	4d2f534f          	0x4d2f534f
    bab2:	6469                	lui	s0,0x1a
    bab4:	6c64                	flw	fs1,92(s0)
    bab6:	7765                	lui	a4,0xffff9
    bab8:	7261                	lui	tp,0xffff8
    baba:	7365                	lui	t1,0xffff9
    babc:	6572462f          	0x6572462f
    bac0:	5265                	li	tp,-7
    bac2:	4f54                	lw	a3,28(a4)
    bac4:	6f702f53          	0x6f702f53
    bac8:	7472                	flw	fs0,60(sp)
    baca:	6261                	lui	tp,0x18
    bacc:	656c                	flw	fa1,76(a0)
    bace:	6d654d2f          	0x6d654d2f
    bad2:	614d                	addi	sp,sp,176
    bad4:	676e                	flw	fa4,216(sp)
    bad6:	6165682f          	0x6165682f
    bada:	5f70                	lw	a2,124(a4)
    badc:	2e34                	lbu	a3,26(a2)
    bade:	72650063          	beq	a0,t1,c1fe <asc2_1608+0x176>
    bae2:	2072                	lhu	a2,6(s0)
    bae4:	7461                	lui	s0,0xffff8
    bae6:	6c20                	flw	fs0,88(s0)
    bae8:	6e69                	lui	t3,0x1a
    baea:	2065                	jal	bb92 <_sbrk+0x504>
    baec:	6425                	lui	s0,0x9
    baee:	6f20                	flw	fs0,88(a4)
    baf0:	2066                	lhu	s1,6(s0)
    baf2:	6966                	flw	fs2,88(sp)
    baf4:	656c                	flw	fa1,76(a0)
    baf6:	2220                	lbu	s0,2(a2)
    baf8:	7325                	lui	t1,0xfffe9
    bafa:	2e22                	lhu	s0,26(a2)
    bafc:	0d20                	addi	s0,sp,664
    bafe:	200a                	lhu	a0,0(s0)
    bb00:	0000                	unimp
    bb02:	0000                	unimp
    bb04:	3a46                	lhu	s1,52(a2)
    bb06:	616d532f          	0x616d532f
    bb0a:	7472                	flw	fs0,60(sp)
    bb0c:	74726143          	0x74726143
    bb10:	5452                	lw	s0,52(sp)
    bb12:	4d2f534f          	0x4d2f534f
    bb16:	6469                	lui	s0,0x1a
    bb18:	6c64                	flw	fs1,92(s0)
    bb1a:	7765                	lui	a4,0xffff9
    bb1c:	7261                	lui	tp,0xffff8
    bb1e:	7365                	lui	t1,0xffff9
    bb20:	6572462f          	0x6572462f
    bb24:	5265                	li	tp,-7
    bb26:	4f54                	lw	a3,28(a4)
    bb28:	6f702f53          	0x6f702f53
    bb2c:	7472                	flw	fs0,60(sp)
    bb2e:	6261                	lui	tp,0x18
    bb30:	656c                	flw	fa1,76(a0)
    bb32:	4343472f          	0x4343472f
    bb36:	5349522f          	0x5349522f
    bb3a:	2f562d43          	fmadd.q	fs10,fa2,fs5,ft5,rdn
    bb3e:	6f70                	flw	fa2,92(a4)
    bb40:	7472                	flw	fs0,60(sp)
    bb42:	632e                	flw	ft6,200(sp)
    bb44:	0000                	unimp
    bb46:	0000                	unimp
    bb48:	3a46                	lhu	s1,52(a2)
    bb4a:	616d532f          	0x616d532f
    bb4e:	7472                	flw	fs0,60(sp)
    bb50:	74726143          	0x74726143
    bb54:	5452                	lw	s0,52(sp)
    bb56:	4d2f534f          	0x4d2f534f
    bb5a:	6469                	lui	s0,0x1a
    bb5c:	6c64                	flw	fs1,92(s0)
    bb5e:	7765                	lui	a4,0xffff9
    bb60:	7261                	lui	tp,0xffff8
    bb62:	7365                	lui	t1,0xffff9
    bb64:	6572462f          	0x6572462f
    bb68:	5265                	li	tp,-7
    bb6a:	4f54                	lw	a3,28(a4)
    bb6c:	75712f53          	0x75712f53
    bb70:	7565                	lui	a0,0xffff9
    bb72:	2e65                	jal	bf2a <asc2_1206+0x316>
    bb74:	00000063          	beqz	zero,bb74 <_sbrk+0x4e6>
    bb78:	3a46                	lhu	s1,52(a2)
    bb7a:	616d532f          	0x616d532f
    bb7e:	7472                	flw	fs0,60(sp)
    bb80:	74726143          	0x74726143
    bb84:	5452                	lw	s0,52(sp)
    bb86:	4d2f534f          	0x4d2f534f
    bb8a:	6469                	lui	s0,0x1a
    bb8c:	6c64                	flw	fs1,92(s0)
    bb8e:	7765                	lui	a4,0xffff9
    bb90:	7261                	lui	tp,0xffff8
    bb92:	7365                	lui	t1,0xffff9
    bb94:	6572462f          	0x6572462f
    bb98:	5265                	li	tp,-7
    bb9a:	4f54                	lw	a3,28(a4)
    bb9c:	61742f53          	0x61742f53
    bba0:	2e736b73          	csrrsi	s6,0x2e7,6
    bba4:	00000063          	beqz	zero,bba4 <_sbrk+0x516>
    bba8:	4449                	li	s0,18
    bbaa:	454c                	lw	a1,12(a0)
    bbac:	0000                	unimp
    bbae:	0000                	unimp
    bbb0:	28d6                	lhu	a3,20(s1)
    bbb2:	0000                	unimp
    bbb4:	28d6                	lhu	a3,20(s1)
    bbb6:	0000                	unimp
    bbb8:	291a                	lhu	a4,16(a0)
    bbba:	0000                	unimp
    bbbc:	2926                	lhu	s1,18(a0)
    bbbe:	0000                	unimp
    bbc0:	296a                	lhu	a0,22(a0)
    bbc2:	0000                	unimp
    bbc4:	28d6                	lhu	a3,20(s1)
    bbc6:	0000                	unimp
    bbc8:	28d6                	lhu	a3,20(s1)
    bbca:	0000                	unimp
    bbcc:	291a                	lhu	a4,16(a0)
    bbce:	0000                	unimp
    bbd0:	2926                	lhu	s1,18(a0)
    bbd2:	0000                	unimp
    bbd4:	6d54                	flw	fa3,28(a0)
    bbd6:	5172                	lw	sp,60(sp)
    bbd8:	0000                	unimp
    bbda:	0000                	unimp
    bbdc:	3a46                	lhu	s1,52(a2)
    bbde:	616d532f          	0x616d532f
    bbe2:	7472                	flw	fs0,60(sp)
    bbe4:	74726143          	0x74726143
    bbe8:	5452                	lw	s0,52(sp)
    bbea:	4d2f534f          	0x4d2f534f
    bbee:	6469                	lui	s0,0x1a
    bbf0:	6c64                	flw	fs1,92(s0)
    bbf2:	7765                	lui	a4,0xffff9
    bbf4:	7261                	lui	tp,0xffff8
    bbf6:	7365                	lui	t1,0xffff9
    bbf8:	6572462f          	0x6572462f
    bbfc:	5265                	li	tp,-7
    bbfe:	4f54                	lw	a3,28(a4)
    bc00:	69742f53          	0x69742f53
    bc04:	656d                	lui	a0,0x1b
    bc06:	7372                	flw	ft6,60(sp)
    bc08:	632e                	flw	ft6,200(sp)
    bc0a:	0000                	unimp
    bc0c:	6d54                	flw	fa3,28(a0)
    bc0e:	2072                	lhu	a2,6(s0)
    bc10:	00637653          	fadd.s	fa2,ft6,ft6

0000bc14 <asc2_1206>:
	...
    bc24:	0000403f 00000000 00300000 00300040     ?@........0.@.0.
    bc34:	00000040 c00b0009 c00b003d 0009003d     @.......=...=...
    bc44:	4024c018 4022e07f 00008031 c0240018     ..$@.."@1.....$.
    bc54:	800d001b 80014032 401c8003 801c4027     ....2@.....@'@..
    bc64:	40004007 00600010 00000000 00000000     .@.@..`.........
    bc74:	00000000 801f0000 20404020 20400000     ........ @@ ..@ 
    bc84:	801f4020 00000000 00060009 0006801f      @..............
    bc94:	00000009 00040004 0004803f 00000004     ........?.......
    bca4:	60001000 00000000 00000000 00040004     ...`............
    bcb4:	00040004 00000004 40000000 00000000     ...........@....
    bcc4:	00000000 c0012000 00380006 00000040     ..... ....8.@...
    bcd4:	4020801f 40204020 0000801f 40100000     .. @ @ @.......@
    bce4:	4000c03f 00000000 4021c018 40244022     ?..@......!@"@$@
    bcf4:	00004018 40208010 40244024 0000801b     .@.... @$@$@....
    bd04:	000d0002 c03f0011 00004001 4024803c     ......?..@..<.$@
    bd14:	40244024 00008023 4024801f 40344024     $@$@#.....$@$@4@
    bd24:	00008003 00200030 0038c027 00000020     ....0. .'.8. ...
    bd34:	4024801b 40244024 0000801b c022001c     ..$@$@$@......".
    bd44:	40224022 0000801f 00000000 00004008     "@"@.........@..
	...
    bd5c:	00006004 00000000 00040000 0011000a     .`..............
    bd6c:	40408020 00090009 00090009 00000009      .@@............
    bd7c:	40400000 00118020 0004000a 00200018     ..@@ ......... .
    bd8c:	00244023 00000018 4020801f 40294027     #@$....... @'@)@
    bd9c:	0000401f c0074000 000f0039 4000c001     .@...@..9......@
    bdac:	c03f4020 40244024 0000801b 4020801f      @?.$@$@...... @
    bdbc:	40204020 00008030 c03f4020 40204020      @ @0... @?. @ @
    bdcc:	0000801f c03f4020 402e4024 0000c030     .... @?.$@.@0...
    bddc:	c03f4020 002e4024 00000030 8010000f      @?.$@..0.......
    bdec:	40224020 00028033 c03f4020 00040004      @"@3... @?.....
    bdfc:	4020c03f 40204020 4020c03f 00004020     ?. @ @ @?. @ @..
    be0c:	20206000 c03f2020 00200020 c03f4020     .`    ?. . . @?.
    be1c:	000b4024 4020c030 c03f4020 40004020     $@..0. @ @?. @.@
    be2c:	c0004000 003cc03f 003cc003 0000c03f     .@..?.<...<.?...
    be3c:	c03f4020 0023400c 0020c03f 4020801f      @?..@#.?. ... @
    be4c:	40204020 0000801f c03f4020 00244024      @ @.... @?.$@$.
    be5c:	00000018 4021801f e0204021 0000a01f     ......!@!@ .....
    be6c:	c03f4020 00264024 4000c019 4024c018      @?.$@&....@..$@
    be7c:	40224024 00008031 40200030 4020c03f     $@"@1...0. @?. @
    be8c:	00000030 803f0020 40004000 0020803f     0... .?..@.@?. .
    be9c:	003e0020 0007c001 00200038 c0070038      .>.....8. .8...
    beac:	c007003c 00000038 c0394020 c0390006     <...8... @9...9.
    bebc:	00004020 40380020 4038c007 00000020      @.. .8@..8@ ...
    becc:	c0214030 40384026 0000c020 00000000     0@!.&@8@ .......
    bedc:	2040e07f 00002040 00700000 8003000c     ..@ @ ....p.....
    beec:	00004000 20400000 e07f2040 00000000     .@....@ @ ......
    befc:	00200000 00200040 00000000 10001000     .. .@. .........
    bf0c:	10001000 10001000 00000000 00000040     ............@...
    bf1c:	00000000 80020000 40054005 4000c003     .........@.@...@
    bf2c:	c03f0020 40044004 00008003 80030000      .?..@.@........
    bf3c:	40044004 00004006 80030000 40244004     .@.@.@.......@$@
    bf4c:	4000c03f 80030000 40054005 00004003     ?..@.....@.@.@..
    bf5c:	40040000 4024c01f 00204024 e0020000     ...@..$@$@ .....
    bf6c:	50055005 20045006 c03f4020 00044004     .P.P.P.  @?..@..
    bf7c:	4000c003 40040000 4000c027 00000000     ...@...@'..@....
    bf8c:	10001000 e0271004 00000000 c03f4020     ......'..... @?.
    bf9c:	00074001 4004c004 40204020 4000c03f     .@.....@ @ @?..@
    bfac:	00004000 0004c007 0004c007 0000c003     .@..............
    bfbc:	c0074004 00044004 4000c003 80030000     .@...@.....@....
    bfcc:	40044004 00008003 f0071004 40045004     .@.@.........P.@
    bfdc:	00008003 80030000 50044004 1000f007     .........@.P....
    bfec:	c0074004 00044002 00000004 40060000     .@...@.........@
    bffc:	40054005 0000c004 00040000 4004801f     .@.@...........@
    c00c:	00004000 80070004 40044000 4000c007     .@.......@.@...@
    c01c:	00070004 8001c004 00040006 c0010006     ................
    c02c:	c0010007 00000006 c0064004 c0060001     .........@......
    c03c:	00004004 10071004 8001e004 00040006     .@..............
    c04c:	40040000 4006c005 00004004 00000000     ...@...@.@......
    c05c:	e07b0004 00002040 00000000 f0ff0000     ..{.@ ..........
    c06c:	00000000 20400000 0004e07b 00000000     ......@ {.......
    c07c:	00800040 00200040 00400020              @...@. . .@.

0000c088 <asc2_1608>:
	...
    c09c:	cc1f0000 00000c00 00000000 00080000     ................
    c0ac:	00600030 00300008 00000060 fc032002     0.`...0.`.... ..
    c0bc:	2002201e 201efc03 00002002 180e0000     . . ... . ......
    c0cc:	ff3f0411 780c8410 00000000 8410000f     ..?....x........
    c0dc:	c000380f 84187807 00007800 840f7800     .8...x...x...x..
    c0ec:	2411c410 e400980e 08008400 00680008     ...$..........h.
    c0fc:	00000070 00000000 00000000 00000000     p...............
    c10c:	e0070000 04201818 00000240 02400000     ...... .@.....@.
    c11c:	18180420 0000e007 00000000 40024002      ............@.@
    c12c:	f00f8001 40028001 00004002 80008000     .......@.@......
    c13c:	f80f8000 80008000 00008000 0d000100     ................
    c14c:	00000e00 00000000 00000000 80000000     ................
    c15c:	80008000 80008000 80008000 0c000000     ................
    c16c:	00000c00 00000000 00000000 06000000     ................
    c17c:	60001800 00068001 00200018 f0070000     ...`...... .....
    c18c:	04100808 08080410 0000f007 04080000     ................
    c19c:	fc1f0408 04000400 00000000 0c0e0000     ................
    c1ac:	24101410 84114410 00000c0e 180c0000     ...$.D..........
    c1bc:	04110410 88120411 0000700c e0000000     .........p......
    c1cc:	24042003 fc1f2408 00002400 981f0000     . .$.$...$......
    c1dc:	04118410 88100411 00007010 f0070000     .........p......
    c1ec:	04118808 88180411 00007000 001c0000     .........p......
    c1fc:	fc100010 001c0013 00000010 380e0000     ...............8
    c20c:	84104411 44118410 0000380e 00070000     .D.....D.8......
    c21c:	44108c08 88084410 0000f007 00000000     ...D.D..........
    c22c:	0c030000 00000c03 00000000 00000000     ................
    c23c:	06010100 00000000 00000000 80000000     ................
    c24c:	20024001 08081004 00000410 20022002     .@. ......... . 
    c25c:	20022002 20022002 00002002 04100000     . . . . . ......
    c26c:	10040808 40012002 00008000 000e0000     ..... .@........
    c27c:	0c100012 80106c10 0000000f 180ce003     .....l..........
    c28c:	2414e413 2808c417 0000d007 3c000400     ...$...(.......<
    c29c:	401cc403 e4004007 04001c00 fc1f0410     ...@.@..........
    c2ac:	04110411 880e0411 00007000 180ce003     .........p......
    c2bc:	04100410 08100410 0000101c fc1f0410     ................
    c2cc:	04100410 08080410 0000f007 fc1f0410     ................
    c2dc:	04110411 0410c417 00001808 fc1f0410     ................
    c2ec:	00110411 0010c017 00000008 180ce003     ................
    c2fc:	04100410 781c4410 00004000 fc1f0410     .....D.x.@......
    c30c:	80008410 84108000 0410fc1f 04100000     ................
    c31c:	fc1f0410 04100410 00000000 01000300     ................
    c32c:	01100110 0010fe1f 00000010 fc1f0410     ................
    c33c:	80030411 1c186414 00000410 fc1f0410     .....d..........
    c34c:	04000410 04000400 00000c00 fc1f0410     ................
    c35c:	fc00001f fc1f001f 00000410 fc1f0410     ................
    c36c:	0003040c 1810e000 0010fc1f 0808f007     ................
    c37c:	04100410 08080410 0000f007 fc1f0410     ................
    c38c:	80108410 80108010 0000000f 1808f007     ................
    c39c:	24102410 0a081c10 0000f207 fc1f0410     .$.$............
    c3ac:	00110411 3011c011 04000c0e 1c0e0000     .......0........
    c3bc:	84100411 44108410 0000381c 00100018     .......D.8......
    c3cc:	fc1f0410 00100410 00000018 f81f0010     ................
    c3dc:	04000410 04100400 0010f81f 001e0010     ................
    c3ec:	1c00e011 80137000 0010001c 3c10c01f     .....p.........<
    c3fc:	001fe000 3c10e000 0000c01f 0c180410     .......<........
    c40c:	c0013416 3416c001 04100c18 001c0010     .4.....4........
    c41c:	fc000413 001c0413 00000010 1c100408     ................
    c42c:	84106410 041c0413 00001810 00000000     .d..............
    c43c:	fe7f0000 02400240 00000240 00300000     ....@.@.@.....0.
    c44c:	8003000c 1c006000 00000300 02400000     .....`........@.
    c45c:	02400240 0000fe7f 00000000 00000000     @.@.............
    c46c:	00400020 00400040 00000020 01000100      .@.@.@. .......
    c47c:	01000100 01000100 01000100 00400000     ..............@.
    c48c:	00200040 00000000 00000000 98000000     @. .............
    c49c:	44012401 44014401 0400fc00 fc1f0010     .$.D.D.D........
    c4ac:	04018800 88000401 00007000 70000000     .........p.....p
    c4bc:	04018800 04010401 00008800 70000000     ...............p
    c4cc:	04018800 08110401 0400fc1f f8000000     ................
    c4dc:	44014401 44014401 0000c800 04010000     .D.D.D.D........
    c4ec:	fc0f0401 04110411 00180011 d6000000     ................
    c4fc:	29012901 c9012901 00000601 fc1f0410     .).).)..........
    c50c:	00018400 04010001 0400fc00 04010000     ................
    c51c:	fc190419 04000400 00000000 03000000     ................
    c52c:	01010100 fe190119 00000000 fc1f0410     ................
    c53c:	40002400 0c01b401 00000401 04100000     .$.@............
    c54c:	fc1f0410 04000400 00000000 fc010401     ................
    c55c:	00010401 0401fc01 fc000001 fc010401     ................
    c56c:	00018400 04010001 0400fc00 f8000000     ................
    c57c:	04010401 04010401 0000f800 ff010101     ................
    c58c:	04018500 88000401 00007000 70000000     .........p.....p
    c59c:	04018800 05010401 0100ff01 04010401     ................
    c5ac:	8400fc01 00010401 00008001 cc000000     ................
    c5bc:	24012401 24012401 00009801 00010000     .$.$.$.$........
    c5cc:	f8070001 04010401 00000000 f8010001     ................
    c5dc:	04000400 08010400 0400fc01 80010001     ................
    c5ec:	0c007001 60011000 00018001 0c01f001     .p.....`........
    c5fc:	c0013000 0c013000 0001f001 04010000     .0...0..........
    c60c:	74008c01 8c017001 00000401 81010101     ...t.p..........
    c61c:	0e007101 60011800 00018001 84010000     .q.....`........
    c62c:	34010c01 84014401 00000c01 00000000     ...4.D..........
    c63c:	00000000 fc3e0001 02400240 00000000     ......>.@.@.....
    c64c:	00000000 0000ffff 00000000 02400000     ..............@.
    c65c:	fc3e0240 00000001 00000000 00600000     @.>...........`.
    c66c:	00800080 00400040 00200020              ....@.@. . .

0000c678 <asc2_2412>:
	...
    c6a8:	0f000000 fe0f3880 38800f38 00000000     .....8..8..8....
	...
    c6c4:	00010000 00000600 3800000c 00310000     ...........8..1.
    c6d4:	00000600 3800000c 00300000 00000000     .......8..0.....
    c6e4:	00000000 67008061 80f907f8 00806100     ....a..g.....a..
    c6f4:	61008061 80610080 07f86700 610080f9     a..a..a..g.....a
    c704:	00000080 00000000 c0010000 f0e003e0     ................
    c714:	04083006 ff1f0818 080e04fe 03f08707     .0..............
    c724:	0000e081 00000000 0600f001 0404000c     ................
    c734:	700c0608 00c0f901 3b00000e 18ec00e0     ...p.......;....
    c744:	04080807 0300180c 000000e0 00e00100     ................
    c754:	f803f007 081c0418 07081704 c003d0e1     ................
    c764:	b02300e0 00083c00 00000820 00000010     ..#..<.. .......
    c774:	01000000 00310000 00003200 0000001c     ......1..2......
	...
    c7a8:	ff01007f f08007c0 1018000c 00200400     .............. .
    c7b8:	00000002 20000000 00100200 18000c04     ....... ........
    c7c8:	01f08007 7f00c0ff 00000000 00000000     ................
	...
    c7e4:	66000042 00660000 00003c00 ff030018     B..f..f..<......
    c7f4:	001800c0 00003c00 66000066 00420000     .....<..f..f..B.
    c804:	00000000 08000008 00080000 00000800     ................
    c814:	ff010008 000800c0 00000800 08000008     ................
    c824:	00080000 00000000 00000100 32000031     ............1..2
    c834:	001c0000 00000000 00000000 00000000     ................
	...
    c850:	08000008 00080000 00000800 08000008     ................
    c860:	00080000 00000800 08000008 00000000     ................
	...
    c878:	38000038 00380000 00000000 00000000     8..8..8.........
	...
    c898:	00000600 7000001c 00800100 3800000e     .......p.......8
    c8a8:	00c00000 1c000007 00300000 00000000     ..........0.....
    c8b8:	00000000 ff01807f 708003e0 04180006     ...........p....
    c8c8:	00040800 18000608 01708003 7f00e0ff     ..........p.....
    c8d8:	00000080 00000000 00010000 08000108     ................
    c8e8:	03080001 ff07f8ff 080000f8 00080000     ................
    c8f8:	00000800 00000000 01000000 c00238c0     .............8..
    c908:	98000458 04180104 04041802 181c0618     X...............
    c918:	0118f803 0000f8e0 00000000 01000000     ................
    c928:	c003e0c0 080004f0 04080804 18060808     ................
    c938:	18f40308 00f0e701 0000e001 00000000     ................
    c948:	00000000 0d000003 00110000 00006100     .............a..
    c958:	01030881 f8ff0708 00f8ff0f 01000801     ................
    c968:	00000008 00000000 fc07e000 080806d0     ................
    c978:	06081006 10060810 38180608 06f00f06     ...........8....
    c988:	0000c007 00000000 00000000 ff01803f     ............?...
    c998:	308403e0 04180802 10040810 08100408     ...0............
    c9a8:	03101807 0700f00f 000000c0 00000000     ................
    c9b8:	c0030000 00000700 06000006 0706f800     ................
    c9c8:	001806f8 0700e006 00060000 00000000     ................
    c9d8:	01000000 f703e0e1 103406f0 04081804     ..........4.....
    c9e8:	0c040818 080c0408 03181606 c101f0f3     ................
    c9f8:	000000e0 00000000 fc0300f8 38060330     ............0..8
    ca08:	04080204 02040802 10040408 01f00803     ................
    ca18:	7f00c0ff 00000000 00000000 00000000     ................
	...
    ca30:	70003870 38700038 00000000 00000000     p8.p8.p8........
	...
    ca54:	30001a30 0000001c 00000000 00000000     0..0............
	...
    ca6c:	08000000 00140000 00002200 80000041     ........."..A...
    ca7c:	40000180 04200002 00081000 00000008     ...@.. .........
    ca8c:	00000000 21000021 00210000 00002100     ....!..!..!..!..
    ca9c:	21000021 00210000 00002100 21000021     !..!..!..!..!..!
	...
    cab4:	00080000 10000408 01200002 80004000     .......... ..@..
    cac4:	00410080 00002200 08000014 00000000     ..A.."..........
    cad4:	03000000 c00400c0 00000400 08380008     ..............8.
    cae4:	0808380f 00100838 0700300c c00300e0     .8..8....0......
	...
    cafc:	ff00803f 708003e0 06100f02 c0048870     ?......p....p...
    cb0c:	08830488 02887f04 010390c0 40fe0020     ............ ..@
    cb1c:	00080000 01001800 083e00f8 0700c201     ..........>.....
    cb2c:	e2070002 00fe0000 00c81f00 0000f801     ................
    cb3c:	08000038 07080004 ff07f8ff 080804f8     8...............
    cb4c:	04080804 08040808 08180608 0118f403     ................
    cb5c:	0100f0e7 000000e0 00000000 ff01803f     ............?...
    cb6c:	708003e0 04180002 00040800 08000408     ...p............
    cb7c:	06100004 80072000 000000c0 07080004     ..... ..........
    cb8c:	ff07f8ff 080004f8 04080004 00040800     ................
    cb9c:	10000218 01708003 7f00e0ff 00000080     ......p.........
    cbac:	07080004 ff07f8ff 080804f8 04080804     ................
    cbbc:	08040808 083e0408 06080004 00011800     ......>.........
    cbcc:	00000060 07080004 ff07f8ff 080804f8     `...............
    cbdc:	04000804 08040008 003e0400 06000006     ..........>.....
    cbec:	80010000 00000000 00000000 ff01803f     ............?...
    cbfc:	708003e0 04180006 02040800 08020408     ...p............
    cc0c:	07f00302 0200f083 00020000 07080004     ................
    cc1c:	ff07f8ff 080804f8 00000800 08000008     ................
    cc2c:	00080000 07080804 ff07f8ff 080004f8     ................
    cc3c:	00000000 00040000 08000408 07080004     ................
    cc4c:	ff07f8ff 080004f8 04080004 00000800     ................
	...
    cc64:	00000600 01000007 04010004 00040100     ................
    cc74:	feff0703 04fcff07 00040000 00000400     ................
    cc84:	07080004 ff07f8ff 080c04f8 00001800     ................
    cc94:	c704003e c8030580 04f80006 00043800     >............8..
    cca4:	08000018 07080004 ff07f8ff 080004f8     ................
    ccb4:	00080000 00000800 08000008 00080000     ................
    ccc4:	00001800 00000060 07080004 8007f8ff     ....`...........
    ccd4:	00fc0708 00c07f00 0700f803 007800c0     ..............x.
    cce4:	07088007 ff07f8ff 080004f8 07080004     ................
    ccf4:	0007f8ff 00c00308 0000e000 1e000038     ............8...
    cd04:	00070000 04c00100 ff07f000 000004f8     ................
    cd14:	00000000 ff01807f 708003e0 04180006     ...........p....
    cd24:	00040800 18000608 01300003 7f00e0ff     ..........0.....
    cd34:	00000080 07080004 ff07f8ff 080404f8     ................
    cd44:	04000404 04040004 00040400 03000c06     ................
    cd54:	f00100f8 00000000 00000000 ff01807f     ................
    cd64:	708003e0 04880006 00048800 3c0006c8     ...p...........<
    cd74:	013e0003 7f00e6ff 00000084 07080004     ..>.............
    cd84:	ff07f8ff 080804f8 04000804 0f04000c     ................
    cd94:	c00b0400 03f01006 e00138f0 08000008     .........8......
    cda4:	01000000 f003f8e0 10300630 04081804     ........0.0.....
    cdb4:	0c040818 080c0408 02180602 8107f007     ................
    cdc4:	000000e0 06008001 00040000 00000400     ................
    cdd4:	07080004 ff07f8ff 080004f8 04000004     ................
    cde4:	00060000 00800100 07000004 ff07e0ff     ................
    cdf4:	180004f0 00080000 00000800 08000008     ................
    ce04:	04080000 ff071000 000004e0 06000004     ................
    ce14:	e0070000 00fe0700 00e01f04 0000f801     ................
    ce24:	e0010038 07003e04 000600c0 00000400     8....>..........
    ce34:	07000004 ff0700e0 f81f04c0 07c00700     ................
    ce44:	ff0700f8 f83f0480 04c00700 000700f8     ......?.........
    ce54:	00000400 04000000 00060800 78c00718     ...............x
    ce64:	00c8f105 1f00003e e8630480 06f88007     ....>.....c.....
    ce74:	00041800 00000008 06000004 80070000     ................
    ce84:	08e00700 00087c04 0700f81f 081800f8     .....|..........
    ce94:	0708e004 00060000 00000400 01000000     ................
    cea4:	00060800 f8000438 04e80304 7c04080f     ....8..........|
    ceb4:	08f00508 0708c007 00041800 00000060     ............`...
	...
    ced0:	3f000000 0020feff 02002002 20020020     ...?.. .. .. .. 
    cee0:	00200200 00000002 00000000 00080000     .. .............
    cef0:	00000700 0000c000 06000038 c0010000     ........8.......
    cf00:	00300000 00000e00 00000001 00000000     ..0.............
    cf10:	00200000 02002002 20020020 00200200     .. .. .. .. .. .
    cf20:	feff3f02 00000000 00000000 00000000     .?..............
	...
    cf38:	00000800 30000010 00200000 00003000     .......0.. ..0..
    cf48:	08000010 00000000 00000000 00010000     ................
    cf58:	00000100 01000001 00010000 00000100     ................
    cf68:	01000001 00010000 00000100 01000001     ................
	...
    cf80:	00002000 10000020 00100000 00000000     . .. ...........
	...
    cfa0:	1900f000 181b00f8 00082200 24000826     ........."..&..$
    cfb0:	10240008 00f83f00 0000f81f 18000008     ..$..?..........
    cfc0:	04000000 ff070000 f0ff0ff8 00181800     ................
    cfd0:	20000810 08200008 00183000 0f00f01f     ... .. ..0......
    cfe0:	000000c0 00000000 1f00c007 301800f0     ...............0
    cff0:	00082000 20000820 083c0008 00101c00     . .. .. ..<.....
    d000:	00006000 00000000 00000000 1f00c007     .`..............
    d010:	183800f0 00082000 20000820 10100408     ..8.. .. .. ....
    d020:	0ff8ff07 0000f0ff 00000010 00000000     ................
    d030:	07000000 f01f00c0 00301200 22001822     ..........0.".."
    d040:	08220008 00083200 0e00101e 00000020     .."..2...... ...
    d050:	00000000 20000020 08200008 03f8ff01     .... .. .. .....
    d060:	2006f8ff 08200408 07082004 00030020     ... .. .. .. ...
	...
    d078:	0e000e00 f31f006e 00b13100 2000b120     ....n....1.. .. 
    d088:	913100b1 00131f00 20001e2e 0030000e     ..1........ ..0.
    d098:	04000000 ff070800 f8ff0ff8 00081000     ................
    d0a8:	20000020 08200000 00f83f00 0000f81f      .. .. ..?......
    d0b8:	00000008 00000000 20000000 08200008     ........... .. .
    d0c8:	06082000 3f06f83f 080000f8 00080000     . ..?..?........
    d0d8:	00000800 00000000 00000000 00000000     ................
    d0e8:	03000003 00012000 20000120 fe3f0603     ..... .. .. ..?.
    d0f8:	00fc3f06 00000000 00000000 04000000     .?..............
    d108:	ff070800 f8ff0ff8 00880100 2f000003     .............../
    d118:	f83800c0 00382000 00000820 00000008     ..8.. 8. .......
    d128:	00000000 00040000 08000408 07080004     ................
    d138:	ff0ff8ff 080000f8 00080000 00000800     ................
    d148:	00000000 00082000 3f00f83f 081000f8     ..... ..?..?....
    d158:	00002000 3f00f83f 081000f8 00002000     . ..?..?..... ..
    d168:	3f00f83f 080000f8 00000000 3f000820     ?..?........ ..?
    d178:	f83f00f8 00081000 20000010 08200000     ..?........ .. .
    d188:	00f83f00 0000f81f 00000008 00000000     .?..............
    d198:	0f00c007 301800f0 00083000 20000820     .......0.0.. .. 
    d1a8:	08300008 00301800 0700f00f 000000c0     ..0...0.........
    d1b8:	00000000 3f000120 ff3f00ff 00111000     .... ..?..?.....
    d1c8:	20000920 08200008 00383000 0f00f01f      .. .. ..08.....
    d1d8:	000000c0 00000000 1f00c007 183800f0     ..............8.
    d1e8:	00082000 20000820 11100009 00ff1f00     . .. .. ........
    d1f8:	0000ff3f 00000001 00082000 20000820     ?........ .. .. 
    d208:	f83f0008 00f83f00 10000808 08200008     ..?..?........ .
    d218:	00002000 30000030 00000000 00000000     . ..0..0........
    d228:	0c000000 181e0078 00083300 21000823     ....x....3..#..!
    d238:	88210008 00982100 3800f030 00000060     ..!..!..0..8`...
    d248:	00000000 20000020 00200000 03f0ff00     .... .. .. .....
    d258:	2000f8ff 08200008 00082000 00003000     ... .. .. ...0..
	...
    d270:	3f000020 f87f00f0 00180000 00000800      ..?............
    d280:	10200008 00f83f00 0000f07f 00000010     .. ..?..........
    d290:	00000000 30000020 003c0000 00803f00     .... ..0..<..?..
    d2a0:	0000f023 70000078 00802300 3000003c     #...x..p.#..<..0
    d2b0:	00200000 00002000 3f00003c f82300e0     .. .. ..<..?..#.
    d2c0:	00e00000 3e000027 e03f0000 00f82100     ....'..>..?..!..
    d2d0:	3e00e001 00200000 00000000 20000820     ...>.. ..... .. 
    d2e0:	38380008 00683e00 03008027 f82c00c8     ..88.>h.'.....,.
    d2f0:	00383800 20001820 00000008 00000000     .88. .. ........
    d300:	30000020 013c0003 00833f00 0000ec23      ..0..<..?..#...
    d310:	80230070 00003c00 20000020 00000000     p.#..<.. .. ....
    d320:	00000000 38000000 38200008 00f82000     .......8.. 8. ..
    d330:	2f00e823 083e0088 00083800 00001820     #../..>..8.. ...
    d340:	00000070 00000000 00000000 00000000     p...............
    d350:	00000000 14000008 fcf71f00 20060030     ............0.. 
    d360:	00000200 00000000 00000000 00000000     ................
	...
    d378:	ffff0000 000000ff 00000000 00000000     ................
	...
    d390:	00200000 06003002 00fcf71f 08000014     .. ..0..........
	...
    d3b0:	18000000 00600000 00004000 20000040     ......`..@..@.. 
    d3c0:	00100000 00000800 04000004 000c0000     ................
    d3d0:	00001000                                ....

0000d3d4 <asc2_3216>:
	...
    d42c:	c000f007 e0e1ff07 e001f007 c0000000     ................
	...
    d45c:	00002000 0000c001 00008007 0000001f     . ..............
    d46c:	0000001e 0000201c 0000c001 00008007     ..... ..........
    d47c:	0000001f 0000001e 0000001c 00000000     ................
	...
    d498:	000c1800 000c1800 e00f1800 00fc1f00     ................
    d4a8:	000cf803 000c1800 000c1800 000c1800     ................
    d4b8:	000c1800 e00f1800 00fc1f00 000cf803     ................
    d4c8:	000c1800 000c1800 00000000 00000000     ................
    d4d8:	00000000 80070000 c0077800 4006fc00     .........x.....@
    d4e8:	20000e01 20000703 20800302 fcffff0f     ... ... ... ....
    d4f8:	20c00102 60e00002 40703001 803ff001     ... ...`.0p@..?.
    d508:	001ff000 00000000 00000000 0000fe00     ................
    d518:	0000ff01 00800103 60800002 c0810103     ...........`....
    d528:	0007ff01 0018fe00 00e00000 00bf0300     ................
    d538:	c0ff0c00 60807100 2000c101 60800103     .....q.`... ...`
    d548:	c0ff0000 003f0000 00000000 001f0000     ......?.........
    d558:	c07f0000 c0c0fc00 6080ff01 20e00303     ...........`... 
    d568:	20780202 201e0602 4007fc03 8003f001     ..x ... ...@....
    d578:	c0030100 601c0100 20e00100 20000100     .......`... ... 
    d588:	40000100 80010000 00000000 00000000     ...@............
    d598:	00002000 0000601c 0000401c 0000801f     . ...`...@......
    d5a8:	0000000f 00000000 00000000 00000000     ................
	...
    d5f0:	00f80700 00ff3f00 c0077800 e000c001     .....?...x......
    d600:	30000003 08000004 04000008 02000010     ...0............
	...
    d618:	02000010 04000008 08000004 30000003     ...............0
    d628:	e000c001 c0077800 00ff3f00 00f80700     .....x...?......
	...
    d65c:	00180c00 00380e00 00380e00 00300600     ......8...8...0.
    d66c:	00600300 80436100 80ffff00 00436100     ..`..aC......aC.
    d67c:	00600300 00300600 00380e00 00380e00     ..`...0...8...8.
    d68c:	00180c00 00000000 00000000 00000000     ................
    d69c:	00800000 00800000 00800000 00800000     ................
    d6ac:	00800000 00800000 00ff7f00 00800000     ................
    d6bc:	00800000 00800000 00800000 00800000     ................
    d6cc:	00800000 00000000 00000000 01000000     ................
    d6dc:	e3000000 e2000000 fc000000 78000000     ...............x
	...
    d718:	00800000 00800000 00800000 00800000     ................
    d728:	00800000 00800000 00800000 00800000     ................
    d738:	00800000 00800000 00800000 00800000     ................
    d748:	00800000 00800000 00000000 00000000     ................
    d758:	00000000 c0000000 e0010000 e0010000     ................
    d768:	c0000000 00000000 00000000 00000000     ................
	...
    d798:	0c000000 38000000 e0000000 80030000     .......8........
    d7a8:	000e0000 00380000 00e00000 00800300     ......8.........
    d7b8:	00000e00 00003800 0000e000 00008003     .....8..........
    d7c8:	0000000e 00000018 00000000 00000000     ................
    d7d8:	00000000 00f80f00 00ff7f00 8007f000     ................
    d7e8:	c0008001 60000003 20000002 20000002     .......`... ... 
    d7f8:	20000002 60000003 c0008001 8003e000     ... ...`........
    d808:	00ff7f00 00f80f00 00000000 00000000     ................
	...
    d820:	20008000 20008000 20008000 60008000     ... ... ... ...`
    d830:	e0ffff01 e0ffff03 60000000 20000000     ...........`... 
    d840:	20000000 20000000 00000000 00000000     ... ... ........
	...
    d85c:	e0007800 60019800 60020001 60040002     .x.....`...`...`
    d86c:	60080002 60100002 60200002 60400002     ...`...`.. `..@`
    d87c:	60800003 60008301 e000fe01 80077c00     ...`...`.....|..
	...
    d89c:	8007f000 c007f001 40000001 20000002     ...........@... 
    d8ac:	20000102 20000102 20000102 20800303     ... ... ... ... 
    d8bc:	40808601 c0c0fc01 807f7800 001e0000     ...@.....x......
	...
    d8d8:	00080000 00380000 00480000 00880100     ......8...H.....
    d8e8:	00080600 10080c00 10083000 10084000     .........0...@..
    d8f8:	f0ffff01 f0ffff03 f0ffff03 10080000     ................
    d908:	10080000 10080000 00000000 00000000     ................
    d918:	00000000 80070000 40861f00 2000e103     ...........@... 
    d928:	20000203 20000403 20000403 20000403     ... ... ... ... 
    d938:	20000403 40000603 c0010303 80ff0103     ... ...@........
    d948:	007e0003 00000000 00000000 00000000     ..~.............
    d958:	00000000 00fc0700 00ff3f00 80c37000     .........?...p..
    d968:	c0808100 60000101 20000203 20000202     .......`... ... 
    d978:	20000202 20000202 40000302 c080c101     ... ... ...@....
    d988:	80ffc000 007e0000 00000000 00000000     ......~.........
    d998:	00000000 0000f000 0000c003 00008003     ................
    d9a8:	00000003 e0070003 e03f0003 00c00103     ..........?.....
    d9b8:	00000603 00001803 00006003 00008003     .........`......
    d9c8:	00000003 00000000 00000000 00000000     ................
    d9d8:	001f0000 803f7800 c060fc00 40c08e01     .....x?...`....@
    d9e8:	20800703 20000302 20800102 20800102     ... ... ... ... 
    d9f8:	20c00102 40e00103 c0708601 803ffc00     ... ...@..p...?.
    da08:	001f7800 00000000 00000000 00000000     .x..............
    da18:	00003f00 c081ff00 c0c1c001 20600001     .?............` 
    da28:	20200002 20200002 20200002 60200002     ..  ..  ..  .. `
    da38:	c0400002 80c10001 008fc100 00fe7f00     ..@.............
    da48:	00f01f00 00000000 00000000 00000000     ................
	...
    da6c:	c0000300 e0810700 e0810700 c0000300     ................
	...
    daac:	66000600 78000600 00000000 00000000     ...f...x........
	...
    dadc:	00800000 00c00100 00600300 00300600     ..........`...0.
    daec:	00180c00 000c1800 00063000 00036000     .........0...`..
    dafc:	8001c000 40000001 20000002 10000004     .......@... ....
	...
    db18:	00100400 00100400 00100400 00100400     ................
    db28:	00100400 00100400 00100400 00100400     ................
    db38:	00100400 00100400 00100400 00100400     ................
    db48:	00100400 00100400 00000000 00000000     ................
    db58:	00000000 10000004 20000002 40000001     ........... ...@
    db68:	8001c000 00036000 00063000 000c1800     .....`...0......
    db78:	00180c00 00300600 00600300 00c00100     ......0...`.....
    db88:	00800000 00000000 00000000 00000000     ................
    db98:	00000000 00007800 0000f801 00003802     .....x.......8..
    dba8:	00000002 c0000004 e0790004 e0810004     ..........y.....
    dbb8:	c0000104 00000304 00000202 00000603     ................
    dbc8:	0000fc01 0000f800 00000000 00000000     ................
    dbd8:	00f80f00 00fe3f00 80077000 c000c000     .....?...p......
    dbe8:	40f80101 20fc0703 20041e02 20083002     ...@... ... .0. 
    dbf8:	20302002 20fc3f02 40043f01 c00c8001     . 0 .?. .?.@....
    dc08:	8031e000 00c21f00 00000000 20000000     ..1............ 
    dc18:	60000000 e0030000 203e0000 20e00300     ...`......> ... 
    dc28:	00203e00 0020e003 00208003 0020fc07     .> ... ... ... .
    dc38:	00e03f00 20fe0300 e03f0000 e0010000     .?..... ..?.....
    dc48:	20000000 20000000 00000000 00000000     ... ... ........
    dc58:	20000002 20000002 e0ffff03 e0ffff03     ... ... ........
    dc68:	20000102 20000102 20000102 20000102     ... ... ... ... 
    dc78:	20000102 20000303 60808601 c0c0fc01     ... ... ...`....
    dc88:	807ff800 001f0000 00000000 00000000     ................
    dc98:	00f80700 00ff3f00 80077000 c000c000     .....?...p......
    dca8:	40000001 20000003 20000002 20000002     ...@... ... ... 
    dcb8:	20000002 20000002 40000001 c0008001     ... ... ...@....
    dcc8:	8001c003 00063000 00000000 00000000     .....0..........
    dcd8:	20000002 20000002 e0ffff03 e0ffff03     ... ... ........
    dce8:	20000002 20000002 20000002 20000002     ... ... ... ... 
    dcf8:	60000003 40000001 c0008001 8007f000     ...`...@........
    dd08:	00fe7f00 00f80f00 00000000 00000000     ................
    dd18:	20000002 20000002 e0ffff03 e0ffff03     ... ... ........
    dd28:	20000102 20000102 20000102 20000102     ... ... ... ... 
    dd38:	20000102 20800302 20e00f02 60000003     ... ... ... ...`
    dd48:	e000c003 00036000 00000000 00000000     .....`..........
    dd58:	20000002 20000002 e0ffff03 e0ffff03     ... ... ........
    dd68:	20000102 20000102 00000102 00000102     ... ... ........
    dd78:	00000102 00000102 00800302 00e00f03     ................
    dd88:	00000003 0000c003 00006000 00000000     .........`......
    dd98:	00f80700 00fe3f00 80077000 c001c001     .....?...p......
    dda8:	40000001 20000003 20000002 20000002     ...@... ... ... 
    ddb8:	20000002 20200001 40200001 803fc003     ... ..  .. @..?.
    ddc8:	803f3000 00200000 00200000 20000002     .0?... ... .... 
    ddd8:	20000002 e0ffff03 e0ffff03 20800002     ... ........... 
    dde8:	20800002 00800000 00800000 00800000     ... ............
    ddf8:	20800002 20800002 e0ffff03 e0ffff03     ... ... ........
    de08:	20000002 20000002 00000000 00000000     ... ... ........
	...
    de20:	20000002 20000002 20000002 20000002     ... ... ... ... 
    de30:	e0ffff03 e0ffff03 20000002 20000002     ........... ... 
    de40:	20000002 20000002 00000000 00000000     ... ... ........
	...
    de58:	0e000000 0f000000 0f000000 01000000     ................
    de68:	01000002 01000002 03000002 06000002     ................
    de78:	fcffff03 f8ffff03 00000002 00000002     ................
    de88:	00000002 00000002 00000000 00000000     ................
    de98:	20000002 20000002 e0ffff03 e0ffff03     ... ... ........
    dea8:	20c00002 20000102 00800700 00e00f00     ... ... ........
    deb8:	00f83000 203e6002 200f8003 e0030003     .0...`> ... ....
    dec8:	e0000002 20000002 20000000 00000000     ....... ... ....
    ded8:	20000002 20000002 e0ffff03 e0ffff03     ... ... ........
    dee8:	20000002 20000002 20000000 20000000     ... ... ... ... 
    def8:	20000000 20000000 20000000 60000000     ... ... ... ...`
    df08:	e0000000 00030000 00000000 20000002     ............... 
    df18:	20000002 e0ffff03 2000e003 2000ff03     ... ....... ... 
    df28:	00f01f00 80ff0100 e00f0000 001e0000     ................
    df38:	00e00300 20003e00 2000e003 e0ffff03     .....>. ... ....
    df48:	e0ffff03 20000002 20000002 20000002     ....... ... ... 
    df58:	20000002 e0ffff03 20008003 2000f003     ... ....... ... 
    df68:	0000fc00 00001f00 00c00700 00f00100     ................
    df78:	007c0000 801f0002 e0070002 e0ffff03     ..|.............
    df88:	00000002 00000002 00000000 00000000     ................
    df98:	00f80f00 00fe3f00 8007f000 c0008001     .....?..........
    dfa8:	40000001 20000002 20000002 20000002     ...@... ... ... 
    dfb8:	20000002 40000001 c0008001 8003f000     ... ...@........
    dfc8:	00fe3f00 00f80f00 00000000 00000000     .?..............
    dfd8:	20000002 20000002 e0ffff03 e0ffff03     ... ... ........
    dfe8:	20800002 20800002 00800002 00800002     ... ... ........
    dff8:	00800002 00800002 00800103 00008301     ................
    e008:	0000fe00 00007c00 00000000 00000000     .....|..........
    e018:	00f80f00 00ff7f00 8003f000 c0018001     ................
    e028:	40060001 20040002 20040002 20060002     ...@... ... ... 
    e038:	e0030002 f8000001 5c008001 8c03e000     ...........\....
    e048:	0cff3f00 18fc0f00 00000000 00000000     .?..............
    e058:	20000002 20000002 e0ffff03 e0ffff03     ... ... ........
    e068:	20000102 20000102 00800102 00e00102     ... ... ........
    e078:	00fc0102 803f0303 e0078601 e000fc01     ......?.........
    e088:	2000f800 20000000 00000000 00000000     ... ... ........
    e098:	00000000 00067800 e001fe00 c0008601     .....x..........
    e0a8:	40000303 20000302 20800102 20800102     ...@... ... ... 
    e0b8:	20c00102 20c00002 60e00001 c0708001     ... ... ...`..p.
    e0c8:	803fe003 001f0000 00000000 00000000     ..?.............
    e0d8:	00006000 00008003 00000003 00000002     .`..............
    e0e8:	20000002 20000002 e0ffff03 e0ffff03     ... ... ........
    e0f8:	20000002 20000002 00000002 00000002     ... ... ........
    e108:	00008003 0000e000 00000000 00000002     ................
    e118:	00000002 00ffff03 c0ffff03 40000002     ...............@
    e128:	60000002 20000000 20000000 20000000     ...`... ... ... 
    e138:	20000000 40000002 80000002 00ffff03     ... ...@........
    e148:	00000002 00000002 00000000 00000000     ................
    e158:	00000002 00000002 0000c003 0000fc03     ................
    e168:	00c03f02 00f80300 807f0000 e0070000     .?..............
    e178:	80070000 00780000 00c00302 00003c02     ......x......<..
    e188:	0000c003 00000002 00000002 00000002     ................
    e198:	0000c003 0080ff03 00fe3f02 e07f0002     .........?......
    e1a8:	000f0000 00f00002 0000ef03 0080ff03     ................
    e1b8:	00fe0f02 e03f0000 001f0000 00e00702     ......?.........
    e1c8:	0000f803 00000003 00000002 00000000     ................
    e1d8:	20000002 20000002 e0008003 2003f003     ... ... ....... 
    e1e8:	200cfc02 00301f02 00c00700 00f00700     ... ..0.........
    e1f8:	007c1802 201f6002 e0038003 e0000002     ..|..`. ........
    e208:	20000002 20000000 00000000 00000000     ... ... ........
    e218:	00000002 00000003 0000c003 0000f803     ................
    e228:	20003e02 20c00f02 e0ff0100 e07f0000     .>. ... ........
    e238:	20800300 20001c02 00007002 00008003     ... ... .p......
    e248:	00000002 00000002 00000000 00000000     ................
    e258:	20000000 e0006000 e0038003 a00f0003     ... .`..........
    e268:	203e0002 20f80002 20e00302 20800f02     ..> ... ... ... 
    e278:	20003e02 20007802 6000e003 e0008003     .>. .x. ...`....
    e288:	00030002 00000000 00000000 00000000     ................
	...
    e2ac:	fcffff1f 04000010 04000010 04000010     ................
    e2bc:	04000010 04000010 04000010 04000010     ................
	...
    e2e0:	00000007 0000c003 00007800 00001e00     .........x......
    e2f0:	00c00300 00f00000 001e0000 80070000     ................
    e300:	f0000000 3c000000 06000000 00000000     .......<........
	...
    e31c:	04000010 04000010 04000010 04000010     ................
    e32c:	04000010 04000010 04000010 fcffff1f     ................
	...
    e364:	00000002 00000004 00000008 00000018     ................
    e374:	00000010 00000018 00000018 00000004     ................
    e384:	00000002 00000000 00000000 00000000     ................
    e394:	01000000 01000000 01000000 01000000     ................
    e3a4:	01000000 01000000 01000000 01000000     ................
    e3b4:	01000000 01000000 01000000 01000000     ................
    e3c4:	01000000 01000000 01000000 01000000     ................
	...
    e3e0:	00000010 00000010 00000010 00000018     ................
    e3f0:	00000008 00000004 00000000 00000000     ................
	...
    e418:	80030000 c08f0100 608c0300 20180600     ...........`... 
    e428:	20100400 20100400 20200400 40200400     ... ... ..  .. @
    e438:	40200600 c0ff0300 e0ff0100 20000000     .. @........... 
    e448:	20000000 c0000000 00000000 00000000     ... ............
    e458:	00000002 00000002 e0ffff03 c0ffff07     ................
    e468:	c0800100 60000200 20000200 20000400     .......`... ... 
    e478:	20000400 20000400 40000600 c0000300     ... ... ...@....
    e488:	80ff0100 00fe0000 00000000 00000000     ................
    e498:	00000000 007e0000 80ff0100 c0810300     ......~.........
    e4a8:	40000200 20000600 20000400 20000400     ...@... ... ... 
    e4b8:	20000400 20000600 40c00300 80c00100     ... ... ...@....
    e4c8:	00030000 00000000 00000000 00000000     ................
    e4d8:	00000000 007e0000 80ff0100 c0800300     ......~.........
    e4e8:	60000600 20000400 20000400 20000400     ...`... ... ... 
    e4f8:	40000402 80000202 e0ffff03 c0ffff07     ...@............
    e508:	40000000 40000000 00000000 00000000     ...@...@........
    e518:	00000000 007e0000 80ff0100 c0110300     ......~.........
    e528:	40100200 60100400 20100400 20100400     ...@...`... ... 
    e538:	20100400 20100600 40100300 c0f00100     ... ... ...@....
    e548:	00710000 00000000 00000000 00000000     ..q.............
    e558:	00000000 00000400 20000400 20000400     ........... ... 
    e568:	20000400 e0ff7f00 e0ffff01 20000401     ... ........... 
    e578:	20000403 20000402 20000402 00000402     ... ... ... ....
    e588:	00000002 0000c001 0000c001 00000000     ................
    e598:	00000000 1c000000 3ee30000 c2ff0300     ...........>....
    e5a8:	c30c0200 c1040400 c1040400 c1040400     ................
    e5b8:	c1040400 c10c0600 c3f80300 62f00500     ...............b
    e5c8:	7e000600 3c000600 00000000 00000000     ...~...<........
    e5d8:	20000002 20000002 e0ffff03 e0ffff07     ... ... ........
    e5e8:	20000100 20000200 00000600 00000400     ... ... ........
    e5f8:	00000400 20000400 20000600 e0ff0300     ....... ... ....
    e608:	e0ff0100 20000000 20000000 00000000     ....... ... ....
	...
    e620:	20000400 20000400 20000400 20000400     ... ... ... ... 
    e630:	e0ff8703 e0ff8f03 20008003 20000000     ........... ... 
    e640:	20000000 20000000 00000000 00000000     ... ... ........
	...
    e660:	06000000 07000000 01000000 01000000     ................
    e670:	01000400 01000400 03000400 06000400     ................
    e680:	fcff8703 f8ff8f03 00008003 00000000     ................
	...
    e698:	20000002 20000002 e0ffff03 e0ffff07     ... ... ........
    e6a8:	20080000 20100000 00300000 00fc0000     ... ... ..0.....
    e6b8:	008e0500 a0070700 e0010600 e0000400     ................
    e6c8:	20000400 20000000 00000000 00000000     ... ... ........
	...
    e6e0:	20000002 20000002 20000002 20000002     ... ... ... ... 
    e6f0:	e0ffff03 e0ffff07 20000000 20000000     ........... ... 
    e700:	20000000 20000000 00000000 00000000     ... ... ........
	...
    e718:	20000400 e0ff0700 e0ff0f00 20000200     ... ........... 
    e728:	00000400 20000400 e0ff0700 e0ff0300     ....... ........
    e738:	20000200 00000400 20000400 e0ff0700     ... ....... ....
    e748:	e0ff0300 20000000 00000000 00000000     ....... ........
    e758:	20000400 20000400 e0ff0700 e0ff0f00     ... ... ........
    e768:	20000100 20000200 00000200 00000400     ... ... ........
    e778:	00000400 20000400 20000600 e0ff0300     ....... ... ....
    e788:	e0ff0100 20000000 20000000 00000000     ....... ... ....
    e798:	00000000 007e0000 80ff0000 c0810300     ......~.........
    e7a8:	40000200 20000600 20000400 20000400     ...@... ... ... 
    e7b8:	20000400 20000600 40000200 c0810300     ... ... ...@....
    e7c8:	80ff0100 007e0000 00000000 00000000     ......~.........
    e7d8:	01000400 01000400 ffff0700 ffff0f00     ................
    e7e8:	c1000100 41000200 20000400 20000400     .......A... ... 
    e7f8:	20000400 20000400 40000600 c0010300     ... ... ...@....
    e808:	80ff0100 007e0000 00000000 00000000     ......~.........
    e818:	00000000 007e0000 80ff0100 c0800300     ......~.........
    e828:	60000200 20000400 20000400 20000400     ...`... ... ... 
    e838:	20000400 41000200 c1000300 ffff0300     ... ...A........
    e848:	ffff0700 01000000 01000000 00000000     ................
    e858:	20000400 20000400 20000400 20000400     ... ... ... ... 
    e868:	e0ff0f00 e0ff0f00 20c00000 20000100     ........... ... 
    e878:	20000200 20000600 00000400 00000400     ... ... ........
    e888:	00000700 00000300 00000000 00000000     ................
    e898:	00000000 e0030000 e0c00100 40e00300     ...............@
    e8a8:	20300600 20300400 20180400 20180400     ..0 ..0 ... ... 
    e8b8:	20180400 200c0400 600c0200 c0070300     ... ... ...`....
    e8c8:	80830700 00000000 00000000 00000000     ................
    e8d8:	00000000 00000400 00000400 00000400     ................
    e8e8:	00000c00 80ff1f00 c0ffff00 60000400     ...............`
    e8f8:	20000400 20000400 20000400 40000400     ... ... ... ...@
    e908:	80010000 00000000 00000000 00000000     ................
    e918:	00000400 00000400 80ff0700 c0ff0f00     ................
    e928:	60000000 20000000 20000000 20000000     ...`... ... ... 
    e938:	20000000 40000400 80000400 e0ff0700     ... ...@........
    e948:	c0ff0f00 40000000 40000000 00000000     .......@...@....
    e958:	00000400 00000400 00800700 00f00700     ................
    e968:	00fe0400 c01f0400 e0030000 80030000     ................
    e978:	001c0000 00600400 00800700 00000600     ......`.........
    e988:	00000400 00000000 00000000 00000400     ................
    e998:	00000600 00c00700 00fc0700 803f0400     ..............?.
    e9a8:	e0030000 800f0400 00f00600 00f00700     ................
    e9b8:	80ff0700 e00f0400 80030000 003c0400     ..............<.
    e9c8:	00c00700 00000600 00000400 00000000     ................
    e9d8:	20000000 20000400 60000400 e0000700     ... ... ...`....
    e9e8:	20830700 00e60700 00f80400 003c0000     ... ..........<.
    e9f8:	205e0400 a0870500 e0010600 60000400     ..^ ...........`
    ea08:	20000400 20000000 00000000 00000000     ... ... ........
    ea18:	00000400 03000400 03000700 01e00700     ................
    ea28:	01f80400 021f0400 fc070000 e0000000     ................
    ea38:	00070000 00380400 00c00700 00000600     ......8.........
    ea48:	00000400 00000400 00000000 00000000     ................
    ea58:	00000000 60800700 e0000600 e0030400     .......`........
    ea68:	a0070400 200e0400 203c0400 20700400     ....... ..< ..p 
    ea78:	20e00500 20800700 60000700 e0000400     ... ... ...`....
    ea88:	80030000 00000000 00000000 00000000     ................
	...
    eab0:	00800000 00800000 00400100 f83ffe07     ..........@...?.
    eac0:	04000008 02000010 02000010 00000000     ................
	...
    eaf4:	ffffffff 00000000 00000000 00000000     ................
	...
    eb1c:	02000010 02000010 04000008 f83ffe07     ..............?.
    eb2c:	00400100 00800000 00800000 00000000     ..@.............
	...
    eb58:	00000018 00000030 00000040 00000040     ....0...@...@...
    eb68:	00000040 00000020 00000030 00000008     @... ...0.......
    eb78:	00000004 00000002 00000002 00000002     ................
    eb88:	0000000c 00000018 00000000 00000043     ............C...
    eb98:	49534f50 00000058 0000002e 00000000     POSIX...........
    eba8:	ffffffff 7fefffff 00464e49 00666e69     ........INF.inf.
    ebb8:	004e414e 006e616e 00000030 33323130     NAN.nan.0...0123
    ebc8:	37363534 42413938 46454443 00000000     456789ABCDEF....
    ebd8:	33323130 37363534 62613938 66656463     0123456789abcdef
    ebe8:	00000000 ffff730c ffff72f8 ffff732a     .....s...r..*s..
    ebf8:	ffff7330 ffff730c 00000000 3fe00000     0s...s.........?
    ec08:	00000000 3ff00000 00000000 40000000     .......?.......@
    ec18:	ffc00000 41dfffff 94a03595 3fdfffff     .......A.5.....?
    ec28:	35afe535 3fe00000 94a03595 3fcfffff     5..5...?.5.....?
    ec38:	0000666e 74696e69 00000079 00006e61     nf..inity...an..

0000ec48 <fpi.3395>:
    ec48:	00000035 fffffbce 000003cb 00000001     5...............
    ec58:	00000000                                ....

0000ec5c <fpinan.3431>:
    ec5c:	00000034 fffffbce 000003cb 00000001     4...............
    ec6c:	00000000 7f7fffff 00000000              ............

0000ec78 <tinytens>:
    ec78:	97d889bc 3c9cd2b2 d5a8a733 3949f623     .......<3...#.I9
    ec88:	44f4a73d 32a50ffd cf8c979d 255bba08     =..D...2......[%
    ec98:	64ac6f43 11680628                       Co.d(.h.

0000eca0 <_ctype_>:
    eca0:	20202000 20202020 28282020 20282828     .         ((((( 
    ecb0:	20202020 20202020 20202020 20202020                     
    ecc0:	10108820 10101010 10101010 10101010      ...............
    ecd0:	04040410 04040404 10040404 10101010     ................
    ece0:	41411010 41414141 01010101 01010101     ..AAAAAA........
    ecf0:	01010101 01010101 01010101 10101010     ................
    ed00:	42421010 42424242 02020202 02020202     ..BBBBBB........
    ed10:	02020202 02020202 02020202 10101010     ................
    ed20:	00000020 00000000 00000000 00000000      ...............
	...
    edac:	3ff80000 636f4361 3fd287a7 8b60c8b3     ...?aCoc...?..`.
    edbc:	3fc68a28 509f79fb 3fd34413 00000000     (..?.y.P.D.?....
    edcc:	40240000 00000000 401c0000 00000000     ..$@.......@....
    eddc:	40140000 69666e49 7974696e 00000000     ...@Infinity....
    edec:	004e614e                                NaN.

0000edf0 <__sf_fake_stderr>:
	...

0000ee10 <__sf_fake_stdin>:
	...

0000ee30 <__sf_fake_stdout>:
	...

0000ee50 <__mprec_bigtens>:
    ee50:	37e08000 4341c379 b5056e17 4693b8b5     ...7y.AC.n.....F
    ee60:	e93ff9f5 4d384f03 f9301d32 5a827748     ..?..O8M2.0.Hw.Z
    ee70:	7f73bf3c 75154fdd                       <.s..O.u

0000ee78 <__mprec_tens>:
    ee78:	00000000 3ff00000 00000000 40240000     .......?......$@
    ee88:	00000000 40590000 00000000 408f4000     ......Y@.....@.@
    ee98:	00000000 40c38800 00000000 40f86a00     .......@.....j.@
    eea8:	00000000 412e8480 00000000 416312d0     .......A......cA
    eeb8:	00000000 4197d784 00000000 41cdcd65     .......A....e..A
    eec8:	20000000 4202a05f e8000000 42374876     ... _..B....vH7B
    eed8:	a2000000 426d1a94 e5400000 42a2309c     ......mB..@..0.B
    eee8:	1e900000 42d6bcc4 26340000 430c6bf5     .......B..4&.k.C
    eef8:	37e08000 4341c379 85d8a000 43763457     ...7y.AC....W4vC
    ef08:	674ec800 43abc16d 60913d00 43e158e4     ..Ngm..C.=.`.X.C
    ef18:	78b58c40 4415af1d d6e2ef50 444b1ae4     @..x...DP.....KD
    ef28:	064dd592 4480f0cf c7e14af6 44b52d02     ..M....D.J...-.D
    ef38:	79d99db4 44ea7843                       ...yCx.D

0000ef40 <p05.3319>:
    ef40:	00000005 00000019 0000007d 2b302d23     ........}...#-0+
    ef50:	00000020 004c6c68 45676665 00004746      ...hlL.efgEFG..
    ef60:	7fc00000 ffffaf10 ffffad94 ffffaea4     ................
    ef70:	ffffaeac ffffaea4 ffffadc4 ffffaea4     ................
    ef80:	ffffaeac ffffad94 ffffad94 ffffadc4     ................
    ef90:	ffffaeac ffffaf06 ffffaf06 ffffaf06     ................
    efa0:	ffffadc4 ffffb620 ffffb512 ffffb512     .... ...........
    efb0:	ffffb510 ffffb518 ffffb518 ffffb4de     ................
    efc0:	ffffb510 ffffb518 ffffb4de ffffb518     ................
    efd0:	ffffb510 ffffb60c ffffb60c ffffb60c     ................
    efe0:	ffffb4de                                ....

0000efe4 <__clz_tab>:
    efe4:	02020100 03030303 04040404 04040404     ................
    eff4:	05050505 05050505 05050505 05050505     ................
    f004:	06060606 06060606 06060606 06060606     ................
    f014:	06060606 06060606 06060606 06060606     ................
    f024:	07070707 07070707 07070707 07070707     ................
    f034:	07070707 07070707 07070707 07070707     ................
    f044:	07070707 07070707 07070707 07070707     ................
    f054:	07070707 07070707 07070707 07070707     ................
    f064:	08080808 08080808 08080808 08080808     ................
    f074:	08080808 08080808 08080808 08080808     ................
    f084:	08080808 08080808 08080808 08080808     ................
    f094:	08080808 08080808 08080808 08080808     ................
    f0a4:	08080808 08080808 08080808 08080808     ................
    f0b4:	08080808 08080808 08080808 08080808     ................
    f0c4:	08080808 08080808 08080808 08080808     ................
    f0d4:	08080808 08080808 08080808 08080808     ................
